	.file	"BotDataXMLHandler.cpp"
	.text
Ltext0:
	.section .rdata,"dr"
__ZStL19piecewise_construct:
	.space 1
	.section	.text$_ZnwjPv,"x"
	.linkonce discard
	.globl	__ZnwjPv
	.def	__ZnwjPv;	.scl	2;	.type	32;	.endef
__ZnwjPv:
LFB312:
	.file 1 "c:/program files (x86)/codeblocks/mingw/bin/../lib/gcc/mingw32/4.7.0/include/c++/new"
	.loc 1 112 0
	.cfi_startproc
	pushl	%ebp
LCFI0:
	.cfi_def_cfa_offset 8
	.cfi_offset 5, -8
	movl	%esp, %ebp
LCFI1:
	.cfi_def_cfa_register 5
	.loc 1 112 0
	movl	12(%ebp), %eax
	popl	%ebp
LCFI2:
	.cfi_restore 5
	.cfi_def_cfa 4, 4
	ret
	.cfi_endproc
LFE312:
	.section	.text$_ZN7BotDataC1EiiSsSsi11BotLanguageiPi,"x"
	.linkonce discard
	.align 2
	.globl	__ZN7BotDataC1EiiSsSsi11BotLanguageiPi
	.def	__ZN7BotDataC1EiiSsSsi11BotLanguageiPi;	.scl	2;	.type	32;	.endef
__ZN7BotDataC1EiiSsSsi11BotLanguageiPi:
LFB695:
	.file 2 "F:/CSIKI/PROGRAMING/C++/main/Croupier/BotTester/BotTester/BotData.h"
	.loc 2 24 0
	.cfi_startproc
	.cfi_personality 0,___gxx_personality_v0
	.cfi_lsda 0,LLSDA695
	pushl	%ebp
LCFI3:
	.cfi_def_cfa_offset 8
	.cfi_offset 5, -8
	movl	%esp, %ebp
LCFI4:
	.cfi_def_cfa_register 5
	pushl	%ebx
	subl	$36, %esp
	.cfi_offset 3, -12
	movl	%ecx, -12(%ebp)
LBB2:
	.loc 2 27 0
	movl	-12(%ebp), %eax
	movl	$__ZTV7BotData+8, (%eax)
	movl	-12(%ebp), %eax
	movl	8(%ebp), %edx
	movl	%edx, 4(%eax)
	movl	-12(%ebp), %eax
	movl	12(%ebp), %edx
	movl	%edx, 8(%eax)
	movl	-12(%ebp), %eax
	leal	12(%eax), %edx
	movl	16(%ebp), %eax
	movl	%eax, (%esp)
	movl	%edx, %ecx
LEHB0:
	call	__ZNSsC1ERKSs
LEHE0:
	subl	$4, %esp
	movl	-12(%ebp), %eax
	leal	16(%eax), %edx
	movl	20(%ebp), %eax
	movl	%eax, (%esp)
	movl	%edx, %ecx
LEHB1:
	call	__ZNSsC1ERKSs
LEHE1:
	subl	$4, %esp
	movl	-12(%ebp), %eax
	movl	24(%ebp), %edx
	movl	%edx, 20(%eax)
	movl	-12(%ebp), %eax
	movl	28(%ebp), %edx
	movl	%edx, 24(%eax)
	movl	-12(%ebp), %eax
	movl	32(%ebp), %edx
	movl	%edx, 28(%eax)
	movl	-12(%ebp), %eax
	movl	36(%ebp), %edx
	movl	%edx, 32(%eax)
	jmp	L6
L5:
	movl	%eax, %ebx
	movl	-12(%ebp), %eax
	addl	$12, %eax
	movl	%eax, %ecx
	call	__ZNSsD1Ev
	movl	%ebx, %eax
	movl	%eax, (%esp)
LEHB2:
	call	__Unwind_Resume
LEHE2:
L6:
LBE2:
	.loc 2 28 0
	movl	-4(%ebp), %ebx
	leave
LCFI5:
	.cfi_restore 5
	.cfi_restore 3
	.cfi_def_cfa 4, 4
	ret	$32
	.cfi_endproc
LFE695:
	.def	___gxx_personality_v0;	.scl	2;	.type	32;	.endef
	.section	.gcc_except_table,"w"
LLSDA695:
	.byte	0xff
	.byte	0xff
	.byte	0x1
	.uleb128 LLSDACSE695-LLSDACSB695
LLSDACSB695:
	.uleb128 LEHB0-LFB695
	.uleb128 LEHE0-LEHB0
	.uleb128 0
	.uleb128 0
	.uleb128 LEHB1-LFB695
	.uleb128 LEHE1-LEHB1
	.uleb128 L5-LFB695
	.uleb128 0
	.uleb128 LEHB2-LFB695
	.uleb128 LEHE2-LEHB2
	.uleb128 0
	.uleb128 0
LLSDACSE695:
	.section	.text$_ZN7BotDataC1EiiSsSsi11BotLanguageiPi,"x"
	.linkonce discard
	.section	.text$_ZN7BotDataD1Ev,"x"
	.linkonce discard
	.align 2
	.globl	__ZN7BotDataD1Ev
	.def	__ZN7BotDataD1Ev;	.scl	2;	.type	32;	.endef
__ZN7BotDataD1Ev:
LFB698:
	.loc 2 30 0
	.cfi_startproc
	pushl	%ebp
LCFI6:
	.cfi_def_cfa_offset 8
	.cfi_offset 5, -8
	movl	%esp, %ebp
LCFI7:
	.cfi_def_cfa_register 5
	subl	$40, %esp
	movl	%ecx, -12(%ebp)
LBB3:
	.loc 2 31 0
	movl	-12(%ebp), %eax
	movl	$__ZTV7BotData+8, (%eax)
	.loc 2 32 0
	movl	-12(%ebp), %eax
	movl	32(%eax), %eax
	testl	%eax, %eax
	je	L8
	.loc 2 32 0 is_stmt 0 discriminator 1
	movl	-12(%ebp), %eax
	movl	32(%eax), %eax
	movl	%eax, (%esp)
	call	__ZdaPv
L8:
	.loc 2 31 0 is_stmt 1
	movl	-12(%ebp), %eax
	addl	$16, %eax
	movl	%eax, %ecx
	call	__ZNSsD1Ev
	movl	-12(%ebp), %eax
	addl	$12, %eax
	movl	%eax, %ecx
	call	__ZNSsD1Ev
LBE3:
	.loc 2 33 0
	movl	$2, %eax
	andl	$1, %eax
	testl	%eax, %eax
	je	L7
	.loc 2 33 0 is_stmt 0 discriminator 1
	movl	-12(%ebp), %eax
	movl	%eax, (%esp)
	call	__ZdlPv
L7:
	.loc 2 33 0
	leave
LCFI8:
	.cfi_restore 5
	.cfi_def_cfa 4, 4
	ret
	.cfi_endproc
LFE698:
	.section	.text$_ZN7BotDataD0Ev,"x"
	.linkonce discard
	.align 2
	.globl	__ZN7BotDataD0Ev
	.def	__ZN7BotDataD0Ev;	.scl	2;	.type	32;	.endef
__ZN7BotDataD0Ev:
LFB699:
	.loc 2 30 0 is_stmt 1
	.cfi_startproc
	pushl	%ebp
LCFI9:
	.cfi_def_cfa_offset 8
	.cfi_offset 5, -8
	movl	%esp, %ebp
LCFI10:
	.cfi_def_cfa_register 5
	subl	$40, %esp
	movl	%ecx, -12(%ebp)
	.loc 2 33 0
	movl	-12(%ebp), %eax
	movl	%eax, %ecx
	call	__ZN7BotDataD1Ev
	movl	-12(%ebp), %eax
	movl	%eax, (%esp)
	call	__ZdlPv
	leave
LCFI11:
	.cfi_restore 5
	.cfi_def_cfa 4, 4
	ret
	.cfi_endproc
LFE699:
	.section	.text$_ZNSt4listIiSaIiEED1Ev,"x"
	.linkonce discard
	.align 2
	.globl	__ZNSt4listIiSaIiEED1Ev
	.def	__ZNSt4listIiSaIiEED1Ev;	.scl	2;	.type	32;	.endef
__ZNSt4listIiSaIiEED1Ev:
LFB1278:
	.file 3 "c:/program files (x86)/codeblocks/mingw/bin/../lib/gcc/mingw32/4.7.0/include/c++/bits/stl_list.h"
	.loc 3 458 0
	.cfi_startproc
	pushl	%ebp
LCFI12:
	.cfi_def_cfa_offset 8
	.cfi_offset 5, -8
	movl	%esp, %ebp
LCFI13:
	.cfi_def_cfa_register 5
	subl	$24, %esp
	movl	%ecx, -12(%ebp)
LBB4:
	.loc 3 458 0
	movl	-12(%ebp), %eax
	movl	%eax, %ecx
	call	__ZNSt10_List_baseIiSaIiEED2Ev
LBE4:
	leave
LCFI14:
	.cfi_restore 5
	.cfi_def_cfa 4, 4
	ret
	.cfi_endproc
LFE1278:
	.section .rdata,"dr"
LC0:
	.ascii "id\0"
LC1:
	.ascii "playerid\0"
LC2:
	.ascii "name\0"
LC3:
	.ascii "\0"
LC4:
	.ascii "src\0"
LC5:
	.ascii "lang\0"
LC6:
	.ascii "credit\0"
LC7:
	.ascii "knowledgetables\0"
LC8:
	.ascii "tableid\0"
	.text
	.align 2
	.globl	__ZN17BotDataXMLHandler7loadXMLERN4pugi8xml_nodeE
	.def	__ZN17BotDataXMLHandler7loadXMLERN4pugi8xml_nodeE;	.scl	2;	.type	32;	.endef
__ZN17BotDataXMLHandler7loadXMLERN4pugi8xml_nodeE:
LFB1275:
	.file 4 "F:/CSIKI/PROGRAMING/C++/main/Croupier/BotTester/BotTester/BotDataXMLHandler.cpp"
	.loc 4 7 0
	.cfi_startproc
	.cfi_personality 0,___gxx_personality_v0
	.cfi_lsda 0,LLSDA1275
	pushl	%ebp
LCFI15:
	.cfi_def_cfa_offset 8
	.cfi_offset 5, -8
	movl	%esp, %ebp
LCFI16:
	.cfi_def_cfa_register 5
	pushl	%edi
	pushl	%esi
	pushl	%ebx
	subl	$188, %esp
	.cfi_offset 7, -12
	.cfi_offset 6, -16
	.cfi_offset 3, -20
LBB5:
	.loc 4 8 0
	movl	$0, -32(%ebp)
	.loc 4 13 0
	leal	-128(%ebp), %eax
	movl	%eax, %ecx
LEHB3:
	call	__ZNSsC1Ev
LEHE3:
	.loc 4 13 0 is_stmt 0 discriminator 1
	leal	-132(%ebp), %eax
	movl	%eax, %ecx
LEHB4:
	call	__ZNSsC1Ev
LEHE4:
	.loc 4 16 0 is_stmt 1
	movl	$LC0, (%esp)
	movl	8(%ebp), %ecx
LEHB5:
	call	__ZNK4pugi8xml_node5childEPKc
LEHE5:
	subl	$4, %esp
	movl	%eax, -120(%ebp)
	leal	-120(%ebp), %eax
	movl	%eax, %ecx
LEHB6:
	call	__ZNK4pugi8xml_node4textEv
LEHE6:
	.loc 4 16 0 is_stmt 0 discriminator 1
	movl	%eax, -124(%ebp)
	leal	-124(%ebp), %eax
	movl	$0, (%esp)
	movl	%eax, %ecx
LEHB7:
	call	__ZNK4pugi8xml_text6as_intEi
LEHE7:
	subl	$4, %esp
	movl	%eax, -36(%ebp)
	.loc 4 17 0 is_stmt 1 discriminator 1
	movl	$LC1, (%esp)
	movl	8(%ebp), %ecx
LEHB8:
	call	__ZNK4pugi8xml_node5childEPKc
LEHE8:
	subl	$4, %esp
	movl	%eax, -112(%ebp)
	leal	-112(%ebp), %eax
	movl	%eax, %ecx
LEHB9:
	call	__ZNK4pugi8xml_node4textEv
LEHE9:
	movl	%eax, -116(%ebp)
	leal	-116(%ebp), %eax
	movl	$0, (%esp)
	movl	%eax, %ecx
LEHB10:
	call	__ZNK4pugi8xml_text6as_intEi
LEHE10:
	subl	$4, %esp
	movl	%eax, -40(%ebp)
	.loc 4 18 0 discriminator 1
	movl	$LC2, (%esp)
	movl	8(%ebp), %ecx
LEHB11:
	call	__ZNK4pugi8xml_node5childEPKc
LEHE11:
	subl	$4, %esp
	movl	%eax, -104(%ebp)
	leal	-104(%ebp), %eax
	movl	%eax, %ecx
LEHB12:
	call	__ZNK4pugi8xml_node4textEv
LEHE12:
	movl	%eax, -108(%ebp)
	leal	-108(%ebp), %eax
	movl	$LC3, (%esp)
	movl	%eax, %ecx
LEHB13:
	call	__ZNK4pugi8xml_text9as_stringEPKc
	subl	$4, %esp
	movl	%eax, %edx
	leal	-128(%ebp), %eax
	movl	%edx, (%esp)
	movl	%eax, %ecx
	call	__ZNSsaSEPKc
LEHE13:
	.loc 4 18 0 is_stmt 0 discriminator 2
	subl	$4, %esp
	.loc 4 19 0 is_stmt 1 discriminator 2
	movl	$LC4, (%esp)
	movl	8(%ebp), %ecx
LEHB14:
	call	__ZNK4pugi8xml_node5childEPKc
LEHE14:
	.loc 4 19 0 is_stmt 0 discriminator 1
	subl	$4, %esp
	movl	%eax, -96(%ebp)
	leal	-96(%ebp), %eax
	movl	%eax, %ecx
LEHB15:
	call	__ZNK4pugi8xml_node4textEv
LEHE15:
	movl	%eax, -100(%ebp)
	leal	-100(%ebp), %eax
	movl	$LC3, (%esp)
	movl	%eax, %ecx
LEHB16:
	call	__ZNK4pugi8xml_text9as_stringEPKc
	subl	$4, %esp
	movl	%eax, %edx
	leal	-132(%ebp), %eax
	movl	%edx, (%esp)
	movl	%eax, %ecx
	call	__ZNSsaSEPKc
LEHE16:
	.loc 4 19 0 discriminator 2
	subl	$4, %esp
	.loc 4 20 0 is_stmt 1 discriminator 2
	movl	$LC5, (%esp)
	movl	8(%ebp), %ecx
LEHB17:
	call	__ZNK4pugi8xml_node5childEPKc
LEHE17:
	.loc 4 20 0 is_stmt 0 discriminator 1
	subl	$4, %esp
	movl	%eax, -88(%ebp)
	leal	-88(%ebp), %eax
	movl	%eax, %ecx
LEHB18:
	call	__ZNK4pugi8xml_node4textEv
LEHE18:
	movl	%eax, -92(%ebp)
	leal	-92(%ebp), %eax
	movl	$0, (%esp)
	movl	%eax, %ecx
LEHB19:
	call	__ZNK4pugi8xml_text6as_intEi
LEHE19:
	subl	$4, %esp
	movl	%eax, -44(%ebp)
	.loc 4 21 0 is_stmt 1 discriminator 1
	movl	$LC6, (%esp)
	movl	8(%ebp), %ecx
LEHB20:
	call	__ZNK4pugi8xml_node5childEPKc
LEHE20:
	.loc 4 21 0 is_stmt 0 discriminator 2
	subl	$4, %esp
	movl	%eax, -80(%ebp)
	leal	-80(%ebp), %eax
	movl	%eax, %ecx
LEHB21:
	call	__ZNK4pugi8xml_node4textEv
LEHE21:
	.loc 4 21 0 discriminator 1
	movl	%eax, -84(%ebp)
	leal	-84(%ebp), %eax
	movl	$0, (%esp)
	movl	%eax, %ecx
LEHB22:
	call	__ZNK4pugi8xml_text6as_intEi
LEHE22:
	subl	$4, %esp
	movl	%eax, -48(%ebp)
	.loc 4 24 0 is_stmt 1 discriminator 1
	leal	-144(%ebp), %eax
	movl	%eax, %ecx
LEHB23:
	call	__ZNSt4listIiSaIiEEC1Ev
LEHE23:
	.loc 4 25 0
	movl	$LC7, (%esp)
	movl	8(%ebp), %ecx
LEHB24:
	call	__ZNK4pugi8xml_node5childEPKc
LEHE24:
	subl	$4, %esp
	movl	%eax, -148(%ebp)
LBB6:
	.loc 4 26 0
	leal	-148(%ebp), %eax
	movl	$LC8, (%esp)
	movl	%eax, %ecx
LEHB25:
	call	__ZNK4pugi8xml_node5childEPKc
	subl	$4, %esp
	movl	%eax, -152(%ebp)
	jmp	L16
L17:
	.loc 4 28 0
	leal	-152(%ebp), %eax
	movl	%eax, %ecx
	call	__ZNK4pugi8xml_node4textEv
LEHE25:
	movl	%eax, -72(%ebp)
	leal	-72(%ebp), %eax
	movl	$0, (%esp)
	movl	%eax, %ecx
LEHB26:
	call	__ZNK4pugi8xml_text6as_intEi
LEHE26:
	.loc 4 28 0 is_stmt 0 discriminator 1
	subl	$4, %esp
	movl	%eax, -76(%ebp)
	leal	-144(%ebp), %eax
	leal	-76(%ebp), %edx
	movl	%edx, (%esp)
	movl	%eax, %ecx
LEHB27:
	call	__ZNSt4listIiSaIiEE9push_backEOi
LEHE27:
	.loc 4 28 0 discriminator 2
	subl	$4, %esp
	.loc 4 26 0 is_stmt 1 discriminator 2
	leal	-152(%ebp), %eax
	movl	$LC8, (%esp)
	movl	%eax, %ecx
LEHB28:
	call	__ZNK4pugi8xml_node12next_siblingEPKc
	.loc 4 26 0 is_stmt 0 discriminator 1
	subl	$4, %esp
	movl	%eax, -152(%ebp)
L16:
	leal	-152(%ebp), %eax
	movl	%eax, %ecx
	call	__ZNK4pugi8xml_nodecvPFvPPPS0_EEv
LEHE28:
	testl	%eax, %eax
	setne	%al
	testb	%al, %al
	jne	L17
LBE6:
	.loc 4 30 0 is_stmt 1
	leal	-144(%ebp), %eax
	movl	%eax, %ecx
	call	__ZNKSt4listIiSaIiEE4sizeEv
	movl	%eax, -52(%ebp)
	.loc 4 32 0
	movl	-52(%ebp), %eax
	sall	$2, %eax
	movl	%eax, (%esp)
LEHB29:
	call	__Znaj
	movl	%eax, -56(%ebp)
	.loc 4 33 0
	movl	$0, -28(%ebp)
LBB7:
	.loc 4 34 0
	leal	-144(%ebp), %eax
	movl	%eax, %ecx
	call	__ZNSt4listIiSaIiEE5beginEv
	movl	%eax, -156(%ebp)
	jmp	L18
L19:
	.loc 4 36 0 discriminator 2
	movl	-28(%ebp), %eax
	leal	0(,%eax,4), %edx
	movl	-56(%ebp), %eax
	leal	(%edx,%eax), %ebx
	leal	-156(%ebp), %eax
	movl	%eax, %ecx
	call	__ZNKSt14_List_iteratorIiEdeEv
	movl	(%eax), %eax
	movl	%eax, (%ebx)
	incl	-28(%ebp)
	.loc 4 34 0 discriminator 2
	leal	-156(%ebp), %eax
	movl	%eax, %ecx
	call	__ZNSt14_List_iteratorIiEppEv
L18:
	.loc 4 34 0 is_stmt 0 discriminator 1
	leal	-144(%ebp), %eax
	movl	%eax, %ecx
	call	__ZNSt4listIiSaIiEE3endEv
	movl	%eax, -68(%ebp)
	leal	-156(%ebp), %eax
	leal	-68(%ebp), %edx
	movl	%edx, (%esp)
	movl	%eax, %ecx
	call	__ZNKSt14_List_iteratorIiEneERKS0_
	subl	$4, %esp
	testb	%al, %al
	jne	L19
LBE7:
	.loc 4 40 0 is_stmt 1
	leal	-64(%ebp), %eax
	leal	-128(%ebp), %edx
	movl	%edx, (%esp)
	movl	%eax, %ecx
	call	__ZNSsC1ERKSs
LEHE29:
	subl	$4, %esp
	leal	-64(%ebp), %esi
	leal	-60(%ebp), %eax
	leal	-132(%ebp), %edx
	movl	%edx, (%esp)
	movl	%eax, %ecx
LEHB30:
	call	__ZNSsC1ERKSs
LEHE30:
	.loc 4 40 0 is_stmt 0 discriminator 1
	subl	$4, %esp
	leal	-60(%ebp), %edi
	movl	$40, (%esp)
LEHB31:
	call	__Znwj
LEHE31:
	.loc 4 40 0 discriminator 2
	movl	%eax, %ebx
	movl	-56(%ebp), %eax
	movl	%eax, 28(%esp)
	movl	-52(%ebp), %eax
	movl	%eax, 24(%esp)
	movl	-44(%ebp), %eax
	movl	%eax, 20(%esp)
	movl	-48(%ebp), %eax
	movl	%eax, 16(%esp)
	movl	%edi, 12(%esp)
	movl	%esi, 8(%esp)
	movl	-40(%ebp), %eax
	movl	%eax, 4(%esp)
	movl	-36(%ebp), %eax
	movl	%eax, (%esp)
	movl	%ebx, %ecx
LEHB32:
	call	__ZN7BotDataC1EiiSsSsi11BotLanguageiPi
LEHE32:
	.loc 4 40 0 discriminator 3
	subl	$32, %esp
	movl	%ebx, -32(%ebp)
	leal	-60(%ebp), %eax
	movl	%eax, %ecx
	call	__ZNSsD1Ev
	leal	-64(%ebp), %eax
	movl	%eax, %ecx
	call	__ZNSsD1Ev
	.loc 4 42 0 is_stmt 1 discriminator 3
	movl	-32(%ebp), %ebx
	leal	-144(%ebp), %eax
	movl	%eax, %ecx
	call	__ZNSt4listIiSaIiEED1Ev
	leal	-132(%ebp), %eax
	movl	%eax, %ecx
	call	__ZNSsD1Ev
	leal	-128(%ebp), %eax
	movl	%eax, %ecx
	call	__ZNSsD1Ev
	movl	%ebx, %eax
	jmp	L65
L47:
	jmp	L22
L46:
L22:
	movl	%eax, %ebx
	jmp	L23
L49:
	jmp	L25
L48:
L25:
	movl	%eax, %ebx
	jmp	L23
L51:
	jmp	L27
L50:
L27:
	movl	%eax, %ebx
	jmp	L23
L53:
	jmp	L29
L52:
L29:
	movl	%eax, %ebx
	jmp	L23
L55:
	jmp	L31
L54:
L31:
	movl	%eax, %ebx
	jmp	L23
L57:
	jmp	L33
L56:
L33:
	movl	%eax, %ebx
	jmp	L23
L61:
	jmp	L35
L60:
L35:
	jmp	L36
L59:
L36:
	movl	%eax, %ebx
	jmp	L37
L64:
	movl	%eax, %esi
	.loc 4 40 0
	movl	%ebx, (%esp)
	call	__ZdlPv
	movl	%esi, %ebx
	jmp	L39
L63:
	movl	%eax, %ebx
L39:
	leal	-60(%ebp), %eax
	movl	%eax, %ecx
	call	__ZNSsD1Ev
	jmp	L40
L62:
	movl	%eax, %ebx
L40:
	leal	-64(%ebp), %eax
	movl	%eax, %ecx
	call	__ZNSsD1Ev
	jmp	L37
L58:
	movl	%eax, %ebx
L37:
	.loc 4 42 0
	leal	-144(%ebp), %eax
	movl	%eax, %ecx
	call	__ZNSt4listIiSaIiEED1Ev
	jmp	L23
L45:
	movl	%eax, %ebx
L23:
	leal	-132(%ebp), %eax
	movl	%eax, %ecx
	call	__ZNSsD1Ev
	jmp	L41
L44:
	movl	%eax, %ebx
L41:
	leal	-128(%ebp), %eax
	movl	%eax, %ecx
	call	__ZNSsD1Ev
	movl	%ebx, %eax
	jmp	L42
L43:
L42:
	movl	%eax, (%esp)
LEHB33:
	call	__Unwind_Resume
LEHE33:
L65:
LBE5:
	.loc 4 43 0
	leal	-12(%ebp), %esp
	popl	%ebx
	.cfi_restore 3
	popl	%esi
	.cfi_restore 6
	popl	%edi
	.cfi_restore 7
	popl	%ebp
LCFI17:
	.cfi_restore 5
	.cfi_def_cfa 4, 4
	ret
	.cfi_endproc
LFE1275:
	.section	.gcc_except_table,"w"
LLSDA1275:
	.byte	0xff
	.byte	0xff
	.byte	0x1
	.uleb128 LLSDACSE1275-LLSDACSB1275
LLSDACSB1275:
	.uleb128 LEHB3-LFB1275
	.uleb128 LEHE3-LEHB3
	.uleb128 L43-LFB1275
	.uleb128 0
	.uleb128 LEHB4-LFB1275
	.uleb128 LEHE4-LEHB4
	.uleb128 L44-LFB1275
	.uleb128 0
	.uleb128 LEHB5-LFB1275
	.uleb128 LEHE5-LEHB5
	.uleb128 L45-LFB1275
	.uleb128 0
	.uleb128 LEHB6-LFB1275
	.uleb128 LEHE6-LEHB6
	.uleb128 L46-LFB1275
	.uleb128 0
	.uleb128 LEHB7-LFB1275
	.uleb128 LEHE7-LEHB7
	.uleb128 L47-LFB1275
	.uleb128 0
	.uleb128 LEHB8-LFB1275
	.uleb128 LEHE8-LEHB8
	.uleb128 L45-LFB1275
	.uleb128 0
	.uleb128 LEHB9-LFB1275
	.uleb128 LEHE9-LEHB9
	.uleb128 L48-LFB1275
	.uleb128 0
	.uleb128 LEHB10-LFB1275
	.uleb128 LEHE10-LEHB10
	.uleb128 L49-LFB1275
	.uleb128 0
	.uleb128 LEHB11-LFB1275
	.uleb128 LEHE11-LEHB11
	.uleb128 L45-LFB1275
	.uleb128 0
	.uleb128 LEHB12-LFB1275
	.uleb128 LEHE12-LEHB12
	.uleb128 L50-LFB1275
	.uleb128 0
	.uleb128 LEHB13-LFB1275
	.uleb128 LEHE13-LEHB13
	.uleb128 L51-LFB1275
	.uleb128 0
	.uleb128 LEHB14-LFB1275
	.uleb128 LEHE14-LEHB14
	.uleb128 L45-LFB1275
	.uleb128 0
	.uleb128 LEHB15-LFB1275
	.uleb128 LEHE15-LEHB15
	.uleb128 L52-LFB1275
	.uleb128 0
	.uleb128 LEHB16-LFB1275
	.uleb128 LEHE16-LEHB16
	.uleb128 L53-LFB1275
	.uleb128 0
	.uleb128 LEHB17-LFB1275
	.uleb128 LEHE17-LEHB17
	.uleb128 L45-LFB1275
	.uleb128 0
	.uleb128 LEHB18-LFB1275
	.uleb128 LEHE18-LEHB18
	.uleb128 L54-LFB1275
	.uleb128 0
	.uleb128 LEHB19-LFB1275
	.uleb128 LEHE19-LEHB19
	.uleb128 L55-LFB1275
	.uleb128 0
	.uleb128 LEHB20-LFB1275
	.uleb128 LEHE20-LEHB20
	.uleb128 L45-LFB1275
	.uleb128 0
	.uleb128 LEHB21-LFB1275
	.uleb128 LEHE21-LEHB21
	.uleb128 L56-LFB1275
	.uleb128 0
	.uleb128 LEHB22-LFB1275
	.uleb128 LEHE22-LEHB22
	.uleb128 L57-LFB1275
	.uleb128 0
	.uleb128 LEHB23-LFB1275
	.uleb128 LEHE23-LEHB23
	.uleb128 L45-LFB1275
	.uleb128 0
	.uleb128 LEHB24-LFB1275
	.uleb128 LEHE24-LEHB24
	.uleb128 L58-LFB1275
	.uleb128 0
	.uleb128 LEHB25-LFB1275
	.uleb128 LEHE25-LEHB25
	.uleb128 L59-LFB1275
	.uleb128 0
	.uleb128 LEHB26-LFB1275
	.uleb128 LEHE26-LEHB26
	.uleb128 L60-LFB1275
	.uleb128 0
	.uleb128 LEHB27-LFB1275
	.uleb128 LEHE27-LEHB27
	.uleb128 L61-LFB1275
	.uleb128 0
	.uleb128 LEHB28-LFB1275
	.uleb128 LEHE28-LEHB28
	.uleb128 L59-LFB1275
	.uleb128 0
	.uleb128 LEHB29-LFB1275
	.uleb128 LEHE29-LEHB29
	.uleb128 L58-LFB1275
	.uleb128 0
	.uleb128 LEHB30-LFB1275
	.uleb128 LEHE30-LEHB30
	.uleb128 L62-LFB1275
	.uleb128 0
	.uleb128 LEHB31-LFB1275
	.uleb128 LEHE31-LEHB31
	.uleb128 L63-LFB1275
	.uleb128 0
	.uleb128 LEHB32-LFB1275
	.uleb128 LEHE32-LEHB32
	.uleb128 L64-LFB1275
	.uleb128 0
	.uleb128 LEHB33-LFB1275
	.uleb128 LEHE33-LEHB33
	.uleb128 0
	.uleb128 0
LLSDACSE1275:
	.text
	.align 2
	.globl	__ZN17BotDataXMLHandler7saveXMLEP7BotDataRN4pugi8xml_nodeE
	.def	__ZN17BotDataXMLHandler7saveXMLEP7BotDataRN4pugi8xml_nodeE;	.scl	2;	.type	32;	.endef
__ZN17BotDataXMLHandler7saveXMLEP7BotDataRN4pugi8xml_nodeE:
LFB1279:
	.loc 4 49 0
	.cfi_startproc
	.cfi_personality 0,___gxx_personality_v0
	.cfi_lsda 0,LLSDA1279
	pushl	%ebp
LCFI18:
	.cfi_def_cfa_offset 8
	.cfi_offset 5, -8
	movl	%esp, %ebp
LCFI19:
	.cfi_def_cfa_register 5
	pushl	%ebx
	subl	$84, %esp
	.cfi_offset 3, -12
LBB8:
LBB9:
	.loc 4 50 0
	cmpl	$0, 8(%ebp)
	je	L67
LBB10:
	.loc 4 53 0
	movl	8(%ebp), %eax
	movl	4(%eax), %ebx
	movl	12(%ebp), %eax
	movl	$LC0, (%esp)
	movl	%eax, %ecx
LEHB34:
	call	__ZN4pugi8xml_node12append_childEPKc
LEHE34:
	subl	$4, %esp
	movl	%eax, -64(%ebp)
	leal	-64(%ebp), %eax
	movl	%eax, %ecx
LEHB35:
	call	__ZNK4pugi8xml_node4textEv
LEHE35:
	.loc 4 53 0 is_stmt 0 discriminator 1
	movl	%eax, -68(%ebp)
	leal	-68(%ebp), %eax
	movl	%ebx, (%esp)
	movl	%eax, %ecx
LEHB36:
	call	__ZN4pugi8xml_text3setEi
LEHE36:
	subl	$4, %esp
	.loc 4 54 0 is_stmt 1 discriminator 1
	movl	8(%ebp), %eax
	movl	8(%eax), %ebx
	movl	12(%ebp), %eax
	movl	$LC1, (%esp)
	movl	%eax, %ecx
LEHB37:
	call	__ZN4pugi8xml_node12append_childEPKc
LEHE37:
	subl	$4, %esp
	movl	%eax, -56(%ebp)
	leal	-56(%ebp), %eax
	movl	%eax, %ecx
LEHB38:
	call	__ZNK4pugi8xml_node4textEv
LEHE38:
	movl	%eax, -60(%ebp)
	leal	-60(%ebp), %eax
	movl	%ebx, (%esp)
	movl	%eax, %ecx
LEHB39:
	call	__ZN4pugi8xml_text3setEi
LEHE39:
	subl	$4, %esp
	.loc 4 55 0 discriminator 1
	movl	8(%ebp), %eax
	addl	$12, %eax
	movl	%eax, %ecx
	call	__ZNKSs5c_strEv
	movl	%eax, %ebx
	movl	12(%ebp), %eax
	movl	$LC2, (%esp)
	movl	%eax, %ecx
LEHB40:
	call	__ZN4pugi8xml_node12append_childEPKc
LEHE40:
	subl	$4, %esp
	movl	%eax, -48(%ebp)
	leal	-48(%ebp), %eax
	movl	%eax, %ecx
LEHB41:
	call	__ZNK4pugi8xml_node4textEv
LEHE41:
	movl	%eax, -52(%ebp)
	leal	-52(%ebp), %eax
	movl	%ebx, (%esp)
	movl	%eax, %ecx
LEHB42:
	call	__ZN4pugi8xml_text3setEPKc
LEHE42:
	subl	$4, %esp
	.loc 4 56 0 discriminator 1
	movl	8(%ebp), %eax
	addl	$16, %eax
	movl	%eax, %ecx
	call	__ZNKSs5c_strEv
	movl	%eax, %ebx
	movl	12(%ebp), %eax
	movl	$LC4, (%esp)
	movl	%eax, %ecx
LEHB43:
	call	__ZN4pugi8xml_node12append_childEPKc
LEHE43:
	subl	$4, %esp
	movl	%eax, -40(%ebp)
	leal	-40(%ebp), %eax
	movl	%eax, %ecx
LEHB44:
	call	__ZNK4pugi8xml_node4textEv
LEHE44:
	movl	%eax, -44(%ebp)
	leal	-44(%ebp), %eax
	movl	%ebx, (%esp)
	movl	%eax, %ecx
LEHB45:
	call	__ZN4pugi8xml_text3setEPKc
LEHE45:
	subl	$4, %esp
	.loc 4 57 0 discriminator 1
	movl	8(%ebp), %eax
	movl	24(%eax), %eax
	movl	%eax, %ebx
	movl	12(%ebp), %eax
	movl	$LC5, (%esp)
	movl	%eax, %ecx
LEHB46:
	call	__ZN4pugi8xml_node12append_childEPKc
LEHE46:
	subl	$4, %esp
	movl	%eax, -32(%ebp)
	leal	-32(%ebp), %eax
	movl	%eax, %ecx
LEHB47:
	call	__ZNK4pugi8xml_node4textEv
LEHE47:
	movl	%eax, -36(%ebp)
	leal	-36(%ebp), %eax
	movl	%ebx, (%esp)
	movl	%eax, %ecx
LEHB48:
	call	__ZN4pugi8xml_text3setEi
LEHE48:
	subl	$4, %esp
	.loc 4 58 0 discriminator 1
	movl	8(%ebp), %eax
	movl	20(%eax), %ebx
	movl	12(%ebp), %eax
	movl	$LC6, (%esp)
	movl	%eax, %ecx
LEHB49:
	call	__ZN4pugi8xml_node12append_childEPKc
LEHE49:
	subl	$4, %esp
	movl	%eax, -24(%ebp)
	leal	-24(%ebp), %eax
	movl	%eax, %ecx
LEHB50:
	call	__ZNK4pugi8xml_node4textEv
LEHE50:
	movl	%eax, -28(%ebp)
	leal	-28(%ebp), %eax
	movl	%ebx, (%esp)
	movl	%eax, %ecx
LEHB51:
	call	__ZN4pugi8xml_text3setEi
LEHE51:
	subl	$4, %esp
	.loc 4 61 0 discriminator 1
	movl	12(%ebp), %eax
	movl	$LC7, (%esp)
	movl	%eax, %ecx
LEHB52:
	call	__ZN4pugi8xml_node12append_childEPKc
	subl	$4, %esp
	movl	%eax, -72(%ebp)
LBB11:
	.loc 4 62 0 discriminator 1
	movl	$0, -12(%ebp)
	jmp	L68
L69:
	.loc 4 64 0
	movl	8(%ebp), %eax
	movl	32(%eax), %eax
	movl	-12(%ebp), %edx
	sall	$2, %edx
	addl	%edx, %eax
	movl	(%eax), %ebx
	leal	-72(%ebp), %eax
	movl	$LC8, (%esp)
	movl	%eax, %ecx
	call	__ZN4pugi8xml_node12append_childEPKc
LEHE52:
	subl	$4, %esp
	movl	%eax, -16(%ebp)
	leal	-16(%ebp), %eax
	movl	%eax, %ecx
LEHB53:
	call	__ZNK4pugi8xml_node4textEv
LEHE53:
	.loc 4 64 0 is_stmt 0 discriminator 1
	movl	%eax, -20(%ebp)
	leal	-20(%ebp), %eax
	movl	%ebx, (%esp)
	movl	%eax, %ecx
LEHB54:
	call	__ZN4pugi8xml_text3setEi
LEHE54:
	subl	$4, %esp
	.loc 4 62 0 is_stmt 1 discriminator 1
	incl	-12(%ebp)
L68:
	movl	8(%ebp), %eax
	movl	28(%eax), %eax
	cmpl	-12(%ebp), %eax
	seta	%al
	testb	%al, %al
	jne	L69
LBE11:
	.loc 4 67 0
	movb	$1, %al
	jmp	L70
L67:
LBE10:
LBE9:
	.loc 4 70 0
	movb	$0, %al
L70:
	jmp	L101
L88:
	jmp	L72
L87:
L72:
	jmp	L73
L90:
	jmp	L75
L89:
L75:
	jmp	L73
L92:
	jmp	L77
L91:
L77:
	jmp	L73
L94:
	jmp	L79
L93:
L79:
	jmp	L73
L96:
	jmp	L81
L95:
L81:
	jmp	L73
L98:
	jmp	L83
L97:
L83:
	jmp	L73
L100:
	jmp	L85
L99:
L85:
	jmp	L73
L86:
L73:
	movl	%eax, (%esp)
LEHB55:
	call	__Unwind_Resume
LEHE55:
L101:
LBE8:
	.loc 4 71 0
	movl	-4(%ebp), %ebx
	leave
LCFI20:
	.cfi_restore 5
	.cfi_restore 3
	.cfi_def_cfa 4, 4
	ret
	.cfi_endproc
LFE1279:
	.section	.gcc_except_table,"w"
LLSDA1279:
	.byte	0xff
	.byte	0xff
	.byte	0x1
	.uleb128 LLSDACSE1279-LLSDACSB1279
LLSDACSB1279:
	.uleb128 LEHB34-LFB1279
	.uleb128 LEHE34-LEHB34
	.uleb128 L86-LFB1279
	.uleb128 0
	.uleb128 LEHB35-LFB1279
	.uleb128 LEHE35-LEHB35
	.uleb128 L87-LFB1279
	.uleb128 0
	.uleb128 LEHB36-LFB1279
	.uleb128 LEHE36-LEHB36
	.uleb128 L88-LFB1279
	.uleb128 0
	.uleb128 LEHB37-LFB1279
	.uleb128 LEHE37-LEHB37
	.uleb128 L86-LFB1279
	.uleb128 0
	.uleb128 LEHB38-LFB1279
	.uleb128 LEHE38-LEHB38
	.uleb128 L89-LFB1279
	.uleb128 0
	.uleb128 LEHB39-LFB1279
	.uleb128 LEHE39-LEHB39
	.uleb128 L90-LFB1279
	.uleb128 0
	.uleb128 LEHB40-LFB1279
	.uleb128 LEHE40-LEHB40
	.uleb128 L86-LFB1279
	.uleb128 0
	.uleb128 LEHB41-LFB1279
	.uleb128 LEHE41-LEHB41
	.uleb128 L91-LFB1279
	.uleb128 0
	.uleb128 LEHB42-LFB1279
	.uleb128 LEHE42-LEHB42
	.uleb128 L92-LFB1279
	.uleb128 0
	.uleb128 LEHB43-LFB1279
	.uleb128 LEHE43-LEHB43
	.uleb128 L86-LFB1279
	.uleb128 0
	.uleb128 LEHB44-LFB1279
	.uleb128 LEHE44-LEHB44
	.uleb128 L93-LFB1279
	.uleb128 0
	.uleb128 LEHB45-LFB1279
	.uleb128 LEHE45-LEHB45
	.uleb128 L94-LFB1279
	.uleb128 0
	.uleb128 LEHB46-LFB1279
	.uleb128 LEHE46-LEHB46
	.uleb128 L86-LFB1279
	.uleb128 0
	.uleb128 LEHB47-LFB1279
	.uleb128 LEHE47-LEHB47
	.uleb128 L95-LFB1279
	.uleb128 0
	.uleb128 LEHB48-LFB1279
	.uleb128 LEHE48-LEHB48
	.uleb128 L96-LFB1279
	.uleb128 0
	.uleb128 LEHB49-LFB1279
	.uleb128 LEHE49-LEHB49
	.uleb128 L86-LFB1279
	.uleb128 0
	.uleb128 LEHB50-LFB1279
	.uleb128 LEHE50-LEHB50
	.uleb128 L97-LFB1279
	.uleb128 0
	.uleb128 LEHB51-LFB1279
	.uleb128 LEHE51-LEHB51
	.uleb128 L98-LFB1279
	.uleb128 0
	.uleb128 LEHB52-LFB1279
	.uleb128 LEHE52-LEHB52
	.uleb128 L86-LFB1279
	.uleb128 0
	.uleb128 LEHB53-LFB1279
	.uleb128 LEHE53-LEHB53
	.uleb128 L99-LFB1279
	.uleb128 0
	.uleb128 LEHB54-LFB1279
	.uleb128 LEHE54-LEHB54
	.uleb128 L100-LFB1279
	.uleb128 0
	.uleb128 LEHB55-LFB1279
	.uleb128 LEHE55-LEHB55
	.uleb128 0
	.uleb128 0
LLSDACSE1279:
	.text
	.section	.text$_ZNSt4listIiSaIiEEC1Ev,"x"
	.linkonce discard
	.align 2
	.globl	__ZNSt4listIiSaIiEEC1Ev
	.def	__ZNSt4listIiSaIiEEC1Ev;	.scl	2;	.type	32;	.endef
__ZNSt4listIiSaIiEEC1Ev:
LFB1302:
	.loc 3 543 0
	.cfi_startproc
	pushl	%ebp
LCFI21:
	.cfi_def_cfa_offset 8
	.cfi_offset 5, -8
	movl	%esp, %ebp
LCFI22:
	.cfi_def_cfa_register 5
	subl	$24, %esp
	movl	%ecx, -12(%ebp)
LBB12:
	.loc 3 544 0
	movl	-12(%ebp), %eax
	movl	%eax, %ecx
	call	__ZNSt10_List_baseIiSaIiEEC2Ev
LBE12:
	leave
LCFI23:
	.cfi_restore 5
	.cfi_def_cfa 4, 4
	ret
	.cfi_endproc
LFE1302:
	.section	.text$_ZNSt10_List_baseIiSaIiEE10_List_implD1Ev,"x"
	.linkonce discard
	.align 2
	.globl	__ZNSt10_List_baseIiSaIiEE10_List_implD1Ev
	.def	__ZNSt10_List_baseIiSaIiEE10_List_implD1Ev;	.scl	2;	.type	32;	.endef
__ZNSt10_List_baseIiSaIiEE10_List_implD1Ev:
LFB1306:
	.loc 3 311 0
	.cfi_startproc
	pushl	%ebp
LCFI24:
	.cfi_def_cfa_offset 8
	.cfi_offset 5, -8
	movl	%esp, %ebp
LCFI25:
	.cfi_def_cfa_register 5
	subl	$24, %esp
	movl	%ecx, -12(%ebp)
LBB13:
	.loc 3 311 0
	movl	-12(%ebp), %eax
	movl	%eax, %ecx
	call	__ZNSaISt10_List_nodeIiEED2Ev
LBE13:
	leave
LCFI26:
	.cfi_restore 5
	.cfi_def_cfa 4, 4
	ret
	.cfi_endproc
LFE1306:
	.section	.text$_ZNSt10_List_baseIiSaIiEED2Ev,"x"
	.linkonce discard
	.align 2
	.globl	__ZNSt10_List_baseIiSaIiEED2Ev
	.def	__ZNSt10_List_baseIiSaIiEED2Ev;	.scl	2;	.type	32;	.endef
__ZNSt10_List_baseIiSaIiEED2Ev:
LFB1307:
	.loc 3 400 0
	.cfi_startproc
	.cfi_personality 0,___gxx_personality_v0
	.cfi_lsda 0,LLSDA1307
	pushl	%ebp
LCFI27:
	.cfi_def_cfa_offset 8
	.cfi_offset 5, -8
	movl	%esp, %ebp
LCFI28:
	.cfi_def_cfa_register 5
	subl	$24, %esp
	movl	%ecx, -12(%ebp)
LBB14:
	.loc 3 401 0
	movl	-12(%ebp), %eax
	movl	%eax, %ecx
	call	__ZNSt10_List_baseIiSaIiEE8_M_clearEv
	movl	-12(%ebp), %eax
	movl	%eax, %ecx
	call	__ZNSt10_List_baseIiSaIiEE10_List_implD1Ev
LBE14:
	leave
LCFI29:
	.cfi_restore 5
	.cfi_def_cfa 4, 4
	ret
	.cfi_endproc
LFE1307:
	.section	.gcc_except_table,"w"
LLSDA1307:
	.byte	0xff
	.byte	0xff
	.byte	0x1
	.uleb128 LLSDACSE1307-LLSDACSB1307
LLSDACSB1307:
LLSDACSE1307:
	.section	.text$_ZNSt10_List_baseIiSaIiEED2Ev,"x"
	.linkonce discard
	.section	.text$_ZSt4moveIRiEONSt16remove_referenceIT_E4typeEOS2_,"x"
	.linkonce discard
	.globl	__ZSt4moveIRiEONSt16remove_referenceIT_E4typeEOS2_
	.def	__ZSt4moveIRiEONSt16remove_referenceIT_E4typeEOS2_;	.scl	2;	.type	32;	.endef
__ZSt4moveIRiEONSt16remove_referenceIT_E4typeEOS2_:
LFB1310:
	.file 5 "c:/program files (x86)/codeblocks/mingw/bin/../lib/gcc/mingw32/4.7.0/include/c++/bits/move.h"
	.loc 5 102 0
	.cfi_startproc
	pushl	%ebp
LCFI30:
	.cfi_def_cfa_offset 8
	.cfi_offset 5, -8
	movl	%esp, %ebp
LCFI31:
	.cfi_def_cfa_register 5
	.loc 5 103 0
	movl	8(%ebp), %eax
	popl	%ebp
LCFI32:
	.cfi_restore 5
	.cfi_def_cfa 4, 4
	ret
	.cfi_endproc
LFE1310:
	.section	.text$_ZNSt4listIiSaIiEE9push_backEOi,"x"
	.linkonce discard
	.align 2
	.globl	__ZNSt4listIiSaIiEE9push_backEOi
	.def	__ZNSt4listIiSaIiEE9push_backEOi;	.scl	2;	.type	32;	.endef
__ZNSt4listIiSaIiEE9push_backEOi:
LFB1309:
	.loc 3 1029 0
	.cfi_startproc
	pushl	%ebp
LCFI33:
	.cfi_def_cfa_offset 8
	.cfi_offset 5, -8
	movl	%esp, %ebp
LCFI34:
	.cfi_def_cfa_register 5
	pushl	%ebx
	subl	$36, %esp
	.cfi_offset 3, -12
	movl	%ecx, -12(%ebp)
	.loc 3 1030 0
	movl	8(%ebp), %eax
	movl	%eax, (%esp)
	call	__ZSt4moveIRiEONSt16remove_referenceIT_E4typeEOS2_
	movl	%eax, %ebx
	movl	-12(%ebp), %eax
	movl	%eax, %ecx
	call	__ZNSt4listIiSaIiEE3endEv
	movl	-12(%ebp), %edx
	movl	%ebx, 4(%esp)
	movl	%eax, (%esp)
	movl	%edx, %ecx
	call	__ZNSt4listIiSaIiEE9_M_insertIIiEEEvSt14_List_iteratorIiEDpOT_
	subl	$8, %esp
	movl	-4(%ebp), %ebx
	leave
LCFI35:
	.cfi_restore 5
	.cfi_restore 3
	.cfi_def_cfa 4, 4
	ret	$4
	.cfi_endproc
LFE1309:
	.section	.text$_ZNKSt4listIiSaIiEE4sizeEv,"x"
	.linkonce discard
	.align 2
	.globl	__ZNKSt4listIiSaIiEE4sizeEv
	.def	__ZNKSt4listIiSaIiEE4sizeEv;	.scl	2;	.type	32;	.endef
__ZNKSt4listIiSaIiEE4sizeEv:
LFB1311:
	.loc 3 876 0
	.cfi_startproc
	pushl	%ebp
LCFI36:
	.cfi_def_cfa_offset 8
	.cfi_offset 5, -8
	movl	%esp, %ebp
LCFI37:
	.cfi_def_cfa_register 5
	subl	$4, %esp
	movl	%ecx, -4(%ebp)
	.loc 3 879 0
	movl	-4(%ebp), %eax
	movl	8(%eax), %eax
	.loc 3 883 0
	leave
LCFI38:
	.cfi_restore 5
	.cfi_def_cfa 4, 4
	ret
	.cfi_endproc
LFE1311:
	.section	.text$_ZNSt4listIiSaIiEE5beginEv,"x"
	.linkonce discard
	.align 2
	.globl	__ZNSt4listIiSaIiEE5beginEv
	.def	__ZNSt4listIiSaIiEE5beginEv;	.scl	2;	.type	32;	.endef
__ZNSt4listIiSaIiEE5beginEv:
LFB1312:
	.loc 3 761 0
	.cfi_startproc
	pushl	%ebp
LCFI39:
	.cfi_def_cfa_offset 8
	.cfi_offset 5, -8
	movl	%esp, %ebp
LCFI40:
	.cfi_def_cfa_register 5
	subl	$56, %esp
	movl	%ecx, -28(%ebp)
	.loc 3 762 0
	movl	-28(%ebp), %eax
	movl	(%eax), %edx
	leal	-12(%ebp), %eax
	movl	%edx, (%esp)
	movl	%eax, %ecx
	call	__ZNSt14_List_iteratorIiEC1EPNSt8__detail15_List_node_baseE
	subl	$4, %esp
	movl	-12(%ebp), %eax
	leave
LCFI41:
	.cfi_restore 5
	.cfi_def_cfa 4, 4
	ret
	.cfi_endproc
LFE1312:
	.section	.text$_ZNSt4listIiSaIiEE3endEv,"x"
	.linkonce discard
	.align 2
	.globl	__ZNSt4listIiSaIiEE3endEv
	.def	__ZNSt4listIiSaIiEE3endEv;	.scl	2;	.type	32;	.endef
__ZNSt4listIiSaIiEE3endEv:
LFB1313:
	.loc 3 779 0
	.cfi_startproc
	pushl	%ebp
LCFI42:
	.cfi_def_cfa_offset 8
	.cfi_offset 5, -8
	movl	%esp, %ebp
LCFI43:
	.cfi_def_cfa_register 5
	subl	$56, %esp
	movl	%ecx, -28(%ebp)
	.loc 3 780 0
	movl	-28(%ebp), %edx
	leal	-12(%ebp), %eax
	movl	%edx, (%esp)
	movl	%eax, %ecx
	call	__ZNSt14_List_iteratorIiEC1EPNSt8__detail15_List_node_baseE
	subl	$4, %esp
	movl	-12(%ebp), %eax
	leave
LCFI44:
	.cfi_restore 5
	.cfi_def_cfa 4, 4
	ret
	.cfi_endproc
LFE1313:
	.section	.text$_ZNKSt14_List_iteratorIiEneERKS0_,"x"
	.linkonce discard
	.align 2
	.globl	__ZNKSt14_List_iteratorIiEneERKS0_
	.def	__ZNKSt14_List_iteratorIiEneERKS0_;	.scl	2;	.type	32;	.endef
__ZNKSt14_List_iteratorIiEneERKS0_:
LFB1314:
	.loc 3 188 0
	.cfi_startproc
	pushl	%ebp
LCFI45:
	.cfi_def_cfa_offset 8
	.cfi_offset 5, -8
	movl	%esp, %ebp
LCFI46:
	.cfi_def_cfa_register 5
	subl	$4, %esp
	movl	%ecx, -4(%ebp)
	.loc 3 189 0
	movl	-4(%ebp), %eax
	movl	(%eax), %edx
	movl	8(%ebp), %eax
	movl	(%eax), %eax
	cmpl	%eax, %edx
	setne	%al
	leave
LCFI47:
	.cfi_restore 5
	.cfi_def_cfa 4, 4
	ret	$4
	.cfi_endproc
LFE1314:
	.section	.text$_ZNSt14_List_iteratorIiEppEv,"x"
	.linkonce discard
	.align 2
	.globl	__ZNSt14_List_iteratorIiEppEv
	.def	__ZNSt14_List_iteratorIiEppEv;	.scl	2;	.type	32;	.endef
__ZNSt14_List_iteratorIiEppEv:
LFB1315:
	.loc 3 154 0
	.cfi_startproc
	pushl	%ebp
LCFI48:
	.cfi_def_cfa_offset 8
	.cfi_offset 5, -8
	movl	%esp, %ebp
LCFI49:
	.cfi_def_cfa_register 5
	subl	$4, %esp
	movl	%ecx, -4(%ebp)
	.loc 3 156 0
	movl	-4(%ebp), %eax
	movl	(%eax), %eax
	movl	(%eax), %edx
	movl	-4(%ebp), %eax
	movl	%edx, (%eax)
	.loc 3 157 0
	movl	-4(%ebp), %eax
	.loc 3 158 0
	leave
LCFI50:
	.cfi_restore 5
	.cfi_def_cfa 4, 4
	ret
	.cfi_endproc
LFE1315:
	.section	.text$_ZNKSt14_List_iteratorIiEdeEv,"x"
	.linkonce discard
	.align 2
	.globl	__ZNKSt14_List_iteratorIiEdeEv
	.def	__ZNKSt14_List_iteratorIiEdeEv;	.scl	2;	.type	32;	.endef
__ZNKSt14_List_iteratorIiEdeEv:
LFB1316:
	.loc 3 146 0
	.cfi_startproc
	pushl	%ebp
LCFI51:
	.cfi_def_cfa_offset 8
	.cfi_offset 5, -8
	movl	%esp, %ebp
LCFI52:
	.cfi_def_cfa_register 5
	subl	$4, %esp
	movl	%ecx, -4(%ebp)
	.loc 3 147 0
	movl	-4(%ebp), %eax
	movl	(%eax), %eax
	addl	$8, %eax
	leave
LCFI53:
	.cfi_restore 5
	.cfi_def_cfa 4, 4
	ret
	.cfi_endproc
LFE1316:
	.section	.text$_ZNSt10_List_baseIiSaIiEEC2Ev,"x"
	.linkonce discard
	.align 2
	.globl	__ZNSt10_List_baseIiSaIiEEC2Ev
	.def	__ZNSt10_List_baseIiSaIiEEC2Ev;	.scl	2;	.type	32;	.endef
__ZNSt10_List_baseIiSaIiEEC2Ev:
LFB1341:
	.loc 3 381 0
	.cfi_startproc
	pushl	%ebp
LCFI54:
	.cfi_def_cfa_offset 8
	.cfi_offset 5, -8
	movl	%esp, %ebp
LCFI55:
	.cfi_def_cfa_register 5
	subl	$24, %esp
	movl	%ecx, -12(%ebp)
LBB15:
	.loc 3 382 0
	movl	-12(%ebp), %eax
	movl	%eax, %ecx
	call	__ZNSt10_List_baseIiSaIiEE10_List_implC1Ev
	.loc 3 383 0
	movl	-12(%ebp), %eax
	movl	%eax, %ecx
	call	__ZNSt10_List_baseIiSaIiEE7_M_initEv
LBE15:
	leave
LCFI56:
	.cfi_restore 5
	.cfi_def_cfa 4, 4
	ret
	.cfi_endproc
LFE1341:
	.section	.text$_ZNSaISt10_List_nodeIiEED2Ev,"x"
	.linkonce discard
	.align 2
	.globl	__ZNSaISt10_List_nodeIiEED2Ev
	.def	__ZNSaISt10_List_nodeIiEED2Ev;	.scl	2;	.type	32;	.endef
__ZNSaISt10_List_nodeIiEED2Ev:
LFB1344:
	.file 6 "c:/program files (x86)/codeblocks/mingw/bin/../lib/gcc/mingw32/4.7.0/include/c++/bits/allocator.h"
	.loc 6 112 0
	.cfi_startproc
	pushl	%ebp
LCFI57:
	.cfi_def_cfa_offset 8
	.cfi_offset 5, -8
	movl	%esp, %ebp
LCFI58:
	.cfi_def_cfa_register 5
	subl	$24, %esp
	movl	%ecx, -12(%ebp)
LBB16:
	.loc 6 112 0
	movl	-12(%ebp), %eax
	movl	%eax, %ecx
	call	__ZN9__gnu_cxx13new_allocatorISt10_List_nodeIiEED2Ev
LBE16:
	leave
LCFI59:
	.cfi_restore 5
	.cfi_def_cfa 4, 4
	ret
	.cfi_endproc
LFE1344:
	.section	.text$_ZNSt10_List_baseIiSaIiEE8_M_clearEv,"x"
	.linkonce discard
	.align 2
	.globl	__ZNSt10_List_baseIiSaIiEE8_M_clearEv
	.def	__ZNSt10_List_baseIiSaIiEE8_M_clearEv;	.scl	2;	.type	32;	.endef
__ZNSt10_List_baseIiSaIiEE8_M_clearEv:
LFB1346:
	.file 7 "c:/program files (x86)/codeblocks/mingw/bin/../lib/gcc/mingw32/4.7.0/include/c++/bits/list.tcc"
	.loc 7 66 0
	.cfi_startproc
	pushl	%ebp
LCFI60:
	.cfi_def_cfa_offset 8
	.cfi_offset 5, -8
	movl	%esp, %ebp
LCFI61:
	.cfi_def_cfa_register 5
	subl	$56, %esp
	movl	%ecx, -28(%ebp)
LBB17:
	.loc 7 70 0
	movl	-28(%ebp), %eax
	movl	(%eax), %eax
	movl	%eax, -12(%ebp)
	.loc 7 71 0
	jmp	L126
L127:
LBB18:
	.loc 7 73 0
	movl	-12(%ebp), %eax
	movl	%eax, -16(%ebp)
	.loc 7 74 0
	movl	-12(%ebp), %eax
	movl	(%eax), %eax
	movl	%eax, -12(%ebp)
	.loc 7 76 0
	movl	-28(%ebp), %eax
	movl	%eax, %ecx
	call	__ZNSt10_List_baseIiSaIiEE21_M_get_Node_allocatorEv
	movl	-16(%ebp), %edx
	movl	%edx, (%esp)
	movl	%eax, %ecx
	call	__ZN9__gnu_cxx13new_allocatorISt10_List_nodeIiEE7destroyIS2_EEvPT_
	subl	$4, %esp
	.loc 7 80 0
	movl	-28(%ebp), %eax
	movl	-16(%ebp), %edx
	movl	%edx, (%esp)
	movl	%eax, %ecx
	call	__ZNSt10_List_baseIiSaIiEE11_M_put_nodeEPSt10_List_nodeIiE
	subl	$4, %esp
L126:
LBE18:
	.loc 7 71 0 discriminator 1
	movl	-28(%ebp), %eax
	cmpl	-12(%ebp), %eax
	setne	%al
	testb	%al, %al
	jne	L127
LBE17:
	.loc 7 82 0
	leave
LCFI62:
	.cfi_restore 5
	.cfi_def_cfa 4, 4
	ret
	.cfi_endproc
LFE1346:
	.section	.text$_ZSt7forwardIiEOT_RNSt16remove_referenceIS0_E4typeE,"x"
	.linkonce discard
	.globl	__ZSt7forwardIiEOT_RNSt16remove_referenceIS0_E4typeE
	.def	__ZSt7forwardIiEOT_RNSt16remove_referenceIS0_E4typeE;	.scl	2;	.type	32;	.endef
__ZSt7forwardIiEOT_RNSt16remove_referenceIS0_E4typeE:
LFB1348:
	.loc 5 77 0
	.cfi_startproc
	pushl	%ebp
LCFI63:
	.cfi_def_cfa_offset 8
	.cfi_offset 5, -8
	movl	%esp, %ebp
LCFI64:
	.cfi_def_cfa_register 5
	.loc 5 78 0
	movl	8(%ebp), %eax
	popl	%ebp
LCFI65:
	.cfi_restore 5
	.cfi_def_cfa 4, 4
	ret
	.cfi_endproc
LFE1348:
	.section	.text$_ZNSt4listIiSaIiEE9_M_insertIIiEEEvSt14_List_iteratorIiEDpOT_,"x"
	.linkonce discard
	.align 2
	.globl	__ZNSt4listIiSaIiEE9_M_insertIIiEEEvSt14_List_iteratorIiEDpOT_
	.def	__ZNSt4listIiSaIiEE9_M_insertIIiEEEvSt14_List_iteratorIiEDpOT_;	.scl	2;	.type	32;	.endef
__ZNSt4listIiSaIiEE9_M_insertIIiEEEvSt14_List_iteratorIiEDpOT_:
LFB1347:
	.loc 3 1582 0
	.cfi_startproc
	pushl	%ebp
LCFI66:
	.cfi_def_cfa_offset 8
	.cfi_offset 5, -8
	movl	%esp, %ebp
LCFI67:
	.cfi_def_cfa_register 5
	subl	$56, %esp
	movl	%ecx, -28(%ebp)
LBB19:
	.loc 3 1584 0
	movl	12(%ebp), %eax
	movl	%eax, (%esp)
	call	__ZSt7forwardIiEOT_RNSt16remove_referenceIS0_E4typeE
	movl	-28(%ebp), %edx
	movl	%eax, (%esp)
	movl	%edx, %ecx
	call	__ZNSt4listIiSaIiEE14_M_create_nodeIIiEEEPSt10_List_nodeIiEDpOT_
	subl	$4, %esp
	movl	%eax, -12(%ebp)
	.loc 3 1585 0
	movl	8(%ebp), %edx
	movl	-12(%ebp), %eax
	movl	%edx, (%esp)
	movl	%eax, %ecx
	call	__ZNSt8__detail15_List_node_base7_M_hookEPS0_
	subl	$4, %esp
LBE19:
	.loc 3 1586 0
	leave
LCFI68:
	.cfi_restore 5
	.cfi_def_cfa 4, 4
	ret	$8
	.cfi_endproc
LFE1347:
	.weak	__ZNSt4listIiSaIiEE9_M_insertIJiEEEvSt14_List_iteratorIiEDpOT_
	.def	__ZNSt4listIiSaIiEE9_M_insertIJiEEEvSt14_List_iteratorIiEDpOT_;	.scl	2;	.type	32;	.endef
	.set	__ZNSt4listIiSaIiEE9_M_insertIJiEEEvSt14_List_iteratorIiEDpOT_,__ZNSt4listIiSaIiEE9_M_insertIIiEEEvSt14_List_iteratorIiEDpOT_
	.section	.text$_ZNSt14_List_iteratorIiEC1EPNSt8__detail15_List_node_baseE,"x"
	.linkonce discard
	.align 2
	.globl	__ZNSt14_List_iteratorIiEC1EPNSt8__detail15_List_node_baseE
	.def	__ZNSt14_List_iteratorIiEC1EPNSt8__detail15_List_node_baseE;	.scl	2;	.type	32;	.endef
__ZNSt14_List_iteratorIiEC1EPNSt8__detail15_List_node_baseE:
LFB1351:
	.loc 3 141 0
	.cfi_startproc
	pushl	%ebp
LCFI69:
	.cfi_def_cfa_offset 8
	.cfi_offset 5, -8
	movl	%esp, %ebp
LCFI70:
	.cfi_def_cfa_register 5
	subl	$4, %esp
	movl	%ecx, -4(%ebp)
LBB20:
	.loc 3 142 0
	movl	-4(%ebp), %eax
	movl	8(%ebp), %edx
	movl	%edx, (%eax)
LBE20:
	leave
LCFI71:
	.cfi_restore 5
	.cfi_def_cfa 4, 4
	ret	$4
	.cfi_endproc
LFE1351:
	.section	.text$_ZNSt10_List_baseIiSaIiEE10_List_implC1Ev,"x"
	.linkonce discard
	.align 2
	.globl	__ZNSt10_List_baseIiSaIiEE10_List_implC1Ev
	.def	__ZNSt10_List_baseIiSaIiEE10_List_implC1Ev;	.scl	2;	.type	32;	.endef
__ZNSt10_List_baseIiSaIiEE10_List_implC1Ev:
LFB1364:
	.loc 3 320 0
	.cfi_startproc
	pushl	%ebp
LCFI72:
	.cfi_def_cfa_offset 8
	.cfi_offset 5, -8
	movl	%esp, %ebp
LCFI73:
	.cfi_def_cfa_register 5
	subl	$24, %esp
	movl	%ecx, -12(%ebp)
LBB21:
	.loc 3 323 0
	movl	-12(%ebp), %eax
	movl	%eax, %ecx
	call	__ZNSaISt10_List_nodeIiEEC2Ev
	movl	-12(%ebp), %eax
	movl	$0, (%eax)
	movl	-12(%ebp), %eax
	movl	$0, 4(%eax)
	movl	-12(%ebp), %eax
	movl	$0, 8(%eax)
LBE21:
	.loc 3 325 0
	leave
LCFI74:
	.cfi_restore 5
	.cfi_def_cfa 4, 4
	ret
	.cfi_endproc
LFE1364:
	.section	.text$_ZNSt10_List_baseIiSaIiEE7_M_initEv,"x"
	.linkonce discard
	.align 2
	.globl	__ZNSt10_List_baseIiSaIiEE7_M_initEv
	.def	__ZNSt10_List_baseIiSaIiEE7_M_initEv;	.scl	2;	.type	32;	.endef
__ZNSt10_List_baseIiSaIiEE7_M_initEv:
LFB1365:
	.loc 3 407 0
	.cfi_startproc
	pushl	%ebp
LCFI75:
	.cfi_def_cfa_offset 8
	.cfi_offset 5, -8
	movl	%esp, %ebp
LCFI76:
	.cfi_def_cfa_register 5
	subl	$4, %esp
	movl	%ecx, -4(%ebp)
	.loc 3 409 0
	movl	-4(%ebp), %edx
	movl	-4(%ebp), %eax
	movl	%edx, (%eax)
	.loc 3 410 0
	movl	-4(%ebp), %edx
	movl	-4(%ebp), %eax
	movl	%edx, 4(%eax)
	.loc 3 411 0
	leave
LCFI77:
	.cfi_restore 5
	.cfi_def_cfa 4, 4
	ret
	.cfi_endproc
LFE1365:
	.section	.text$_ZN9__gnu_cxx13new_allocatorISt10_List_nodeIiEED2Ev,"x"
	.linkonce discard
	.align 2
	.globl	__ZN9__gnu_cxx13new_allocatorISt10_List_nodeIiEED2Ev
	.def	__ZN9__gnu_cxx13new_allocatorISt10_List_nodeIiEED2Ev;	.scl	2;	.type	32;	.endef
__ZN9__gnu_cxx13new_allocatorISt10_List_nodeIiEED2Ev:
LFB1367:
	.file 8 "c:/program files (x86)/codeblocks/mingw/bin/../lib/gcc/mingw32/4.7.0/include/c++/ext/new_allocator.h"
	.loc 8 76 0
	.cfi_startproc
	pushl	%ebp
LCFI78:
	.cfi_def_cfa_offset 8
	.cfi_offset 5, -8
	movl	%esp, %ebp
LCFI79:
	.cfi_def_cfa_register 5
	subl	$4, %esp
	movl	%ecx, -4(%ebp)
	.loc 8 76 0
	leave
LCFI80:
	.cfi_restore 5
	.cfi_def_cfa 4, 4
	ret
	.cfi_endproc
LFE1367:
	.section	.text$_ZNSt10_List_baseIiSaIiEE21_M_get_Node_allocatorEv,"x"
	.linkonce discard
	.align 2
	.globl	__ZNSt10_List_baseIiSaIiEE21_M_get_Node_allocatorEv
	.def	__ZNSt10_List_baseIiSaIiEE21_M_get_Node_allocatorEv;	.scl	2;	.type	32;	.endef
__ZNSt10_List_baseIiSaIiEE21_M_get_Node_allocatorEv:
LFB1369:
	.loc 3 366 0
	.cfi_startproc
	pushl	%ebp
LCFI81:
	.cfi_def_cfa_offset 8
	.cfi_offset 5, -8
	movl	%esp, %ebp
LCFI82:
	.cfi_def_cfa_register 5
	subl	$4, %esp
	movl	%ecx, -4(%ebp)
	.loc 3 367 0
	movl	-4(%ebp), %eax
	leave
LCFI83:
	.cfi_restore 5
	.cfi_def_cfa 4, 4
	ret
	.cfi_endproc
LFE1369:
	.section	.text$_ZN9__gnu_cxx13new_allocatorISt10_List_nodeIiEE7destroyIS2_EEvPT_,"x"
	.linkonce discard
	.align 2
	.globl	__ZN9__gnu_cxx13new_allocatorISt10_List_nodeIiEE7destroyIS2_EEvPT_
	.def	__ZN9__gnu_cxx13new_allocatorISt10_List_nodeIiEE7destroyIS2_EEvPT_;	.scl	2;	.type	32;	.endef
__ZN9__gnu_cxx13new_allocatorISt10_List_nodeIiEE7destroyIS2_EEvPT_:
LFB1370:
	.loc 8 114 0
	.cfi_startproc
	pushl	%ebp
LCFI84:
	.cfi_def_cfa_offset 8
	.cfi_offset 5, -8
	movl	%esp, %ebp
LCFI85:
	.cfi_def_cfa_register 5
	subl	$4, %esp
	movl	%ecx, -4(%ebp)
	.loc 8 114 0
	leave
LCFI86:
	.cfi_restore 5
	.cfi_def_cfa 4, 4
	ret	$4
	.cfi_endproc
LFE1370:
	.section	.text$_ZNSt10_List_baseIiSaIiEE11_M_put_nodeEPSt10_List_nodeIiE,"x"
	.linkonce discard
	.align 2
	.globl	__ZNSt10_List_baseIiSaIiEE11_M_put_nodeEPSt10_List_nodeIiE
	.def	__ZNSt10_List_baseIiSaIiEE11_M_put_nodeEPSt10_List_nodeIiE;	.scl	2;	.type	32;	.endef
__ZNSt10_List_baseIiSaIiEE11_M_put_nodeEPSt10_List_nodeIiE:
LFB1371:
	.loc 3 354 0
	.cfi_startproc
	pushl	%ebp
LCFI87:
	.cfi_def_cfa_offset 8
	.cfi_offset 5, -8
	movl	%esp, %ebp
LCFI88:
	.cfi_def_cfa_register 5
	subl	$40, %esp
	movl	%ecx, -12(%ebp)
	.loc 3 356 0
	movl	-12(%ebp), %eax
	movl	$1, 4(%esp)
	movl	8(%ebp), %edx
	movl	%edx, (%esp)
	movl	%eax, %ecx
	call	__ZN9__gnu_cxx13new_allocatorISt10_List_nodeIiEE10deallocateEPS2_j
	subl	$8, %esp
	.loc 3 358 0
	movl	-12(%ebp), %eax
	movl	8(%eax), %eax
	leal	-1(%eax), %edx
	movl	-12(%ebp), %eax
	movl	%edx, 8(%eax)
	.loc 3 360 0
	leave
LCFI89:
	.cfi_restore 5
	.cfi_def_cfa 4, 4
	ret	$4
	.cfi_endproc
LFE1371:
	.section	.text$_ZNSt4listIiSaIiEE14_M_create_nodeIIiEEEPSt10_List_nodeIiEDpOT_,"x"
	.linkonce discard
	.align 2
	.globl	__ZNSt4listIiSaIiEE14_M_create_nodeIIiEEEPSt10_List_nodeIiEDpOT_
	.def	__ZNSt4listIiSaIiEE14_M_create_nodeIIiEEEPSt10_List_nodeIiEDpOT_;	.scl	2;	.type	32;	.endef
__ZNSt4listIiSaIiEE14_M_create_nodeIIiEEEPSt10_List_nodeIiEDpOT_:
LFB1372:
	.loc 3 520 0
	.cfi_startproc
	.cfi_personality 0,___gxx_personality_v0
	.cfi_lsda 0,LLSDA1372
	pushl	%ebp
LCFI90:
	.cfi_def_cfa_offset 8
	.cfi_offset 5, -8
	movl	%esp, %ebp
LCFI91:
	.cfi_def_cfa_register 5
	pushl	%ebx
	subl	$52, %esp
	.cfi_offset 3, -12
	movl	%ecx, -28(%ebp)
LBB22:
	.loc 3 522 0
	movl	-28(%ebp), %eax
	movl	%eax, %ecx
LEHB56:
	call	__ZNSt10_List_baseIiSaIiEE11_M_get_nodeEv
LEHE56:
	movl	%eax, -12(%ebp)
	.loc 3 525 0
	movl	8(%ebp), %eax
	movl	%eax, (%esp)
	call	__ZSt7forwardIiEOT_RNSt16remove_referenceIS0_E4typeE
	movl	%eax, %ebx
	movl	-28(%ebp), %eax
	movl	%eax, %ecx
	call	__ZNSt10_List_baseIiSaIiEE21_M_get_Node_allocatorEv
	movl	%ebx, 4(%esp)
	movl	-12(%ebp), %edx
	movl	%edx, (%esp)
	movl	%eax, %ecx
LEHB57:
	call	__ZN9__gnu_cxx13new_allocatorISt10_List_nodeIiEE9constructIS2_IiEEEvPT_DpOT0_
LEHE57:
	subl	$8, %esp
	.loc 3 533 0
	movl	-12(%ebp), %eax
	jmp	L146
L145:
	movl	%eax, %ebx
	.loc 3 528 0
	call	___cxa_end_catch
	movl	%ebx, %eax
	movl	%eax, (%esp)
LEHB58:
	call	__Unwind_Resume
LEHE58:
L144:
	movl	%eax, (%esp)
	call	___cxa_begin_catch
	.loc 3 530 0
	movl	-28(%ebp), %eax
	movl	-12(%ebp), %edx
	movl	%edx, (%esp)
	movl	%eax, %ecx
	call	__ZNSt10_List_baseIiSaIiEE11_M_put_nodeEPSt10_List_nodeIiE
	subl	$4, %esp
LEHB59:
	.loc 3 531 0
	call	___cxa_rethrow
LEHE59:
L146:
LBE22:
	.loc 3 534 0
	movl	-4(%ebp), %ebx
	leave
LCFI92:
	.cfi_restore 5
	.cfi_restore 3
	.cfi_def_cfa 4, 4
	ret	$4
	.cfi_endproc
LFE1372:
	.section	.gcc_except_table,"w"
	.align 4
LLSDA1372:
	.byte	0xff
	.byte	0
	.uleb128 LLSDATT1372-LLSDATTD1372
LLSDATTD1372:
	.byte	0x1
	.uleb128 LLSDACSE1372-LLSDACSB1372
LLSDACSB1372:
	.uleb128 LEHB56-LFB1372
	.uleb128 LEHE56-LEHB56
	.uleb128 0
	.uleb128 0
	.uleb128 LEHB57-LFB1372
	.uleb128 LEHE57-LEHB57
	.uleb128 L144-LFB1372
	.uleb128 0x1
	.uleb128 LEHB58-LFB1372
	.uleb128 LEHE58-LEHB58
	.uleb128 0
	.uleb128 0
	.uleb128 LEHB59-LFB1372
	.uleb128 LEHE59-LEHB59
	.uleb128 L145-LFB1372
	.uleb128 0
LLSDACSE1372:
	.byte	0x1
	.byte	0
	.align 4
	.long	0
LLSDATT1372:
	.section	.text$_ZNSt4listIiSaIiEE14_M_create_nodeIIiEEEPSt10_List_nodeIiEDpOT_,"x"
	.linkonce discard
	.weak	__ZNSt4listIiSaIiEE14_M_create_nodeIJiEEEPSt10_List_nodeIiEDpOT_
	.def	__ZNSt4listIiSaIiEE14_M_create_nodeIJiEEEPSt10_List_nodeIiEDpOT_;	.scl	2;	.type	32;	.endef
	.set	__ZNSt4listIiSaIiEE14_M_create_nodeIJiEEEPSt10_List_nodeIiEDpOT_,__ZNSt4listIiSaIiEE14_M_create_nodeIIiEEEPSt10_List_nodeIiEDpOT_
	.section	.text$_ZNSaISt10_List_nodeIiEEC2Ev,"x"
	.linkonce discard
	.align 2
	.globl	__ZNSaISt10_List_nodeIiEEC2Ev
	.def	__ZNSaISt10_List_nodeIiEEC2Ev;	.scl	2;	.type	32;	.endef
__ZNSaISt10_List_nodeIiEEC2Ev:
LFB1377:
	.loc 6 104 0
	.cfi_startproc
	pushl	%ebp
LCFI93:
	.cfi_def_cfa_offset 8
	.cfi_offset 5, -8
	movl	%esp, %ebp
LCFI94:
	.cfi_def_cfa_register 5
	subl	$24, %esp
	movl	%ecx, -12(%ebp)
LBB23:
	.loc 6 104 0
	movl	-12(%ebp), %eax
	movl	%eax, %ecx
	call	__ZN9__gnu_cxx13new_allocatorISt10_List_nodeIiEEC2Ev
LBE23:
	leave
LCFI95:
	.cfi_restore 5
	.cfi_def_cfa 4, 4
	ret
	.cfi_endproc
LFE1377:
	.section	.text$_ZN9__gnu_cxx13new_allocatorISt10_List_nodeIiEE10deallocateEPS2_j,"x"
	.linkonce discard
	.align 2
	.globl	__ZN9__gnu_cxx13new_allocatorISt10_List_nodeIiEE10deallocateEPS2_j
	.def	__ZN9__gnu_cxx13new_allocatorISt10_List_nodeIiEE10deallocateEPS2_j;	.scl	2;	.type	32;	.endef
__ZN9__gnu_cxx13new_allocatorISt10_List_nodeIiEE10deallocateEPS2_j:
LFB1379:
	.loc 8 99 0
	.cfi_startproc
	pushl	%ebp
LCFI96:
	.cfi_def_cfa_offset 8
	.cfi_offset 5, -8
	movl	%esp, %ebp
LCFI97:
	.cfi_def_cfa_register 5
	subl	$40, %esp
	movl	%ecx, -12(%ebp)
	.loc 8 100 0
	movl	8(%ebp), %eax
	movl	%eax, (%esp)
	call	__ZdlPv
	leave
LCFI98:
	.cfi_restore 5
	.cfi_def_cfa 4, 4
	ret	$8
	.cfi_endproc
LFE1379:
	.section	.text$_ZNSt10_List_baseIiSaIiEE11_M_get_nodeEv,"x"
	.linkonce discard
	.align 2
	.globl	__ZNSt10_List_baseIiSaIiEE11_M_get_nodeEv
	.def	__ZNSt10_List_baseIiSaIiEE11_M_get_nodeEv;	.scl	2;	.type	32;	.endef
__ZNSt10_List_baseIiSaIiEE11_M_get_nodeEv:
LFB1380:
	.loc 3 344 0
	.cfi_startproc
	pushl	%ebp
LCFI99:
	.cfi_def_cfa_offset 8
	.cfi_offset 5, -8
	movl	%esp, %ebp
LCFI100:
	.cfi_def_cfa_register 5
	subl	$56, %esp
	movl	%ecx, -28(%ebp)
LBB24:
	.loc 3 346 0
	movl	-28(%ebp), %eax
	movl	$0, 4(%esp)
	movl	$1, (%esp)
	movl	%eax, %ecx
	call	__ZN9__gnu_cxx13new_allocatorISt10_List_nodeIiEE8allocateEjPKv
	subl	$8, %esp
	movl	%eax, -12(%ebp)
	.loc 3 348 0
	movl	-28(%ebp), %eax
	movl	8(%eax), %eax
	leal	1(%eax), %edx
	movl	-28(%ebp), %eax
	movl	%edx, 8(%eax)
	.loc 3 350 0
	movl	-12(%ebp), %eax
LBE24:
	.loc 3 351 0
	leave
LCFI101:
	.cfi_restore 5
	.cfi_def_cfa 4, 4
	ret
	.cfi_endproc
LFE1380:
	.section	.text$_ZN9__gnu_cxx13new_allocatorISt10_List_nodeIiEE9constructIS2_IiEEEvPT_DpOT0_,"x"
	.linkonce discard
	.align 2
	.globl	__ZN9__gnu_cxx13new_allocatorISt10_List_nodeIiEE9constructIS2_IiEEEvPT_DpOT0_
	.def	__ZN9__gnu_cxx13new_allocatorISt10_List_nodeIiEE9constructIS2_IiEEEvPT_DpOT0_;	.scl	2;	.type	32;	.endef
__ZN9__gnu_cxx13new_allocatorISt10_List_nodeIiEE9constructIS2_IiEEEvPT_DpOT0_:
LFB1381:
	.loc 8 109 0
	.cfi_startproc
	pushl	%ebp
LCFI102:
	.cfi_def_cfa_offset 8
	.cfi_offset 5, -8
	movl	%esp, %ebp
LCFI103:
	.cfi_def_cfa_register 5
	pushl	%ebx
	subl	$36, %esp
	.cfi_offset 3, -12
	movl	%ecx, -12(%ebp)
	.loc 8 110 0
	movl	12(%ebp), %eax
	movl	%eax, (%esp)
	call	__ZSt7forwardIiEOT_RNSt16remove_referenceIS0_E4typeE
	movl	%eax, %ebx
	movl	8(%ebp), %eax
	movl	%eax, 4(%esp)
	movl	$12, (%esp)
	call	__ZnwjPv
	testl	%eax, %eax
	je	L151
	.loc 8 110 0 is_stmt 0 discriminator 1
	movl	%ebx, (%esp)
	movl	%eax, %ecx
	call	__ZNSt10_List_nodeIiEC1IIiEEEDpOT_
	subl	$4, %esp
L151:
	.loc 8 110 0
	movl	-4(%ebp), %ebx
	leave
LCFI104:
	.cfi_restore 5
	.cfi_restore 3
	.cfi_def_cfa 4, 4
	ret	$8
	.cfi_endproc
LFE1381:
	.weak	__ZN9__gnu_cxx13new_allocatorISt10_List_nodeIiEE9constructIS2_JiEEEvPT_DpOT0_
	.def	__ZN9__gnu_cxx13new_allocatorISt10_List_nodeIiEE9constructIS2_JiEEEvPT_DpOT0_;	.scl	2;	.type	32;	.endef
	.set	__ZN9__gnu_cxx13new_allocatorISt10_List_nodeIiEE9constructIS2_JiEEEvPT_DpOT0_,__ZN9__gnu_cxx13new_allocatorISt10_List_nodeIiEE9constructIS2_IiEEEvPT_DpOT0_
	.section	.text$_ZN9__gnu_cxx13new_allocatorISt10_List_nodeIiEEC2Ev,"x"
	.linkonce discard
	.align 2
	.globl	__ZN9__gnu_cxx13new_allocatorISt10_List_nodeIiEEC2Ev
	.def	__ZN9__gnu_cxx13new_allocatorISt10_List_nodeIiEEC2Ev;	.scl	2;	.type	32;	.endef
__ZN9__gnu_cxx13new_allocatorISt10_List_nodeIiEEC2Ev:
LFB1383:
	.loc 8 69 0 is_stmt 1
	.cfi_startproc
	pushl	%ebp
LCFI105:
	.cfi_def_cfa_offset 8
	.cfi_offset 5, -8
	movl	%esp, %ebp
LCFI106:
	.cfi_def_cfa_register 5
	subl	$4, %esp
	movl	%ecx, -4(%ebp)
	.loc 8 69 0
	leave
LCFI107:
	.cfi_restore 5
	.cfi_def_cfa 4, 4
	ret
	.cfi_endproc
LFE1383:
	.section	.text$_ZN9__gnu_cxx13new_allocatorISt10_List_nodeIiEE8allocateEjPKv,"x"
	.linkonce discard
	.align 2
	.globl	__ZN9__gnu_cxx13new_allocatorISt10_List_nodeIiEE8allocateEjPKv
	.def	__ZN9__gnu_cxx13new_allocatorISt10_List_nodeIiEE8allocateEjPKv;	.scl	2;	.type	32;	.endef
__ZN9__gnu_cxx13new_allocatorISt10_List_nodeIiEE8allocateEjPKv:
LFB1385:
	.loc 8 89 0
	.cfi_startproc
	pushl	%ebp
LCFI108:
	.cfi_def_cfa_offset 8
	.cfi_offset 5, -8
	movl	%esp, %ebp
LCFI109:
	.cfi_def_cfa_register 5
	subl	$40, %esp
	movl	%ecx, -12(%ebp)
	.loc 8 91 0
	movl	-12(%ebp), %eax
	movl	%eax, %ecx
	call	__ZNK9__gnu_cxx13new_allocatorISt10_List_nodeIiEE8max_sizeEv
	cmpl	8(%ebp), %eax
	setb	%al
	testb	%al, %al
	je	L156
	.loc 8 92 0
	call	__ZSt17__throw_bad_allocv
L156:
	.loc 8 94 0
	movl	8(%ebp), %edx
	movl	%edx, %eax
	sall	%eax
	addl	%edx, %eax
	sall	$2, %eax
	movl	%eax, (%esp)
	call	__Znwj
	.loc 8 95 0
	leave
LCFI110:
	.cfi_restore 5
	.cfi_def_cfa 4, 4
	ret	$8
	.cfi_endproc
LFE1385:
	.section	.text$_ZNSt10_List_nodeIiEC1IIiEEEDpOT_,"x"
	.linkonce discard
	.align 2
	.globl	__ZNSt10_List_nodeIiEC1IIiEEEDpOT_
	.def	__ZNSt10_List_nodeIiEC1IIiEEEDpOT_;	.scl	2;	.type	32;	.endef
__ZNSt10_List_nodeIiEC1IIiEEEDpOT_:
LFB1388:
	.loc 3 114 0
	.cfi_startproc
	pushl	%ebp
LCFI111:
	.cfi_def_cfa_offset 8
	.cfi_offset 5, -8
	movl	%esp, %ebp
LCFI112:
	.cfi_def_cfa_register 5
	subl	$8, %esp
	movl	%ecx, -4(%ebp)
LBB25:
	.loc 3 115 0
	movl	-4(%ebp), %eax
	movl	$0, (%eax)
	movl	-4(%ebp), %eax
	movl	$0, 4(%eax)
	movl	8(%ebp), %eax
	movl	%eax, (%esp)
	call	__ZSt7forwardIiEOT_RNSt16remove_referenceIS0_E4typeE
	movl	(%eax), %edx
	movl	-4(%ebp), %eax
	movl	%edx, 8(%eax)
LBE25:
	.loc 3 116 0
	leave
LCFI113:
	.cfi_restore 5
	.cfi_def_cfa 4, 4
	ret	$4
	.cfi_endproc
LFE1388:
	.weak	__ZNSt10_List_nodeIiEC1IJiEEEDpOT_
	.def	__ZNSt10_List_nodeIiEC1IJiEEEDpOT_;	.scl	2;	.type	32;	.endef
	.set	__ZNSt10_List_nodeIiEC1IJiEEEDpOT_,__ZNSt10_List_nodeIiEC1IIiEEEDpOT_
	.section	.text$_ZNK9__gnu_cxx13new_allocatorISt10_List_nodeIiEE8max_sizeEv,"x"
	.linkonce discard
	.align 2
	.globl	__ZNK9__gnu_cxx13new_allocatorISt10_List_nodeIiEE8max_sizeEv
	.def	__ZNK9__gnu_cxx13new_allocatorISt10_List_nodeIiEE8max_sizeEv;	.scl	2;	.type	32;	.endef
__ZNK9__gnu_cxx13new_allocatorISt10_List_nodeIiEE8max_sizeEv:
LFB1389:
	.loc 8 103 0
	.cfi_startproc
	pushl	%ebp
LCFI114:
	.cfi_def_cfa_offset 8
	.cfi_offset 5, -8
	movl	%esp, %ebp
LCFI115:
	.cfi_def_cfa_register 5
	subl	$4, %esp
	movl	%ecx, -4(%ebp)
	.loc 8 104 0
	movl	$357913941, %eax
	leave
LCFI116:
	.cfi_restore 5
	.cfi_def_cfa 4, 4
	ret
	.cfi_endproc
LFE1389:
	.globl	__ZTV7BotData
	.section	.rdata$_ZTV7BotData,"dr"
	.linkonce same_size
	.align 8
__ZTV7BotData:
	.long	0
	.long	__ZTI7BotData
	.long	__ZN7BotDataD1Ev
	.long	__ZN7BotDataD0Ev
	.globl	__ZTS7BotData
	.section	.rdata$_ZTS7BotData,"dr"
	.linkonce same_size
__ZTS7BotData:
	.ascii "7BotData\0"
	.globl	__ZTI7BotData
	.section	.rdata$_ZTI7BotData,"dr"
	.linkonce same_size
	.align 4
__ZTI7BotData:
	.long	__ZTVN10__cxxabiv117__class_type_infoE+8
	.long	__ZTS7BotData
	.section .rdata,"dr"
	.align 4
__ZN4pugiL13parse_minimalE:
	.space 4
	.align 4
__ZN4pugiL8parse_piE:
	.long	1
	.align 4
__ZN4pugiL14parse_commentsE:
	.long	2
	.align 4
__ZN4pugiL11parse_cdataE:
	.long	4
	.align 4
__ZN4pugiL15parse_ws_pcdataE:
	.long	8
	.align 4
__ZN4pugiL13parse_escapesE:
	.long	16
	.align 4
__ZN4pugiL9parse_eolE:
	.long	32
	.align 4
__ZN4pugiL21parse_wconv_attributeE:
	.long	64
	.align 4
__ZN4pugiL21parse_wnorm_attributeE:
	.long	128
	.align 4
__ZN4pugiL17parse_declarationE:
	.long	256
	.align 4
__ZN4pugiL13parse_doctypeE:
	.long	512
	.align 4
__ZN4pugiL22parse_ws_pcdata_singleE:
	.long	1024
	.align 4
__ZN4pugiL13parse_defaultE:
	.long	116
	.align 4
__ZN4pugiL10parse_fullE:
	.long	887
	.align 4
__ZN4pugiL13format_indentE:
	.long	1
	.align 4
__ZN4pugiL16format_write_bomE:
	.long	2
	.align 4
__ZN4pugiL10format_rawE:
	.long	4
	.align 4
__ZN4pugiL21format_no_declarationE:
	.long	8
	.align 4
__ZN4pugiL17format_no_escapesE:
	.long	16
	.align 4
__ZN4pugiL21format_save_file_textE:
	.long	32
	.align 4
__ZN4pugiL14format_defaultE:
	.long	1
	.text
Letext0:
	.file 9 "c:/program files (x86)/codeblocks/mingw/bin/../lib/gcc/mingw32/4.7.0/include/c++/cwchar"
	.file 10 "c:/program files (x86)/codeblocks/mingw/bin/../lib/gcc/mingw32/4.7.0/include/c++/cstdint"
	.file 11 "c:/program files (x86)/codeblocks/mingw/bin/../lib/gcc/mingw32/4.7.0/include/c++/clocale"
	.file 12 "c:/program files (x86)/codeblocks/mingw/bin/../lib/gcc/mingw32/4.7.0/include/c++/mingw32/bits/c++config.h"
	.file 13 "c:/program files (x86)/codeblocks/mingw/bin/../lib/gcc/mingw32/4.7.0/include/c++/bits/stringfwd.h"
	.file 14 "c:/program files (x86)/codeblocks/mingw/bin/../lib/gcc/mingw32/4.7.0/include/c++/cwctype"
	.file 15 "<built-in>"
	.file 16 "c:/program files (x86)/codeblocks/mingw/bin/../lib/gcc/mingw32/4.7.0/include/c++/bits/basic_string.h"
	.file 17 "c:/program files (x86)/codeblocks/mingw/bin/../lib/gcc/mingw32/4.7.0/include/c++/bits/cpp_type_traits.h"
	.file 18 "c:/program files (x86)/codeblocks/mingw/bin/../lib/gcc/mingw32/4.7.0/include/c++/debug/debug.h"
	.file 19 "c:/program files (x86)/codeblocks/mingw/bin/../lib/gcc/mingw32/4.7.0/include/stddef.h"
	.file 20 "c:/program files (x86)/codeblocks/mingw/bin/../lib/gcc/mingw32/4.7.0/../../../../include/wctype.h"
	.file 21 "c:/program files (x86)/codeblocks/mingw/bin/../lib/gcc/mingw32/4.7.0/../../../../include/wchar.h"
	.file 22 "c:/program files (x86)/codeblocks/mingw/bin/../lib/gcc/mingw32/4.7.0/include/c++/bits/char_traits.h"
	.file 23 "c:/program files (x86)/codeblocks/mingw/bin/../lib/gcc/mingw32/4.7.0/../../../../include/stdint.h"
	.file 24 "c:/program files (x86)/codeblocks/mingw/bin/../lib/gcc/mingw32/4.7.0/../../../../include/locale.h"
	.file 25 "c:/program files (x86)/codeblocks/mingw/bin/../lib/gcc/mingw32/4.7.0/include/c++/mingw32/bits/atomic_word.h"
	.file 26 "c:/program files (x86)/codeblocks/mingw/bin/../lib/gcc/mingw32/4.7.0/include/c++/ext/numeric_traits.h"
	.file 27 "c:/program files (x86)/codeblocks/mingw/bin/../lib/gcc/mingw32/4.7.0/include/c++/bits/basic_string.tcc"
	.file 28 "c:/program files (x86)/codeblocks/mingw/bin/../lib/gcc/mingw32/4.7.0/include/c++/initializer_list"
	.file 29 "c:/program files (x86)/codeblocks/mingw/bin/../lib/gcc/mingw32/4.7.0/../../../../include/ctype.h"
	.file 30 "F:/CSIKI/PROGRAMING/C++/main/Croupier/BotTester/BotTester/pugixml.hpp"
	.file 31 "F:/CSIKI/PROGRAMING/C++/main/Croupier/BotTester/BotTester/BotLanguage.h"
	.file 32 "c:/program files (x86)/codeblocks/mingw/bin/../lib/gcc/mingw32/4.7.0/include/c++/bits/stl_pair.h"
	.file 33 "F:/CSIKI/PROGRAMING/C++/main/Croupier/BotTester/BotTester/BotDataXMLHandler.h"
	.file 34 "c:/program files (x86)/codeblocks/mingw/bin/../lib/gcc/mingw32/4.7.0/include/c++/type_traits"
	.file 35 "c:/program files (x86)/codeblocks/mingw/bin/../lib/gcc/mingw32/4.7.0/include/c++/mingw32/bits/gthr-default.h"