	.file	"GameDataXMLHandler.cpp"
	.text
Ltext0:
	.section .rdata,"dr"
__ZStL19piecewise_construct:
	.space 1
	.section	.text$_ZN8GameDataC1EiPKcS1_S1_,"x"
	.linkonce discard
	.align 2
	.globl	__ZN8GameDataC1EiPKcS1_S1_
	.def	__ZN8GameDataC1EiPKcS1_S1_;	.scl	2;	.type	32;	.endef
__ZN8GameDataC1EiPKcS1_S1_:
LFB1055:
	.file 1 "F:/CSIKI/PROGRAMING/C++/main/Croupier/BotTester/BotTester/GameData.h"
	.loc 1 20 0
	.cfi_startproc
	.cfi_personality 0,___gxx_personality_v0
	.cfi_lsda 0,LLSDA1055
	pushl	%ebp
LCFI0:
	.cfi_def_cfa_offset 8
	.cfi_offset 5, -8
	movl	%esp, %ebp
LCFI1:
	.cfi_def_cfa_register 5
	pushl	%ebx
	subl	$52, %esp
	.cfi_offset 3, -12
	movl	%ecx, -28(%ebp)
LBB2:
	.loc 1 21 0
	movl	-28(%ebp), %eax
	movl	%eax, %ecx
LEHB0:
	call	__ZNSt6vectorIP7BotDataSaIS1_EEC1Ev
LEHE0:
	movl	-28(%ebp), %eax
	movl	8(%ebp), %edx
	movl	%edx, 12(%eax)
	leal	-11(%ebp), %eax
	movl	%eax, %ecx
	call	__ZNSaIcEC1Ev
	movl	-28(%ebp), %eax
	leal	16(%eax), %edx
	leal	-11(%ebp), %eax
	movl	%eax, 4(%esp)
	movl	12(%ebp), %eax
	movl	%eax, (%esp)
	movl	%edx, %ecx
LEHB1:
	call	__ZNSsC1EPKcRKSaIcE
LEHE1:
	subl	$8, %esp
	leal	-11(%ebp), %eax
	movl	%eax, %ecx
	call	__ZNSaIcED1Ev
	leal	-10(%ebp), %eax
	movl	%eax, %ecx
	call	__ZNSaIcEC1Ev
	movl	-28(%ebp), %eax
	leal	20(%eax), %edx
	leal	-10(%ebp), %eax
	movl	%eax, 4(%esp)
	movl	16(%ebp), %eax
	movl	%eax, (%esp)
	movl	%edx, %ecx
LEHB2:
	call	__ZNSsC1EPKcRKSaIcE
LEHE2:
	.loc 1 21 0 is_stmt 0 discriminator 1
	subl	$8, %esp
	leal	-10(%ebp), %eax
	movl	%eax, %ecx
	call	__ZNSaIcED1Ev
	leal	-9(%ebp), %eax
	movl	%eax, %ecx
	call	__ZNSaIcEC1Ev
	movl	-28(%ebp), %eax
	leal	24(%eax), %edx
	leal	-9(%ebp), %eax
	movl	%eax, 4(%esp)
	movl	20(%ebp), %eax
	movl	%eax, (%esp)
	movl	%edx, %ecx
LEHB3:
	call	__ZNSsC1EPKcRKSaIcE
LEHE3:
	.loc 1 21 0 discriminator 2
	subl	$8, %esp
	leal	-9(%ebp), %eax
	movl	%eax, %ecx
	call	__ZNSaIcED1Ev
	jmp	L10
L7:
	movl	%eax, %ebx
	.loc 1 21 0
	leal	-11(%ebp), %eax
	movl	%eax, %ecx
	call	__ZNSaIcED1Ev
	jmp	L3
L8:
	movl	%eax, %ebx
	leal	-10(%ebp), %eax
	movl	%eax, %ecx
	call	__ZNSaIcED1Ev
	jmp	L5
L9:
	movl	%eax, %ebx
	leal	-9(%ebp), %eax
	movl	%eax, %ecx
	call	__ZNSaIcED1Ev
	movl	-28(%ebp), %eax
	addl	$20, %eax
	movl	%eax, %ecx
	call	__ZNSsD1Ev
L5:
	movl	-28(%ebp), %eax
	addl	$16, %eax
	movl	%eax, %ecx
	call	__ZNSsD1Ev
L3:
	movl	-28(%ebp), %eax
	movl	%eax, %ecx
	call	__ZNSt6vectorIP7BotDataSaIS1_EED1Ev
	movl	%ebx, %eax
	movl	%eax, (%esp)
LEHB4:
	call	__Unwind_Resume
LEHE4:
L10:
LBE2:
	.loc 1 22 0 is_stmt 1
	movl	-4(%ebp), %ebx
	leave
LCFI2:
	.cfi_restore 5
	.cfi_restore 3
	.cfi_def_cfa 4, 4
	ret	$16
	.cfi_endproc
LFE1055:
	.def	___gxx_personality_v0;	.scl	2;	.type	32;	.endef
	.section	.gcc_except_table,"w"
LLSDA1055:
	.byte	0xff
	.byte	0xff
	.byte	0x1
	.uleb128 LLSDACSE1055-LLSDACSB1055
LLSDACSB1055:
	.uleb128 LEHB0-LFB1055
	.uleb128 LEHE0-LEHB0
	.uleb128 0
	.uleb128 0
	.uleb128 LEHB1-LFB1055
	.uleb128 LEHE1-LEHB1
	.uleb128 L7-LFB1055
	.uleb128 0
	.uleb128 LEHB2-LFB1055
	.uleb128 LEHE2-LEHB2
	.uleb128 L8-LFB1055
	.uleb128 0
	.uleb128 LEHB3-LFB1055
	.uleb128 LEHE3-LEHB3
	.uleb128 L9-LFB1055
	.uleb128 0
	.uleb128 LEHB4-LFB1055
	.uleb128 LEHE4-LEHB4
	.uleb128 0
	.uleb128 0
LLSDACSE1055:
	.section	.text$_ZN8GameDataC1EiPKcS1_S1_,"x"
	.linkonce discard
	.section .rdata,"dr"
LC0:
	.ascii "/game\0"
LC1:
	.ascii "id\0"
LC2:
	.ascii "log\0"
LC3:
	.ascii "\0"
LC4:
	.ascii "rules\0"
LC5:
	.ascii "results\0"
LC6:
	.ascii "bots\0"
LC7:
	.ascii "bot\0"
	.text
	.align 2
	.globl	__ZN18GameDataXMLHandler7loadXMLESs
	.def	__ZN18GameDataXMLHandler7loadXMLESs;	.scl	2;	.type	32;	.endef
__ZN18GameDataXMLHandler7loadXMLESs:
LFB1504:
	.file 2 "F:/CSIKI/PROGRAMING/C++/main/Croupier/BotTester/BotTester/GameDataXMLHandler.cpp"
	.loc 2 6 0
	.cfi_startproc
	.cfi_personality 0,___gxx_personality_v0
	.cfi_lsda 0,LLSDA1504
	pushl	%ebp
LCFI3:
	.cfi_def_cfa_offset 8
	.cfi_offset 5, -8
	movl	%esp, %ebp
LCFI4:
	.cfi_def_cfa_register 5
	pushl	%esi
	pushl	%ebx
	subl	$320, %esp
	.cfi_offset 6, -12
	.cfi_offset 3, -16
LBB3:
	.loc 2 8 0
	leal	-308(%ebp), %eax
	movl	%eax, %ecx
LEHB5:
	call	__ZN4pugi12xml_documentC1Ev
LEHE5:
	.loc 2 9 0
	movl	8(%ebp), %ecx
	call	__ZNKSs5c_strEv
	leal	-92(%ebp), %edx
	movl	$0, 12(%esp)
	movl	$116, 8(%esp)
	movl	%eax, 4(%esp)
	leal	-308(%ebp), %eax
	movl	%eax, (%esp)
	movl	%edx, %ecx
LEHB6:
	call	__ZN4pugi12xml_document9load_fileEPKcjNS_12xml_encodingE
	subl	$16, %esp
	.loc 2 11 0
	movl	$0, -12(%ebp)
LBB4:
	.loc 2 12 0
	leal	-92(%ebp), %eax
	movl	%eax, %ecx
	call	__ZNK4pugi16xml_parse_resultcvbEv
LEHE6:
	testb	%al, %al
	je	L12
LBB5:
	.loc 2 15 0
	leal	-308(%ebp), %eax
	movl	$0, 4(%esp)
	movl	$LC0, (%esp)
	movl	%eax, %ecx
LEHB7:
	call	__ZNK4pugi8xml_node18select_single_nodeEPKcPNS_18xpath_variable_setE
	subl	$8, %esp
	movl	%eax, -100(%ebp)
	movl	%edx, -96(%ebp)
	.loc 2 17 0
	leal	-100(%ebp), %eax
	movl	%eax, %ecx
	call	__ZNK4pugi10xpath_node4nodeEv
LEHE7:
	movl	%eax, -72(%ebp)
	leal	-72(%ebp), %eax
	movl	$LC1, (%esp)
	movl	%eax, %ecx
LEHB8:
	call	__ZNK4pugi8xml_node5childEPKc
LEHE8:
	.loc 2 17 0 is_stmt 0 discriminator 1
	subl	$4, %esp
	movl	%eax, -76(%ebp)
	leal	-76(%ebp), %eax
	movl	%eax, %ecx
LEHB9:
	call	__ZNK4pugi8xml_node4textEv
LEHE9:
	movl	%eax, -80(%ebp)
	leal	-80(%ebp), %eax
	movl	$0, (%esp)
	movl	%eax, %ecx
LEHB10:
	call	__ZNK4pugi8xml_text6as_intEi
LEHE10:
	subl	$4, %esp
	movl	%eax, -16(%ebp)
	.loc 2 18 0 is_stmt 1 discriminator 1
	leal	-100(%ebp), %eax
	movl	%eax, %ecx
LEHB11:
	call	__ZNK4pugi10xpath_node4nodeEv
LEHE11:
	.loc 2 18 0 is_stmt 0 discriminator 2
	movl	%eax, -60(%ebp)
	leal	-60(%ebp), %eax
	movl	$LC2, (%esp)
	movl	%eax, %ecx
LEHB12:
	call	__ZNK4pugi8xml_node5childEPKc
LEHE12:
	.loc 2 18 0 discriminator 1
	subl	$4, %esp
	movl	%eax, -64(%ebp)
	leal	-64(%ebp), %eax
	movl	%eax, %ecx
LEHB13:
	call	__ZNK4pugi8xml_node4textEv
LEHE13:
	movl	%eax, -68(%ebp)
	leal	-68(%ebp), %eax
	movl	$LC3, (%esp)
	movl	%eax, %ecx
LEHB14:
	call	__ZNK4pugi8xml_text9as_stringEPKc
LEHE14:
	subl	$4, %esp
	movl	%eax, -20(%ebp)
	.loc 2 19 0 is_stmt 1 discriminator 1
	leal	-100(%ebp), %eax
	movl	%eax, %ecx
LEHB15:
	call	__ZNK4pugi10xpath_node4nodeEv
LEHE15:
	.loc 2 19 0 is_stmt 0 discriminator 2
	movl	%eax, -48(%ebp)
	leal	-48(%ebp), %eax
	movl	$LC4, (%esp)
	movl	%eax, %ecx
LEHB16:
	call	__ZNK4pugi8xml_node5childEPKc
LEHE16:
	.loc 2 19 0 discriminator 1
	subl	$4, %esp
	movl	%eax, -52(%ebp)
	leal	-52(%ebp), %eax
	movl	%eax, %ecx
LEHB17:
	call	__ZNK4pugi8xml_node4textEv
LEHE17:
	movl	%eax, -56(%ebp)
	leal	-56(%ebp), %eax
	movl	$LC3, (%esp)
	movl	%eax, %ecx
LEHB18:
	call	__ZNK4pugi8xml_text9as_stringEPKc
LEHE18:
	subl	$4, %esp
	movl	%eax, -24(%ebp)
	.loc 2 20 0 is_stmt 1 discriminator 1
	leal	-100(%ebp), %eax
	movl	%eax, %ecx
LEHB19:
	call	__ZNK4pugi10xpath_node4nodeEv
LEHE19:
	.loc 2 20 0 is_stmt 0 discriminator 2
	movl	%eax, -36(%ebp)
	leal	-36(%ebp), %eax
	movl	$LC5, (%esp)
	movl	%eax, %ecx
LEHB20:
	call	__ZNK4pugi8xml_node5childEPKc
LEHE20:
	.loc 2 20 0 discriminator 1
	subl	$4, %esp
	movl	%eax, -40(%ebp)
	leal	-40(%ebp), %eax
	movl	%eax, %ecx
LEHB21:
	call	__ZNK4pugi8xml_node4textEv
LEHE21:
	movl	%eax, -44(%ebp)
	leal	-44(%ebp), %eax
	movl	$LC3, (%esp)
	movl	%eax, %ecx
LEHB22:
	call	__ZNK4pugi8xml_text9as_stringEPKc
LEHE22:
	subl	$4, %esp
	movl	%eax, -28(%ebp)
	.loc 2 22 0 is_stmt 1 discriminator 1
	movl	$28, (%esp)
LEHB23:
	call	__Znwj
LEHE23:
	.loc 2 22 0 is_stmt 0 discriminator 2
	movl	%eax, %ebx
	movl	-28(%ebp), %eax
	movl	%eax, 12(%esp)
	movl	-24(%ebp), %eax
	movl	%eax, 8(%esp)
	movl	-20(%ebp), %eax
	movl	%eax, 4(%esp)
	movl	-16(%ebp), %eax
	movl	%eax, (%esp)
	movl	%ebx, %ecx
LEHB24:
	call	__ZN8GameDataC1EiPKcS1_S1_
LEHE24:
	.loc 2 22 0 discriminator 1
	subl	$16, %esp
	movl	%ebx, -12(%ebp)
	.loc 2 25 0 is_stmt 1 discriminator 1
	leal	-100(%ebp), %eax
	movl	%eax, %ecx
LEHB25:
	call	__ZNK4pugi10xpath_node4nodeEv
LEHE25:
	movl	%eax, -32(%ebp)
	leal	-32(%ebp), %eax
	movl	$LC6, (%esp)
	movl	%eax, %ecx
LEHB26:
	call	__ZNK4pugi8xml_node5childEPKc
LEHE26:
	subl	$4, %esp
	movl	%eax, -104(%ebp)
LBB6:
	.loc 2 26 0 discriminator 1
	leal	-104(%ebp), %eax
	movl	$LC7, (%esp)
	movl	%eax, %ecx
LEHB27:
	call	__ZNK4pugi8xml_node5childEPKc
	.loc 2 26 0 is_stmt 0 discriminator 2
	subl	$4, %esp
	movl	%eax, -108(%ebp)
	jmp	L13
L14:
	.loc 2 28 0 is_stmt 1
	leal	-108(%ebp), %eax
	movl	%eax, (%esp)
	call	__ZN17BotDataXMLHandler7loadXMLERN4pugi8xml_nodeE
	movl	%eax, %edx
	movl	-12(%ebp), %eax
	movl	%edx, (%esp)
	movl	%eax, %ecx
	call	__ZN8GameData10addBotDataEP7BotData
	.loc 2 28 0 is_stmt 0 discriminator 1
	subl	$4, %esp
	.loc 2 26 0 is_stmt 1 discriminator 1
	leal	-108(%ebp), %eax
	movl	$LC7, (%esp)
	movl	%eax, %ecx
	call	__ZNK4pugi8xml_node12next_siblingEPKc
	.loc 2 26 0 is_stmt 0
	subl	$4, %esp
	movl	%eax, -108(%ebp)
L13:
	.loc 2 26 0 discriminator 1
	leal	-108(%ebp), %eax
	movl	%eax, %ecx
	call	__ZNK4pugi8xml_nodecvPFvPPPS0_EEv
LEHE27:
	testl	%eax, %eax
	setne	%al
	testb	%al, %al
	jne	L14
L12:
LBE6:
LBE5:
LBE4:
	.loc 2 32 0 is_stmt 1
	movl	-12(%ebp), %ebx
	leal	-308(%ebp), %eax
	movl	%eax, %ecx
LEHB28:
	call	__ZN4pugi12xml_documentD1Ev
LEHE28:
	movl	%ebx, %eax
	jmp	L52
L39:
	jmp	L17
L38:
L17:
	jmp	L18
L37:
L18:
	jmp	L19
L42:
	jmp	L21
L41:
L21:
	jmp	L22
L40:
L22:
	jmp	L19
L45:
	jmp	L24
L44:
L24:
	jmp	L25
L43:
L25:
	jmp	L19
L48:
	jmp	L27
L47:
L27:
	jmp	L28
L46:
L28:
	jmp	L19
L49:
	movl	%eax, %esi
LBB8:
LBB7:
	.loc 2 22 0
	movl	%ebx, (%esp)
	call	__ZdlPv
	movl	%esi, %eax
	jmp	L19
L50:
	jmp	L19
L51:
	jmp	L19
L36:
L19:
	movl	%eax, %ebx
	jmp	L32
L35:
	movl	%eax, %ebx
L32:
LBE7:
LBE8:
	.loc 2 32 0
	leal	-308(%ebp), %eax
	movl	%eax, %ecx
	call	__ZN4pugi12xml_documentD1Ev
	movl	%ebx, %eax
	jmp	L33
L34:
L33:
	movl	%eax, (%esp)
LEHB29:
	call	__Unwind_Resume
LEHE29:
L52:
LBE3:
	.loc 2 33 0
	leal	-8(%ebp), %esp
	popl	%ebx
	.cfi_restore 3
	popl	%esi
	.cfi_restore 6
	popl	%ebp
LCFI5:
	.cfi_restore 5
	.cfi_def_cfa 4, 4
	ret
	.cfi_endproc
LFE1504:
	.section	.gcc_except_table,"w"
LLSDA1504:
	.byte	0xff
	.byte	0xff
	.byte	0x1
	.uleb128 LLSDACSE1504-LLSDACSB1504
LLSDACSB1504:
	.uleb128 LEHB5-LFB1504
	.uleb128 LEHE5-LEHB5
	.uleb128 L34-LFB1504
	.uleb128 0
	.uleb128 LEHB6-LFB1504
	.uleb128 LEHE6-LEHB6
	.uleb128 L35-LFB1504
	.uleb128 0
	.uleb128 LEHB7-LFB1504
	.uleb128 LEHE7-LEHB7
	.uleb128 L36-LFB1504
	.uleb128 0
	.uleb128 LEHB8-LFB1504
	.uleb128 LEHE8-LEHB8
	.uleb128 L37-LFB1504
	.uleb128 0
	.uleb128 LEHB9-LFB1504
	.uleb128 LEHE9-LEHB9
	.uleb128 L38-LFB1504
	.uleb128 0
	.uleb128 LEHB10-LFB1504
	.uleb128 LEHE10-LEHB10
	.uleb128 L39-LFB1504
	.uleb128 0
	.uleb128 LEHB11-LFB1504
	.uleb128 LEHE11-LEHB11
	.uleb128 L36-LFB1504
	.uleb128 0
	.uleb128 LEHB12-LFB1504
	.uleb128 LEHE12-LEHB12
	.uleb128 L40-LFB1504
	.uleb128 0
	.uleb128 LEHB13-LFB1504
	.uleb128 LEHE13-LEHB13
	.uleb128 L41-LFB1504
	.uleb128 0
	.uleb128 LEHB14-LFB1504
	.uleb128 LEHE14-LEHB14
	.uleb128 L42-LFB1504
	.uleb128 0
	.uleb128 LEHB15-LFB1504
	.uleb128 LEHE15-LEHB15
	.uleb128 L36-LFB1504
	.uleb128 0
	.uleb128 LEHB16-LFB1504
	.uleb128 LEHE16-LEHB16
	.uleb128 L43-LFB1504
	.uleb128 0
	.uleb128 LEHB17-LFB1504
	.uleb128 LEHE17-LEHB17
	.uleb128 L44-LFB1504
	.uleb128 0
	.uleb128 LEHB18-LFB1504
	.uleb128 LEHE18-LEHB18
	.uleb128 L45-LFB1504
	.uleb128 0
	.uleb128 LEHB19-LFB1504
	.uleb128 LEHE19-LEHB19
	.uleb128 L36-LFB1504
	.uleb128 0
	.uleb128 LEHB20-LFB1504
	.uleb128 LEHE20-LEHB20
	.uleb128 L46-LFB1504
	.uleb128 0
	.uleb128 LEHB21-LFB1504
	.uleb128 LEHE21-LEHB21
	.uleb128 L47-LFB1504
	.uleb128 0
	.uleb128 LEHB22-LFB1504
	.uleb128 LEHE22-LEHB22
	.uleb128 L48-LFB1504
	.uleb128 0
	.uleb128 LEHB23-LFB1504
	.uleb128 LEHE23-LEHB23
	.uleb128 L36-LFB1504
	.uleb128 0
	.uleb128 LEHB24-LFB1504
	.uleb128 LEHE24-LEHB24
	.uleb128 L49-LFB1504
	.uleb128 0
	.uleb128 LEHB25-LFB1504
	.uleb128 LEHE25-LEHB25
	.uleb128 L36-LFB1504
	.uleb128 0
	.uleb128 LEHB26-LFB1504
	.uleb128 LEHE26-LEHB26
	.uleb128 L50-LFB1504
	.uleb128 0
	.uleb128 LEHB27-LFB1504
	.uleb128 LEHE27-LEHB27
	.uleb128 L51-LFB1504
	.uleb128 0
	.uleb128 LEHB28-LFB1504
	.uleb128 LEHE28-LEHB28
	.uleb128 L34-LFB1504
	.uleb128 0
	.uleb128 LEHB29-LFB1504
	.uleb128 LEHE29-LEHB29
	.uleb128 0
	.uleb128 0
LLSDACSE1504:
	.text
	.section .rdata,"dr"
LC8:
	.ascii "game\0"
LC9:
	.ascii "\11\0"
	.text
	.align 2
	.globl	__ZN18GameDataXMLHandler7saveXMLEP8GameDataSs
	.def	__ZN18GameDataXMLHandler7saveXMLEP8GameDataSs;	.scl	2;	.type	32;	.endef
__ZN18GameDataXMLHandler7saveXMLEP8GameDataSs:
LFB1505:
	.loc 2 38 0
	.cfi_startproc
	.cfi_personality 0,___gxx_personality_v0
	.cfi_lsda 0,LLSDA1505
	pushl	%ebp
LCFI6:
	.cfi_def_cfa_offset 8
	.cfi_offset 5, -8
	movl	%esp, %ebp
LCFI7:
	.cfi_def_cfa_register 5
	pushl	%ebx
	subl	$276, %esp
	.cfi_offset 3, -12
LBB9:
LBB10:
	.loc 2 39 0
	cmpl	$0, 8(%ebp)
	je	L54
LBB11:
	.loc 2 41 0
	leal	-256(%ebp), %eax
	movl	%eax, %ecx
LEHB30:
	call	__ZN4pugi12xml_documentC1Ev
LEHE30:
	.loc 2 42 0
	leal	-256(%ebp), %eax
	movl	$LC8, (%esp)
	movl	%eax, %ecx
LEHB31:
	call	__ZN4pugi8xml_node12append_childEPKc
	subl	$4, %esp
	movl	%eax, -48(%ebp)
	.loc 2 45 0
	movl	8(%ebp), %eax
	movl	12(%eax), %ebx
	leal	-48(%ebp), %eax
	movl	$LC1, (%esp)
	movl	%eax, %ecx
	call	__ZN4pugi8xml_node12append_childEPKc
LEHE31:
	subl	$4, %esp
	movl	%eax, -40(%ebp)
	leal	-40(%ebp), %eax
	movl	%eax, %ecx
LEHB32:
	call	__ZNK4pugi8xml_node4textEv
LEHE32:
	.loc 2 45 0 is_stmt 0 discriminator 1
	movl	%eax, -44(%ebp)
	leal	-44(%ebp), %eax
	movl	%ebx, (%esp)
	movl	%eax, %ecx
LEHB33:
	call	__ZN4pugi8xml_text3setEi
LEHE33:
	subl	$4, %esp
	.loc 2 46 0 is_stmt 1 discriminator 1
	movl	8(%ebp), %eax
	addl	$16, %eax
	movl	%eax, %ecx
	call	__ZNKSs5c_strEv
	movl	%eax, %ebx
	leal	-48(%ebp), %eax
	movl	$LC2, (%esp)
	movl	%eax, %ecx
LEHB34:
	call	__ZN4pugi8xml_node12append_childEPKc
LEHE34:
	subl	$4, %esp
	movl	%eax, -32(%ebp)
	leal	-32(%ebp), %eax
	movl	%eax, %ecx
LEHB35:
	call	__ZNK4pugi8xml_node4textEv
LEHE35:
	movl	%eax, -36(%ebp)
	leal	-36(%ebp), %eax
	movl	%ebx, (%esp)
	movl	%eax, %ecx
LEHB36:
	call	__ZN4pugi8xml_text3setEPKc
LEHE36:
	subl	$4, %esp
	.loc 2 47 0 discriminator 1
	movl	8(%ebp), %eax
	addl	$20, %eax
	movl	%eax, %ecx
	call	__ZNKSs5c_strEv
	movl	%eax, %ebx
	leal	-48(%ebp), %eax
	movl	$LC4, (%esp)
	movl	%eax, %ecx
LEHB37:
	call	__ZN4pugi8xml_node12append_childEPKc
LEHE37:
	subl	$4, %esp
	movl	%eax, -24(%ebp)
	leal	-24(%ebp), %eax
	movl	%eax, %ecx
LEHB38:
	call	__ZNK4pugi8xml_node4textEv
LEHE38:
	movl	%eax, -28(%ebp)
	leal	-28(%ebp), %eax
	movl	%ebx, (%esp)
	movl	%eax, %ecx
LEHB39:
	call	__ZN4pugi8xml_text3setEPKc
LEHE39:
	subl	$4, %esp
	.loc 2 48 0 discriminator 1
	movl	8(%ebp), %eax
	addl	$24, %eax
	movl	%eax, %ecx
	call	__ZNKSs5c_strEv
	movl	%eax, %ebx
	leal	-48(%ebp), %eax
	movl	$LC5, (%esp)
	movl	%eax, %ecx
LEHB40:
	call	__ZN4pugi8xml_node12append_childEPKc
LEHE40:
	subl	$4, %esp
	movl	%eax, -16(%ebp)
	leal	-16(%ebp), %eax
	movl	%eax, %ecx
LEHB41:
	call	__ZNK4pugi8xml_node4textEv
LEHE41:
	movl	%eax, -20(%ebp)
	leal	-20(%ebp), %eax
	movl	%ebx, (%esp)
	movl	%eax, %ecx
LEHB42:
	call	__ZN4pugi8xml_text3setEPKc
LEHE42:
	subl	$4, %esp
	.loc 2 51 0 discriminator 1
	leal	-48(%ebp), %eax
	movl	$LC6, (%esp)
	movl	%eax, %ecx
LEHB43:
	call	__ZN4pugi8xml_node12append_childEPKc
LEHE43:
	subl	$4, %esp
	movl	%eax, -52(%ebp)
LBB12:
	.loc 2 52 0 discriminator 1
	movl	$0, -12(%ebp)
	jmp	L55
L56:
LBB13:
	.loc 2 54 0
	leal	-52(%ebp), %eax
	movl	$LC7, (%esp)
	movl	%eax, %ecx
LEHB44:
	call	__ZN4pugi8xml_node12append_childEPKc
	subl	$4, %esp
	movl	%eax, -56(%ebp)
	.loc 2 55 0
	movl	-12(%ebp), %eax
	movl	%eax, (%esp)
	movl	8(%ebp), %ecx
	call	__ZN8GameData10getBotDataEi
	subl	$4, %esp
	leal	-56(%ebp), %edx
	movl	%edx, 4(%esp)
	movl	%eax, (%esp)
	call	__ZN17BotDataXMLHandler7saveXMLEP7BotDataRN4pugi8xml_nodeE
LEHE44:
LBE13:
	.loc 2 52 0
	incl	-12(%ebp)
L55:
	.loc 2 52 0 is_stmt 0 discriminator 1
	movl	8(%ebp), %ecx
LEHB45:
	call	__ZN8GameData12getNumOfBotsEv
	cmpl	-12(%ebp), %eax
	seta	%al
	testb	%al, %al
	jne	L56
LBE12:
	.loc 2 59 0 is_stmt 1
	movl	12(%ebp), %eax
	movl	%eax, %ecx
	call	__ZNKSs5c_strEv
	leal	-256(%ebp), %edx
	movl	$0, 12(%esp)
	movl	$1, 8(%esp)
	movl	$LC9, 4(%esp)
	movl	%eax, (%esp)
	movl	%edx, %ecx
	call	__ZNK4pugi12xml_document9save_fileEPKcS2_jNS_12xml_encodingE
LEHE45:
	subl	$16, %esp
	movb	%al, %bl
	leal	-256(%ebp), %eax
	movl	%eax, %ecx
LEHB46:
	call	__ZN4pugi12xml_documentD1Ev
LEHE46:
	jmp	L57
L54:
LBE11:
LBE10:
	.loc 2 62 0
	movb	$0, %bl
L57:
	movb	%bl, %al
	jmp	L80
L72:
	jmp	L59
L71:
L59:
	movl	%eax, %ebx
	jmp	L60
L74:
	jmp	L62
L73:
L62:
	movl	%eax, %ebx
	jmp	L60
L76:
	jmp	L64
L75:
L64:
	movl	%eax, %ebx
	jmp	L60
L78:
	jmp	L66
L77:
L66:
	movl	%eax, %ebx
	jmp	L60
L79:
	movl	%eax, %ebx
	jmp	L60
L70:
	movl	%eax, %ebx
L60:
LBB15:
LBB14:
	.loc 2 59 0
	leal	-256(%ebp), %eax
	movl	%eax, %ecx
	call	__ZN4pugi12xml_documentD1Ev
	movl	%ebx, %eax
	jmp	L68
L69:
L68:
	movl	%eax, (%esp)
LEHB47:
	call	__Unwind_Resume
LEHE47:
L80:
LBE14:
LBE15:
LBE9:
	.loc 2 63 0
	movl	-4(%ebp), %ebx
	leave
LCFI8:
	.cfi_restore 5
	.cfi_restore 3
	.cfi_def_cfa 4, 4
	ret
	.cfi_endproc
LFE1505:
	.section	.gcc_except_table,"w"
LLSDA1505:
	.byte	0xff
	.byte	0xff
	.byte	0x1
	.uleb128 LLSDACSE1505-LLSDACSB1505
LLSDACSB1505:
	.uleb128 LEHB30-LFB1505
	.uleb128 LEHE30-LEHB30
	.uleb128 L69-LFB1505
	.uleb128 0
	.uleb128 LEHB31-LFB1505
	.uleb128 LEHE31-LEHB31
	.uleb128 L70-LFB1505
	.uleb128 0
	.uleb128 LEHB32-LFB1505
	.uleb128 LEHE32-LEHB32
	.uleb128 L71-LFB1505
	.uleb128 0
	.uleb128 LEHB33-LFB1505
	.uleb128 LEHE33-LEHB33
	.uleb128 L72-LFB1505
	.uleb128 0
	.uleb128 LEHB34-LFB1505
	.uleb128 LEHE34-LEHB34
	.uleb128 L70-LFB1505
	.uleb128 0
	.uleb128 LEHB35-LFB1505
	.uleb128 LEHE35-LEHB35
	.uleb128 L73-LFB1505
	.uleb128 0
	.uleb128 LEHB36-LFB1505
	.uleb128 LEHE36-LEHB36
	.uleb128 L74-LFB1505
	.uleb128 0
	.uleb128 LEHB37-LFB1505
	.uleb128 LEHE37-LEHB37
	.uleb128 L70-LFB1505
	.uleb128 0
	.uleb128 LEHB38-LFB1505
	.uleb128 LEHE38-LEHB38
	.uleb128 L75-LFB1505
	.uleb128 0
	.uleb128 LEHB39-LFB1505
	.uleb128 LEHE39-LEHB39
	.uleb128 L76-LFB1505
	.uleb128 0
	.uleb128 LEHB40-LFB1505
	.uleb128 LEHE40-LEHB40
	.uleb128 L70-LFB1505
	.uleb128 0
	.uleb128 LEHB41-LFB1505
	.uleb128 LEHE41-LEHB41
	.uleb128 L77-LFB1505
	.uleb128 0
	.uleb128 LEHB42-LFB1505
	.uleb128 LEHE42-LEHB42
	.uleb128 L78-LFB1505
	.uleb128 0
	.uleb128 LEHB43-LFB1505
	.uleb128 LEHE43-LEHB43
	.uleb128 L70-LFB1505
	.uleb128 0
	.uleb128 LEHB44-LFB1505
	.uleb128 LEHE44-LEHB44
	.uleb128 L79-LFB1505
	.uleb128 0
	.uleb128 LEHB45-LFB1505
	.uleb128 LEHE45-LEHB45
	.uleb128 L70-LFB1505
	.uleb128 0
	.uleb128 LEHB46-LFB1505
	.uleb128 LEHE46-LEHB46
	.uleb128 L69-LFB1505
	.uleb128 0
	.uleb128 LEHB47-LFB1505
	.uleb128 LEHE47-LEHB47
	.uleb128 0
	.uleb128 0
LLSDACSE1505:
	.text
	.section	.text$_ZNSt6vectorIP7BotDataSaIS1_EEC1Ev,"x"
	.linkonce discard
	.align 2
	.globl	__ZNSt6vectorIP7BotDataSaIS1_EEC1Ev
	.def	__ZNSt6vectorIP7BotDataSaIS1_EEC1Ev;	.scl	2;	.type	32;	.endef
__ZNSt6vectorIP7BotDataSaIS1_EEC1Ev:
LFB1525:
	.file 3 "c:/program files (x86)/codeblocks/mingw/bin/../lib/gcc/mingw32/4.7.0/include/c++/bits/stl_vector.h"
	.loc 3 246 0
	.cfi_startproc
	pushl	%ebp
LCFI9:
	.cfi_def_cfa_offset 8
	.cfi_offset 5, -8
	movl	%esp, %ebp
LCFI10:
	.cfi_def_cfa_register 5
	subl	$24, %esp
	movl	%ecx, -12(%ebp)
LBB16:
	.loc 3 247 0
	movl	-12(%ebp), %eax
	movl	%eax, %ecx
	call	__ZNSt12_Vector_baseIP7BotDataSaIS1_EEC2Ev
LBE16:
	leave
LCFI11:
	.cfi_restore 5
	.cfi_def_cfa 4, 4
	ret
	.cfi_endproc
LFE1525:
	.section	.text$_ZNSt6vectorIP7BotDataSaIS1_EED1Ev,"x"
	.linkonce discard
	.align 2
	.globl	__ZNSt6vectorIP7BotDataSaIS1_EED1Ev
	.def	__ZNSt6vectorIP7BotDataSaIS1_EED1Ev;	.scl	2;	.type	32;	.endef
__ZNSt6vectorIP7BotDataSaIS1_EED1Ev:
LFB1528:
	.loc 3 402 0
	.cfi_startproc
	.cfi_personality 0,___gxx_personality_v0
	.cfi_lsda 0,LLSDA1528
	pushl	%ebp
LCFI12:
	.cfi_def_cfa_offset 8
	.cfi_offset 5, -8
	movl	%esp, %ebp
LCFI13:
	.cfi_def_cfa_register 5
	subl	$40, %esp
	movl	%ecx, -12(%ebp)
LBB17:
	.loc 3 403 0
	movl	-12(%ebp), %eax
	movl	%eax, %ecx
	call	__ZNSt12_Vector_baseIP7BotDataSaIS1_EE19_M_get_Tp_allocatorEv
	movl	-12(%ebp), %edx
	movl	4(%edx), %ecx
	movl	-12(%ebp), %edx
	movl	(%edx), %edx
	movl	%eax, 8(%esp)
	movl	%ecx, 4(%esp)
	movl	%edx, (%esp)
	call	__ZSt8_DestroyIPP7BotDataS1_EvT_S3_RSaIT0_E
	.loc 3 404 0
	movl	-12(%ebp), %eax
	movl	%eax, %ecx
	call	__ZNSt12_Vector_baseIP7BotDataSaIS1_EED2Ev
LBE17:
	leave
LCFI14:
	.cfi_restore 5
	.cfi_def_cfa 4, 4
	ret
	.cfi_endproc
LFE1528:
	.section	.gcc_except_table,"w"
LLSDA1528:
	.byte	0xff
	.byte	0xff
	.byte	0x1
	.uleb128 LLSDACSE1528-LLSDACSB1528
LLSDACSB1528:
LLSDACSE1528:
	.section	.text$_ZNSt6vectorIP7BotDataSaIS1_EED1Ev,"x"
	.linkonce discard
	.section	.text$_ZNSt12_Vector_baseIP7BotDataSaIS1_EE12_Vector_implD1Ev,"x"
	.linkonce discard
	.align 2
	.globl	__ZNSt12_Vector_baseIP7BotDataSaIS1_EE12_Vector_implD1Ev
	.def	__ZNSt12_Vector_baseIP7BotDataSaIS1_EE12_Vector_implD1Ev;	.scl	2;	.type	32;	.endef
__ZNSt12_Vector_baseIP7BotDataSaIS1_EE12_Vector_implD1Ev:
LFB1553:
	.loc 3 80 0
	.cfi_startproc
	pushl	%ebp
LCFI15:
	.cfi_def_cfa_offset 8
	.cfi_offset 5, -8
	movl	%esp, %ebp
LCFI16:
	.cfi_def_cfa_register 5
	subl	$24, %esp
	movl	%ecx, -12(%ebp)
LBB18:
	.loc 3 80 0
	movl	-12(%ebp), %eax
	movl	%eax, %ecx
	call	__ZNSaIP7BotDataED2Ev
LBE18:
	leave
LCFI17:
	.cfi_restore 5
	.cfi_def_cfa 4, 4
	ret
	.cfi_endproc
LFE1553:
	.section	.text$_ZNSt12_Vector_baseIP7BotDataSaIS1_EEC2Ev,"x"
	.linkonce discard
	.align 2
	.globl	__ZNSt12_Vector_baseIP7BotDataSaIS1_EEC2Ev
	.def	__ZNSt12_Vector_baseIP7BotDataSaIS1_EEC2Ev;	.scl	2;	.type	32;	.endef
__ZNSt12_Vector_baseIP7BotDataSaIS1_EEC2Ev:
LFB1554:
	.loc 3 125 0
	.cfi_startproc
	pushl	%ebp
LCFI18:
	.cfi_def_cfa_offset 8
	.cfi_offset 5, -8
	movl	%esp, %ebp
LCFI19:
	.cfi_def_cfa_register 5
	subl	$24, %esp
	movl	%ecx, -12(%ebp)
LBB19:
	.loc 3 126 0
	movl	-12(%ebp), %eax
	movl	%eax, %ecx
	call	__ZNSt12_Vector_baseIP7BotDataSaIS1_EE12_Vector_implC1Ev
LBE19:
	leave
LCFI20:
	.cfi_restore 5
	.cfi_def_cfa 4, 4
	ret
	.cfi_endproc
LFE1554:
	.section	.text$_ZNSt12_Vector_baseIP7BotDataSaIS1_EED2Ev,"x"
	.linkonce discard
	.align 2
	.globl	__ZNSt12_Vector_baseIP7BotDataSaIS1_EED2Ev
	.def	__ZNSt12_Vector_baseIP7BotDataSaIS1_EED2Ev;	.scl	2;	.type	32;	.endef
__ZNSt12_Vector_baseIP7BotDataSaIS1_EED2Ev:
LFB1557:
	.loc 3 160 0
	.cfi_startproc
	.cfi_personality 0,___gxx_personality_v0
	.cfi_lsda 0,LLSDA1557
	pushl	%ebp
LCFI21:
	.cfi_def_cfa_offset 8
	.cfi_offset 5, -8
	movl	%esp, %ebp
LCFI22:
	.cfi_def_cfa_register 5
	pushl	%ebx
	subl	$36, %esp
	.cfi_offset 3, -12
	movl	%ecx, -12(%ebp)
LBB20:
	.loc 3 161 0
	movl	-12(%ebp), %eax
	movl	8(%eax), %eax
	movl	%eax, %edx
	movl	-12(%ebp), %eax
	movl	(%eax), %eax
	movl	%edx, %ecx
	subl	%eax, %ecx
	movl	%ecx, %eax
	sarl	$2, %eax
	movl	%eax, %ecx
	movl	-12(%ebp), %eax
	movl	(%eax), %edx
	movl	-12(%ebp), %eax
	movl	%ecx, 4(%esp)
	movl	%edx, (%esp)
	movl	%eax, %ecx
LEHB48:
	call	__ZNSt12_Vector_baseIP7BotDataSaIS1_EE13_M_deallocateEPS1_j
LEHE48:
	subl	$8, %esp
	.loc 3 162 0
	movl	-12(%ebp), %eax
	movl	%eax, %ecx
	call	__ZNSt12_Vector_baseIP7BotDataSaIS1_EE12_Vector_implD1Ev
	jmp	L91
L90:
	movl	%eax, %ebx
	movl	-12(%ebp), %eax
	movl	%eax, %ecx
	call	__ZNSt12_Vector_baseIP7BotDataSaIS1_EE12_Vector_implD1Ev
	movl	%ebx, %eax
	movl	%eax, (%esp)
LEHB49:
	call	__Unwind_Resume
LEHE49:
L91:
LBE20:
	movl	-4(%ebp), %ebx
	leave
LCFI23:
	.cfi_restore 5
	.cfi_restore 3
	.cfi_def_cfa 4, 4
	ret
	.cfi_endproc
LFE1557:
	.section	.gcc_except_table,"w"
LLSDA1557:
	.byte	0xff
	.byte	0xff
	.byte	0x1
	.uleb128 LLSDACSE1557-LLSDACSB1557
LLSDACSB1557:
	.uleb128 LEHB48-LFB1557
	.uleb128 LEHE48-LEHB48
	.uleb128 L90-LFB1557
	.uleb128 0
	.uleb128 LEHB49-LFB1557
	.uleb128 LEHE49-LEHB49
	.uleb128 0
	.uleb128 0
LLSDACSE1557:
	.section	.text$_ZNSt12_Vector_baseIP7BotDataSaIS1_EED2Ev,"x"
	.linkonce discard
	.section	.text$_ZNSt12_Vector_baseIP7BotDataSaIS1_EE19_M_get_Tp_allocatorEv,"x"
	.linkonce discard
	.align 2
	.globl	__ZNSt12_Vector_baseIP7BotDataSaIS1_EE19_M_get_Tp_allocatorEv
	.def	__ZNSt12_Vector_baseIP7BotDataSaIS1_EE19_M_get_Tp_allocatorEv;	.scl	2;	.type	32;	.endef
__ZNSt12_Vector_baseIP7BotDataSaIS1_EE19_M_get_Tp_allocatorEv:
LFB1559:
	.loc 3 114 0
	.cfi_startproc
	pushl	%ebp
LCFI24:
	.cfi_def_cfa_offset 8
	.cfi_offset 5, -8
	movl	%esp, %ebp
LCFI25:
	.cfi_def_cfa_register 5
	subl	$4, %esp
	movl	%ecx, -4(%ebp)
	.loc 3 115 0
	movl	-4(%ebp), %eax
	leave
LCFI26:
	.cfi_restore 5
	.cfi_def_cfa 4, 4
	ret
	.cfi_endproc
LFE1559:
	.section	.text$_ZSt8_DestroyIPP7BotDataS1_EvT_S3_RSaIT0_E,"x"
	.linkonce discard
	.globl	__ZSt8_DestroyIPP7BotDataS1_EvT_S3_RSaIT0_E
	.def	__ZSt8_DestroyIPP7BotDataS1_EvT_S3_RSaIT0_E;	.scl	2;	.type	32;	.endef
__ZSt8_DestroyIPP7BotDataS1_EvT_S3_RSaIT0_E:
LFB1560:
	.file 4 "c:/program files (x86)/codeblocks/mingw/bin/../lib/gcc/mingw32/4.7.0/include/c++/bits/stl_construct.h"
	.loc 4 152 0
	.cfi_startproc
	pushl	%ebp
LCFI27:
	.cfi_def_cfa_offset 8
	.cfi_offset 5, -8
	movl	%esp, %ebp
LCFI28:
	.cfi_def_cfa_register 5
	subl	$24, %esp
	.loc 4 155 0
	movl	12(%ebp), %eax
	movl	%eax, 4(%esp)
	movl	8(%ebp), %eax
	movl	%eax, (%esp)
	call	__ZSt8_DestroyIPP7BotDataEvT_S3_
	.loc 4 156 0
	leave
LCFI29:
	.cfi_restore 5
	.cfi_def_cfa 4, 4
	ret
	.cfi_endproc
LFE1560:
	.section	.text$_ZNSt12_Vector_baseIP7BotDataSaIS1_EE12_Vector_implC1Ev,"x"
	.linkonce discard
	.align 2
	.globl	__ZNSt12_Vector_baseIP7BotDataSaIS1_EE12_Vector_implC1Ev
	.def	__ZNSt12_Vector_baseIP7BotDataSaIS1_EE12_Vector_implC1Ev;	.scl	2;	.type	32;	.endef
__ZNSt12_Vector_baseIP7BotDataSaIS1_EE12_Vector_implC1Ev:
LFB1576:
	.loc 3 87 0
	.cfi_startproc
	pushl	%ebp
LCFI30:
	.cfi_def_cfa_offset 8
	.cfi_offset 5, -8
	movl	%esp, %ebp
LCFI31:
	.cfi_def_cfa_register 5
	subl	$24, %esp
	movl	%ecx, -12(%ebp)
LBB21:
	.loc 3 88 0
	movl	-12(%ebp), %eax
	movl	%eax, %ecx
	call	__ZNSaIP7BotDataEC2Ev
	movl	-12(%ebp), %eax
	movl	$0, (%eax)
	movl	-12(%ebp), %eax
	movl	$0, 4(%eax)
	movl	-12(%ebp), %eax
	movl	$0, 8(%eax)
LBE21:
	.loc 3 89 0
	leave
LCFI32:
	.cfi_restore 5
	.cfi_def_cfa 4, 4
	ret
	.cfi_endproc
LFE1576:
	.section	.text$_ZNSaIP7BotDataED2Ev,"x"
	.linkonce discard
	.align 2
	.globl	__ZNSaIP7BotDataED2Ev
	.def	__ZNSaIP7BotDataED2Ev;	.scl	2;	.type	32;	.endef
__ZNSaIP7BotDataED2Ev:
LFB1578:
	.file 5 "c:/program files (x86)/codeblocks/mingw/bin/../lib/gcc/mingw32/4.7.0/include/c++/bits/allocator.h"
	.loc 5 112 0
	.cfi_startproc
	pushl	%ebp
LCFI33:
	.cfi_def_cfa_offset 8
	.cfi_offset 5, -8
	movl	%esp, %ebp
LCFI34:
	.cfi_def_cfa_register 5
	subl	$24, %esp
	movl	%ecx, -12(%ebp)
LBB22:
	.loc 5 112 0
	movl	-12(%ebp), %eax
	movl	%eax, %ecx
	call	__ZN9__gnu_cxx13new_allocatorIP7BotDataED2Ev
LBE22:
	leave
LCFI35:
	.cfi_restore 5
	.cfi_def_cfa 4, 4
	ret
	.cfi_endproc
LFE1578:
	.section	.text$_ZNSt12_Vector_baseIP7BotDataSaIS1_EE13_M_deallocateEPS1_j,"x"
	.linkonce discard
	.align 2
	.globl	__ZNSt12_Vector_baseIP7BotDataSaIS1_EE13_M_deallocateEPS1_j
	.def	__ZNSt12_Vector_baseIP7BotDataSaIS1_EE13_M_deallocateEPS1_j;	.scl	2;	.type	32;	.endef
__ZNSt12_Vector_baseIP7BotDataSaIS1_EE13_M_deallocateEPS1_j:
LFB1580:
	.loc 3 172 0
	.cfi_startproc
	pushl	%ebp
LCFI36:
	.cfi_def_cfa_offset 8
	.cfi_offset 5, -8
	movl	%esp, %ebp
LCFI37:
	.cfi_def_cfa_register 5
	subl	$40, %esp
	movl	%ecx, -12(%ebp)
	.loc 3 174 0
	cmpl	$0, 8(%ebp)
	je	L98
	.loc 3 175 0
	movl	-12(%ebp), %eax
	movl	12(%ebp), %edx
	movl	%edx, 4(%esp)
	movl	8(%ebp), %edx
	movl	%edx, (%esp)
	movl	%eax, %ecx
	call	__ZN9__gnu_cxx13new_allocatorIP7BotDataE10deallocateEPS2_j
	subl	$8, %esp
L98:
	.loc 3 176 0
	leave
LCFI38:
	.cfi_restore 5
	.cfi_def_cfa 4, 4
	ret	$8
	.cfi_endproc
LFE1580:
	.section	.text$_ZSt8_DestroyIPP7BotDataEvT_S3_,"x"
	.linkonce discard
	.globl	__ZSt8_DestroyIPP7BotDataEvT_S3_
	.def	__ZSt8_DestroyIPP7BotDataEvT_S3_;	.scl	2;	.type	32;	.endef
__ZSt8_DestroyIPP7BotDataEvT_S3_:
LFB1581:
	.loc 4 124 0
	.cfi_startproc
	pushl	%ebp
LCFI39:
	.cfi_def_cfa_offset 8
	.cfi_offset 5, -8
	movl	%esp, %ebp
LCFI40:
	.cfi_def_cfa_register 5
	subl	$24, %esp
LBB23:
	.loc 4 128 0
	movl	12(%ebp), %eax
	movl	%eax, 4(%esp)
	movl	8(%ebp), %eax
	movl	%eax, (%esp)
	call	__ZNSt12_Destroy_auxILb1EE9__destroyIPP7BotDataEEvT_S5_
LBE23:
	.loc 4 130 0
	leave
LCFI41:
	.cfi_restore 5
	.cfi_def_cfa 4, 4
	ret
	.cfi_endproc
LFE1581:
	.section	.text$_ZNSaIP7BotDataEC2Ev,"x"
	.linkonce discard
	.align 2
	.globl	__ZNSaIP7BotDataEC2Ev
	.def	__ZNSaIP7BotDataEC2Ev;	.scl	2;	.type	32;	.endef
__ZNSaIP7BotDataEC2Ev:
LFB1586:
	.loc 5 104 0
	.cfi_startproc
	pushl	%ebp
LCFI42:
	.cfi_def_cfa_offset 8
	.cfi_offset 5, -8
	movl	%esp, %ebp
LCFI43:
	.cfi_def_cfa_register 5
	subl	$24, %esp
	movl	%ecx, -12(%ebp)
LBB24:
	.loc 5 104 0
	movl	-12(%ebp), %eax
	movl	%eax, %ecx
	call	__ZN9__gnu_cxx13new_allocatorIP7BotDataEC2Ev
LBE24:
	leave
LCFI44:
	.cfi_restore 5
	.cfi_def_cfa 4, 4
	ret
	.cfi_endproc
LFE1586:
	.section	.text$_ZN9__gnu_cxx13new_allocatorIP7BotDataED2Ev,"x"
	.linkonce discard
	.align 2
	.globl	__ZN9__gnu_cxx13new_allocatorIP7BotDataED2Ev
	.def	__ZN9__gnu_cxx13new_allocatorIP7BotDataED2Ev;	.scl	2;	.type	32;	.endef
__ZN9__gnu_cxx13new_allocatorIP7BotDataED2Ev:
LFB1589:
	.file 6 "c:/program files (x86)/codeblocks/mingw/bin/../lib/gcc/mingw32/4.7.0/include/c++/ext/new_allocator.h"
	.loc 6 76 0
	.cfi_startproc
	pushl	%ebp
LCFI45:
	.cfi_def_cfa_offset 8
	.cfi_offset 5, -8
	movl	%esp, %ebp
LCFI46:
	.cfi_def_cfa_register 5
	subl	$4, %esp
	movl	%ecx, -4(%ebp)
	.loc 6 76 0
	leave
LCFI47:
	.cfi_restore 5
	.cfi_def_cfa 4, 4
	ret
	.cfi_endproc
LFE1589:
	.section	.text$_ZN9__gnu_cxx13new_allocatorIP7BotDataE10deallocateEPS2_j,"x"
	.linkonce discard
	.align 2
	.globl	__ZN9__gnu_cxx13new_allocatorIP7BotDataE10deallocateEPS2_j
	.def	__ZN9__gnu_cxx13new_allocatorIP7BotDataE10deallocateEPS2_j;	.scl	2;	.type	32;	.endef
__ZN9__gnu_cxx13new_allocatorIP7BotDataE10deallocateEPS2_j:
LFB1591:
	.loc 6 99 0
	.cfi_startproc
	pushl	%ebp
LCFI48:
	.cfi_def_cfa_offset 8
	.cfi_offset 5, -8
	movl	%esp, %ebp
LCFI49:
	.cfi_def_cfa_register 5
	subl	$40, %esp
	movl	%ecx, -12(%ebp)
	.loc 6 100 0
	movl	8(%ebp), %eax
	movl	%eax, (%esp)
	call	__ZdlPv
	leave
LCFI50:
	.cfi_restore 5
	.cfi_def_cfa 4, 4
	ret	$8
	.cfi_endproc
LFE1591:
	.section	.text$_ZNSt12_Destroy_auxILb1EE9__destroyIPP7BotDataEEvT_S5_,"x"
	.linkonce discard
	.globl	__ZNSt12_Destroy_auxILb1EE9__destroyIPP7BotDataEEvT_S5_
	.def	__ZNSt12_Destroy_auxILb1EE9__destroyIPP7BotDataEEvT_S5_;	.scl	2;	.type	32;	.endef
__ZNSt12_Destroy_auxILb1EE9__destroyIPP7BotDataEEvT_S5_:
LFB1592:
	.loc 4 114 0
	.cfi_startproc
	pushl	%ebp
LCFI51:
	.cfi_def_cfa_offset 8
	.cfi_offset 5, -8
	movl	%esp, %ebp
LCFI52:
	.cfi_def_cfa_register 5
	.loc 4 114 0
	popl	%ebp
LCFI53:
	.cfi_restore 5
	.cfi_def_cfa 4, 4
	ret
	.cfi_endproc
LFE1592:
	.section	.text$_ZN9__gnu_cxx13new_allocatorIP7BotDataEC2Ev,"x"
	.linkonce discard
	.align 2
	.globl	__ZN9__gnu_cxx13new_allocatorIP7BotDataEC2Ev
	.def	__ZN9__gnu_cxx13new_allocatorIP7BotDataEC2Ev;	.scl	2;	.type	32;	.endef
__ZN9__gnu_cxx13new_allocatorIP7BotDataEC2Ev:
LFB1594:
	.loc 6 69 0
	.cfi_startproc
	pushl	%ebp
LCFI54:
	.cfi_def_cfa_offset 8
	.cfi_offset 5, -8
	movl	%esp, %ebp
LCFI55:
	.cfi_def_cfa_register 5
	subl	$4, %esp
	movl	%ecx, -4(%ebp)
	.loc 6 69 0
	leave
LCFI56:
	.cfi_restore 5
	.cfi_def_cfa 4, 4
	ret
	.cfi_endproc
LFE1594:
	.section .rdata,"dr"
	.align 4
__ZN4pugiL13parse_minimalE:
	.space 4
	.align 4
__ZN4pugiL8parse_piE:
	.long	1
	.align 4
__ZN4pugiL14parse_commentsE:
	.long	2
	.align 4
__ZN4pugiL11parse_cdataE:
	.long	4
	.align 4
__ZN4pugiL15parse_ws_pcdataE:
	.long	8
	.align 4
__ZN4pugiL13parse_escapesE:
	.long	16
	.align 4
__ZN4pugiL9parse_eolE:
	.long	32
	.align 4
__ZN4pugiL21parse_wconv_attributeE:
	.long	64
	.align 4
__ZN4pugiL21parse_wnorm_attributeE:
	.long	128
	.align 4
__ZN4pugiL17parse_declarationE:
	.long	256
	.align 4
__ZN4pugiL13parse_doctypeE:
	.long	512
	.align 4
__ZN4pugiL22parse_ws_pcdata_singleE:
	.long	1024
	.align 4
__ZN4pugiL13parse_defaultE:
	.long	116
	.align 4
__ZN4pugiL10parse_fullE:
	.long	887
	.align 4
__ZN4pugiL13format_indentE:
	.long	1
	.align 4
__ZN4pugiL16format_write_bomE:
	.long	2
	.align 4
__ZN4pugiL10format_rawE:
	.long	4
	.align 4
__ZN4pugiL21format_no_declarationE:
	.long	8
	.align 4
__ZN4pugiL17format_no_escapesE:
	.long	16
	.align 4
__ZN4pugiL21format_save_file_textE:
	.long	32
	.align 4
__ZN4pugiL14format_defaultE:
	.long	1
	.text
Letext0:
	.file 7 "c:/program files (x86)/codeblocks/mingw/bin/../lib/gcc/mingw32/4.7.0/include/c++/cwchar"
	.file 8 "c:/program files (x86)/codeblocks/mingw/bin/../lib/gcc/mingw32/4.7.0/include/c++/cstdint"
	.file 9 "c:/program files (x86)/codeblocks/mingw/bin/../lib/gcc/mingw32/4.7.0/include/c++/clocale"
	.file 10 "c:/program files (x86)/codeblocks/mingw/bin/../lib/gcc/mingw32/4.7.0/include/c++/mingw32/bits/c++config.h"
	.file 11 "c:/program files (x86)/codeblocks/mingw/bin/../lib/gcc/mingw32/4.7.0/include/c++/bits/stringfwd.h"
	.file 12 "c:/program files (x86)/codeblocks/mingw/bin/../lib/gcc/mingw32/4.7.0/include/c++/type_traits"
	.file 13 "c:/program files (x86)/codeblocks/mingw/bin/../lib/gcc/mingw32/4.7.0/include/c++/bits/basic_string.h"
	.file 14 "c:/program files (x86)/codeblocks/mingw/bin/../lib/gcc/mingw32/4.7.0/include/c++/cwctype"
	.file 15 "<built-in>"
	.file 16 "c:/program files (x86)/codeblocks/mingw/bin/../lib/gcc/mingw32/4.7.0/include/c++/bits/cpp_type_traits.h"
	.file 17 "c:/program files (x86)/codeblocks/mingw/bin/../lib/gcc/mingw32/4.7.0/include/c++/debug/debug.h"
	.file 18 "c:/program files (x86)/codeblocks/mingw/bin/../lib/gcc/mingw32/4.7.0/include/stddef.h"
	.file 19 "c:/program files (x86)/codeblocks/mingw/bin/../lib/gcc/mingw32/4.7.0/../../../../include/wctype.h"
	.file 20 "c:/program files (x86)/codeblocks/mingw/bin/../lib/gcc/mingw32/4.7.0/../../../../include/wchar.h"
	.file 21 "c:/program files (x86)/codeblocks/mingw/bin/../lib/gcc/mingw32/4.7.0/include/c++/bits/char_traits.h"
	.file 22 "c:/program files (x86)/codeblocks/mingw/bin/../lib/gcc/mingw32/4.7.0/../../../../include/stdint.h"
	.file 23 "c:/program files (x86)/codeblocks/mingw/bin/../lib/gcc/mingw32/4.7.0/../../../../include/locale.h"
	.file 24 "c:/program files (x86)/codeblocks/mingw/bin/../lib/gcc/mingw32/4.7.0/include/c++/mingw32/bits/atomic_word.h"
	.file 25 "c:/program files (x86)/codeblocks/mingw/bin/../lib/gcc/mingw32/4.7.0/include/c++/ext/numeric_traits.h"
	.file 26 "c:/program files (x86)/codeblocks/mingw/bin/../lib/gcc/mingw32/4.7.0/include/c++/bits/basic_string.tcc"
	.file 27 "c:/program files (x86)/codeblocks/mingw/bin/../lib/gcc/mingw32/4.7.0/include/c++/initializer_list"
	.file 28 "F:/CSIKI/PROGRAMING/C++/main/Croupier/BotTester/BotTester/BotData.h"
	.file 29 "c:/program files (x86)/codeblocks/mingw/bin/../lib/gcc/mingw32/4.7.0/include/c++/bits/ptr_traits.h"
	.file 30 "c:/program files (x86)/codeblocks/mingw/bin/../lib/gcc/mingw32/4.7.0/include/c++/bits/alloc_traits.h"
	.file 31 "c:/program files (x86)/codeblocks/mingw/bin/../lib/gcc/mingw32/4.7.0/include/c++/ext/alloc_traits.h"
	.file 32 "c:/program files (x86)/codeblocks/mingw/bin/../lib/gcc/mingw32/4.7.0/include/c++/bits/vector.tcc"
	.file 33 "c:/program files (x86)/codeblocks/mingw/bin/../lib/gcc/mingw32/4.7.0/../../../../include/ctype.h"
	.file 34 "F:/CSIKI/PROGRAMING/C++/main/Croupier/BotTester/BotTester/pugixml.hpp"
	.file 35 "F:/CSIKI/PROGRAMING/C++/main/Croupier/BotTester/BotTester/BotLanguage.h"
	.file 36 "c:/program files (x86)/codeblocks/mingw/bin/../lib/gcc/mingw32/4.7.0/include/c++/bits/stl_pair.h"
	.file 37 "F:/CSIKI/PROGRAMING/C++/main/Croupier/BotTester/BotTester/GameDataXMLHandler.h"
	.file 38 "c:/program files (x86)/codeblocks/mingw/bin/../lib/gcc/mingw32/4.7.0/include/c++/mingw32/bits/gthr-default.h"