	.file	"GameData.cpp"
	.text
Ltext0:
	.section .rdata,"dr"
__ZStL19piecewise_construct:
	.space 1
	.section	.text$_ZnwjPv,"x"
	.linkonce discard
	.globl	__ZnwjPv
	.def	__ZnwjPv;	.scl	2;	.type	32;	.endef
__ZnwjPv:
LFB312:
	.file 1 "c:/program files (x86)/codeblocks/mingw/bin/../lib/gcc/mingw32/4.7.0/include/c++/new"
	.loc 1 112 0
	.cfi_startproc
	pushl	%ebp
LCFI0:
	.cfi_def_cfa_offset 8
	.cfi_offset 5, -8
	movl	%esp, %ebp
LCFI1:
	.cfi_def_cfa_register 5
	.loc 1 112 0
	movl	12(%ebp), %eax
	popl	%ebp
LCFI2:
	.cfi_restore 5
	.cfi_def_cfa 4, 4
	ret
	.cfi_endproc
LFE312:
	.text
	.align 2
	.globl	__ZN8GameData10addBotDataEP7BotData
	.def	__ZN8GameData10addBotDataEP7BotData;	.scl	2;	.type	32;	.endef
__ZN8GameData10addBotDataEP7BotData:
LFB1059:
	.file 2 "F:/CSIKI/PROGRAMING/C++/main/Croupier/BotTester/BotTester/GameData.cpp"
	.loc 2 6 0
	.cfi_startproc
	pushl	%ebp
LCFI3:
	.cfi_def_cfa_offset 8
	.cfi_offset 5, -8
	movl	%esp, %ebp
LCFI4:
	.cfi_def_cfa_register 5
	subl	$40, %esp
	movl	%ecx, -12(%ebp)
	.loc 2 7 0
	movl	-12(%ebp), %eax
	leal	8(%ebp), %edx
	movl	%edx, (%esp)
	movl	%eax, %ecx
	call	__ZNSt6vectorIP7BotDataSaIS1_EE9push_backERKS1_
	subl	$4, %esp
	.loc 2 8 0
	leave
LCFI5:
	.cfi_restore 5
	.cfi_def_cfa 4, 4
	ret	$4
	.cfi_endproc
LFE1059:
	.align 2
	.globl	__ZN8GameData10getBotDataEi
	.def	__ZN8GameData10getBotDataEi;	.scl	2;	.type	32;	.endef
__ZN8GameData10getBotDataEi:
LFB1060:
	.loc 2 13 0
	.cfi_startproc
	pushl	%ebp
LCFI6:
	.cfi_def_cfa_offset 8
	.cfi_offset 5, -8
	movl	%esp, %ebp
LCFI7:
	.cfi_def_cfa_register 5
	subl	$40, %esp
	movl	%ecx, -12(%ebp)
	.loc 2 14 0
	movl	8(%ebp), %edx
	movl	-12(%ebp), %eax
	movl	%edx, (%esp)
	movl	%eax, %ecx
	call	__ZNSt6vectorIP7BotDataSaIS1_EE2atEj
	subl	$4, %esp
	movl	(%eax), %eax
	.loc 2 15 0
	leave
LCFI8:
	.cfi_restore 5
	.cfi_def_cfa 4, 4
	ret	$4
	.cfi_endproc
LFE1060:
	.align 2
	.globl	__ZN8GameData12getNumOfBotsEv
	.def	__ZN8GameData12getNumOfBotsEv;	.scl	2;	.type	32;	.endef
__ZN8GameData12getNumOfBotsEv:
LFB1061:
	.loc 2 20 0
	.cfi_startproc
	pushl	%ebp
LCFI9:
	.cfi_def_cfa_offset 8
	.cfi_offset 5, -8
	movl	%esp, %ebp
LCFI10:
	.cfi_def_cfa_register 5
	subl	$24, %esp
	movl	%ecx, -12(%ebp)
	.loc 2 21 0
	movl	-12(%ebp), %eax
	movl	%eax, %ecx
	call	__ZNKSt6vectorIP7BotDataSaIS1_EE4sizeEv
	.loc 2 22 0
	leave
LCFI11:
	.cfi_restore 5
	.cfi_def_cfa 4, 4
	ret
	.cfi_endproc
LFE1061:
	.section	.text$_ZNKSt6vectorIP7BotDataSaIS1_EE4sizeEv,"x"
	.linkonce discard
	.align 2
	.globl	__ZNKSt6vectorIP7BotDataSaIS1_EE4sizeEv
	.def	__ZNKSt6vectorIP7BotDataSaIS1_EE4sizeEv;	.scl	2;	.type	32;	.endef
__ZNKSt6vectorIP7BotDataSaIS1_EE4sizeEv:
LFB1091:
	.file 3 "c:/program files (x86)/codeblocks/mingw/bin/../lib/gcc/mingw32/4.7.0/include/c++/bits/stl_vector.h"
	.loc 3 643 0
	.cfi_startproc
	pushl	%ebp
LCFI12:
	.cfi_def_cfa_offset 8
	.cfi_offset 5, -8
	movl	%esp, %ebp
LCFI13:
	.cfi_def_cfa_register 5
	subl	$4, %esp
	movl	%ecx, -4(%ebp)
	.loc 3 644 0
	movl	-4(%ebp), %eax
	movl	4(%eax), %eax
	movl	%eax, %edx
	movl	-4(%ebp), %eax
	movl	(%eax), %eax
	movl	%edx, %ecx
	subl	%eax, %ecx
	movl	%ecx, %eax
	sarl	$2, %eax
	leave
LCFI14:
	.cfi_restore 5
	.cfi_def_cfa 4, 4
	ret
	.cfi_endproc
LFE1091:
	.section	.text$_ZNSt6vectorIP7BotDataSaIS1_EE2atEj,"x"
	.linkonce discard
	.align 2
	.globl	__ZNSt6vectorIP7BotDataSaIS1_EE2atEj
	.def	__ZNSt6vectorIP7BotDataSaIS1_EE2atEj;	.scl	2;	.type	32;	.endef
__ZNSt6vectorIP7BotDataSaIS1_EE2atEj:
LFB1092:
	.loc 3 808 0
	.cfi_startproc
	pushl	%ebp
LCFI15:
	.cfi_def_cfa_offset 8
	.cfi_offset 5, -8
	movl	%esp, %ebp
LCFI16:
	.cfi_def_cfa_register 5
	subl	$40, %esp
	movl	%ecx, -12(%ebp)
	.loc 3 810 0
	movl	-12(%ebp), %eax
	movl	8(%ebp), %edx
	movl	%edx, (%esp)
	movl	%eax, %ecx
	call	__ZNKSt6vectorIP7BotDataSaIS1_EE14_M_range_checkEj
	subl	$4, %esp
	.loc 3 811 0
	movl	-12(%ebp), %eax
	movl	8(%ebp), %edx
	movl	%edx, (%esp)
	movl	%eax, %ecx
	call	__ZNSt6vectorIP7BotDataSaIS1_EEixEj
	subl	$4, %esp
	.loc 3 812 0
	leave
LCFI17:
	.cfi_restore 5
	.cfi_def_cfa 4, 4
	ret	$4
	.cfi_endproc
LFE1092:
	.section	.text$_ZNSt6vectorIP7BotDataSaIS1_EE9push_backERKS1_,"x"
	.linkonce discard
	.align 2
	.globl	__ZNSt6vectorIP7BotDataSaIS1_EE9push_backERKS1_
	.def	__ZNSt6vectorIP7BotDataSaIS1_EE9push_backERKS1_;	.scl	2;	.type	32;	.endef
__ZNSt6vectorIP7BotDataSaIS1_EE9push_backERKS1_:
LFB1093:
	.loc 3 899 0
	.cfi_startproc
	pushl	%ebp
LCFI18:
	.cfi_def_cfa_offset 8
	.cfi_offset 5, -8
	movl	%esp, %ebp
LCFI19:
	.cfi_def_cfa_register 5
	subl	$40, %esp
	movl	%ecx, -12(%ebp)
	.loc 3 901 0
	movl	-12(%ebp), %eax
	movl	4(%eax), %edx
	movl	-12(%ebp), %eax
	movl	8(%eax), %eax
	cmpl	%eax, %edx
	je	L13
	.loc 3 903 0
	movl	-12(%ebp), %eax
	movl	4(%eax), %edx
	movl	-12(%ebp), %eax
	movl	8(%ebp), %ecx
	movl	%ecx, 8(%esp)
	movl	%edx, 4(%esp)
	movl	%eax, (%esp)
	call	__ZNSt16allocator_traitsISaIP7BotDataEE9constructIS1_IRKS1_EEEvRS2_PT_DpOT0_
	.loc 3 905 0
	movl	-12(%ebp), %eax
	movl	4(%eax), %eax
	leal	4(%eax), %edx
	movl	-12(%ebp), %eax
	movl	%edx, 4(%eax)
	jmp	L12
L13:
	.loc 3 909 0
	movl	-12(%ebp), %eax
	movl	8(%ebp), %edx
	movl	%edx, (%esp)
	movl	%eax, %ecx
	call	__ZNSt6vectorIP7BotDataSaIS1_EE19_M_emplace_back_auxIIRKS1_EEEvDpOT_
	subl	$4, %esp
L12:
	.loc 3 913 0
	leave
LCFI20:
	.cfi_restore 5
	.cfi_def_cfa 4, 4
	ret	$4
	.cfi_endproc
LFE1093:
	.section	.text$_ZNSt12_Vector_baseIP7BotDataSaIS1_EE19_M_get_Tp_allocatorEv,"x"
	.linkonce discard
	.align 2
	.globl	__ZNSt12_Vector_baseIP7BotDataSaIS1_EE19_M_get_Tp_allocatorEv
	.def	__ZNSt12_Vector_baseIP7BotDataSaIS1_EE19_M_get_Tp_allocatorEv;	.scl	2;	.type	32;	.endef
__ZNSt12_Vector_baseIP7BotDataSaIS1_EE19_M_get_Tp_allocatorEv:
LFB1115:
	.loc 3 114 0
	.cfi_startproc
	pushl	%ebp
LCFI21:
	.cfi_def_cfa_offset 8
	.cfi_offset 5, -8
	movl	%esp, %ebp
LCFI22:
	.cfi_def_cfa_register 5
	subl	$4, %esp
	movl	%ecx, -4(%ebp)
	.loc 3 115 0
	movl	-4(%ebp), %eax
	leave
LCFI23:
	.cfi_restore 5
	.cfi_def_cfa 4, 4
	ret
	.cfi_endproc
LFE1115:
	.section	.text$_ZSt8_DestroyIPP7BotDataS1_EvT_S3_RSaIT0_E,"x"
	.linkonce discard
	.globl	__ZSt8_DestroyIPP7BotDataS1_EvT_S3_RSaIT0_E
	.def	__ZSt8_DestroyIPP7BotDataS1_EvT_S3_RSaIT0_E;	.scl	2;	.type	32;	.endef
__ZSt8_DestroyIPP7BotDataS1_EvT_S3_RSaIT0_E:
LFB1116:
	.file 4 "c:/program files (x86)/codeblocks/mingw/bin/../lib/gcc/mingw32/4.7.0/include/c++/bits/stl_construct.h"
	.loc 4 152 0
	.cfi_startproc
	pushl	%ebp
LCFI24:
	.cfi_def_cfa_offset 8
	.cfi_offset 5, -8
	movl	%esp, %ebp
LCFI25:
	.cfi_def_cfa_register 5
	subl	$24, %esp
	.loc 4 155 0
	movl	12(%ebp), %eax
	movl	%eax, 4(%esp)
	movl	8(%ebp), %eax
	movl	%eax, (%esp)
	call	__ZSt8_DestroyIPP7BotDataEvT_S3_
	.loc 4 156 0
	leave
LCFI26:
	.cfi_restore 5
	.cfi_def_cfa 4, 4
	ret
	.cfi_endproc
LFE1116:
	.section .rdata,"dr"
LC0:
	.ascii "vector::_M_range_check\0"
	.section	.text$_ZNKSt6vectorIP7BotDataSaIS1_EE14_M_range_checkEj,"x"
	.linkonce discard
	.align 2
	.globl	__ZNKSt6vectorIP7BotDataSaIS1_EE14_M_range_checkEj
	.def	__ZNKSt6vectorIP7BotDataSaIS1_EE14_M_range_checkEj;	.scl	2;	.type	32;	.endef
__ZNKSt6vectorIP7BotDataSaIS1_EE14_M_range_checkEj:
LFB1123:
	.loc 3 789 0
	.cfi_startproc
	pushl	%ebp
LCFI27:
	.cfi_def_cfa_offset 8
	.cfi_offset 5, -8
	movl	%esp, %ebp
LCFI28:
	.cfi_def_cfa_register 5
	subl	$40, %esp
	movl	%ecx, -12(%ebp)
	.loc 3 791 0
	movl	-12(%ebp), %eax
	movl	%eax, %ecx
	call	__ZNKSt6vectorIP7BotDataSaIS1_EE4sizeEv
	cmpl	8(%ebp), %eax
	setbe	%al
	testb	%al, %al
	je	L18
	.loc 3 792 0
	movl	$LC0, (%esp)
	call	__ZSt20__throw_out_of_rangePKc
L18:
	.loc 3 793 0
	leave
LCFI29:
	.cfi_restore 5
	.cfi_def_cfa 4, 4
	ret	$4
	.cfi_endproc
LFE1123:
	.section	.text$_ZNSt6vectorIP7BotDataSaIS1_EEixEj,"x"
	.linkonce discard
	.align 2
	.globl	__ZNSt6vectorIP7BotDataSaIS1_EEixEj
	.def	__ZNSt6vectorIP7BotDataSaIS1_EEixEj;	.scl	2;	.type	32;	.endef
__ZNSt6vectorIP7BotDataSaIS1_EEixEj:
LFB1124:
	.loc 3 768 0
	.cfi_startproc
	pushl	%ebp
LCFI30:
	.cfi_def_cfa_offset 8
	.cfi_offset 5, -8
	movl	%esp, %ebp
LCFI31:
	.cfi_def_cfa_register 5
	subl	$4, %esp
	movl	%ecx, -4(%ebp)
	.loc 3 769 0
	movl	-4(%ebp), %eax
	movl	(%eax), %eax
	movl	8(%ebp), %edx
	sall	$2, %edx
	addl	%edx, %eax
	leave
LCFI32:
	.cfi_restore 5
	.cfi_def_cfa 4, 4
	ret	$4
	.cfi_endproc
LFE1124:
	.section	.text$_ZSt7forwardIRKP7BotDataEOT_RNSt16remove_referenceIS4_E4typeE,"x"
	.linkonce discard
	.globl	__ZSt7forwardIRKP7BotDataEOT_RNSt16remove_referenceIS4_E4typeE
	.def	__ZSt7forwardIRKP7BotDataEOT_RNSt16remove_referenceIS4_E4typeE;	.scl	2;	.type	32;	.endef
__ZSt7forwardIRKP7BotDataEOT_RNSt16remove_referenceIS4_E4typeE:
LFB1126:
	.file 5 "c:/program files (x86)/codeblocks/mingw/bin/../lib/gcc/mingw32/4.7.0/include/c++/bits/move.h"
	.loc 5 77 0
	.cfi_startproc
	pushl	%ebp
LCFI33:
	.cfi_def_cfa_offset 8
	.cfi_offset 5, -8
	movl	%esp, %ebp
LCFI34:
	.cfi_def_cfa_register 5
	.loc 5 78 0
	movl	8(%ebp), %eax
	popl	%ebp
LCFI35:
	.cfi_restore 5
	.cfi_def_cfa 4, 4
	ret
	.cfi_endproc
LFE1126:
	.section	.text$_ZNSt16allocator_traitsISaIP7BotDataEE9constructIS1_IRKS1_EEEvRS2_PT_DpOT0_,"x"
	.linkonce discard
	.globl	__ZNSt16allocator_traitsISaIP7BotDataEE9constructIS1_IRKS1_EEEvRS2_PT_DpOT0_
	.def	__ZNSt16allocator_traitsISaIP7BotDataEE9constructIS1_IRKS1_EEEvRS2_PT_DpOT0_;	.scl	2;	.type	32;	.endef
__ZNSt16allocator_traitsISaIP7BotDataEE9constructIS1_IRKS1_EEEvRS2_PT_DpOT0_:
LFB1125:
	.file 6 "c:/program files (x86)/codeblocks/mingw/bin/../lib/gcc/mingw32/4.7.0/include/c++/bits/alloc_traits.h"
	.loc 6 386 0
	.cfi_startproc
	pushl	%ebp
LCFI36:
	.cfi_def_cfa_offset 8
	.cfi_offset 5, -8
	movl	%esp, %ebp
LCFI37:
	.cfi_def_cfa_register 5
	subl	$24, %esp
	.loc 6 387 0
	movl	16(%ebp), %eax
	movl	%eax, (%esp)
	call	__ZSt7forwardIRKP7BotDataEOT_RNSt16remove_referenceIS4_E4typeE
	movl	%eax, 8(%esp)
	movl	12(%ebp), %eax
	movl	%eax, 4(%esp)
	movl	8(%ebp), %eax
	movl	%eax, (%esp)
	call	__ZNSt16allocator_traitsISaIP7BotDataEE12_S_constructIS1_IRKS1_EEENSt9enable_ifIXsrNS3_18__construct_helperIT_IDpT0_EEE5valueEvE4typeERS2_PS9_DpOSA_
	leave
LCFI38:
	.cfi_restore 5
	.cfi_def_cfa 4, 4
	ret
	.cfi_endproc
LFE1125:
	.weak	__ZNSt16allocator_traitsISaIP7BotDataEE9constructIS1_JRKS1_EEEvRS2_PT_DpOT0_
	.def	__ZNSt16allocator_traitsISaIP7BotDataEE9constructIS1_JRKS1_EEEvRS2_PT_DpOT0_;	.scl	2;	.type	32;	.endef
	.set	__ZNSt16allocator_traitsISaIP7BotDataEE9constructIS1_JRKS1_EEEvRS2_PT_DpOT0_,__ZNSt16allocator_traitsISaIP7BotDataEE9constructIS1_IRKS1_EEEvRS2_PT_DpOT0_
	.section .rdata,"dr"
LC1:
	.ascii "vector::_M_emplace_back_aux\0"
	.section	.text$_ZNSt6vectorIP7BotDataSaIS1_EE19_M_emplace_back_auxIIRKS1_EEEvDpOT_,"x"
	.linkonce discard
	.align 2
	.globl	__ZNSt6vectorIP7BotDataSaIS1_EE19_M_emplace_back_auxIIRKS1_EEEvDpOT_
	.def	__ZNSt6vectorIP7BotDataSaIS1_EE19_M_emplace_back_auxIIRKS1_EEEvDpOT_;	.scl	2;	.type	32;	.endef
__ZNSt6vectorIP7BotDataSaIS1_EE19_M_emplace_back_auxIIRKS1_EEEvDpOT_:
LFB1127:
	.file 7 "c:/program files (x86)/codeblocks/mingw/bin/../lib/gcc/mingw32/4.7.0/include/c++/bits/vector.tcc"
	.loc 7 397 0
	.cfi_startproc
	.cfi_personality 0,___gxx_personality_v0
	.cfi_lsda 0,LLSDA1127
	pushl	%ebp
LCFI39:
	.cfi_def_cfa_offset 8
	.cfi_offset 5, -8
	movl	%esp, %ebp
LCFI40:
	.cfi_def_cfa_register 5
	pushl	%ebx
	subl	$52, %esp
	.cfi_offset 3, -12
	movl	%ecx, -28(%ebp)
LBB2:
	.loc 7 401 0
	movl	-28(%ebp), %eax
	movl	$LC1, 4(%esp)
	movl	$1, (%esp)
	movl	%eax, %ecx
LEHB0:
	call	__ZNKSt6vectorIP7BotDataSaIS1_EE12_M_check_lenEjPKc
	subl	$8, %esp
	movl	%eax, -16(%ebp)
	.loc 7 402 0
	movl	-28(%ebp), %eax
	movl	-16(%ebp), %edx
	movl	%edx, (%esp)
	movl	%eax, %ecx
	call	__ZNSt12_Vector_baseIP7BotDataSaIS1_EE11_M_allocateEj
LEHE0:
	subl	$4, %esp
	movl	%eax, -20(%ebp)
	.loc 7 403 0
	movl	-20(%ebp), %eax
	movl	%eax, -12(%ebp)
	.loc 7 406 0
	movl	8(%ebp), %eax
	movl	%eax, (%esp)
	call	__ZSt7forwardIRKP7BotDataEOT_RNSt16remove_referenceIS4_E4typeE
	movl	%eax, %ebx
	movl	-28(%ebp), %eax
	movl	%eax, %ecx
	call	__ZNKSt6vectorIP7BotDataSaIS1_EE4sizeEv
	leal	0(,%eax,4), %edx
	movl	-20(%ebp), %eax
	addl	%eax, %edx
	movl	-28(%ebp), %eax
	movl	%ebx, 8(%esp)
	movl	%edx, 4(%esp)
	movl	%eax, (%esp)
LEHB1:
	call	__ZNSt16allocator_traitsISaIP7BotDataEE9constructIS1_IRKS1_EEEvRS2_PT_DpOT0_
	.loc 7 408 0
	movl	$0, -12(%ebp)
	.loc 7 410 0
	movl	-28(%ebp), %eax
	movl	%eax, %ecx
	call	__ZNSt12_Vector_baseIP7BotDataSaIS1_EE19_M_get_Tp_allocatorEv
	movl	-28(%ebp), %edx
	movl	4(%edx), %ecx
	movl	-28(%ebp), %edx
	movl	(%edx), %edx
	movl	%eax, 12(%esp)
	movl	-20(%ebp), %eax
	movl	%eax, 8(%esp)
	movl	%ecx, 4(%esp)
	movl	%edx, (%esp)
	call	__ZSt34__uninitialized_move_if_noexcept_aIPP7BotDataS2_SaIS1_EET0_T_S5_S4_RT1_
LEHE1:
	movl	%eax, -12(%ebp)
	.loc 7 415 0
	addl	$4, -12(%ebp)
	.loc 7 426 0
	movl	-28(%ebp), %eax
	movl	%eax, %ecx
	call	__ZNSt12_Vector_baseIP7BotDataSaIS1_EE19_M_get_Tp_allocatorEv
	movl	-28(%ebp), %edx
	movl	4(%edx), %ecx
	movl	-28(%ebp), %edx
	movl	(%edx), %edx
	movl	%eax, 8(%esp)
	movl	%ecx, 4(%esp)
	movl	%edx, (%esp)
LEHB2:
	call	__ZSt8_DestroyIPP7BotDataS1_EvT_S3_RSaIT0_E
	.loc 7 428 0
	movl	-28(%ebp), %eax
	movl	8(%eax), %eax
	movl	%eax, %edx
	movl	-28(%ebp), %eax
	movl	(%eax), %eax
	movl	%edx, %ecx
	subl	%eax, %ecx
	movl	%ecx, %eax
	sarl	$2, %eax
	movl	%eax, %ecx
	movl	-28(%ebp), %eax
	movl	(%eax), %edx
	movl	-28(%ebp), %eax
	movl	%ecx, 4(%esp)
	movl	%edx, (%esp)
	movl	%eax, %ecx
	call	__ZNSt12_Vector_baseIP7BotDataSaIS1_EE13_M_deallocateEPS1_j
LEHE2:
	subl	$8, %esp
	.loc 7 431 0
	movl	-28(%ebp), %eax
	movl	-20(%ebp), %edx
	movl	%edx, (%eax)
	.loc 7 432 0
	movl	-28(%ebp), %eax
	movl	-12(%ebp), %edx
	movl	%edx, 4(%eax)
	.loc 7 433 0
	movl	-16(%ebp), %eax
	leal	0(,%eax,4), %edx
	movl	-20(%ebp), %eax
	addl	%eax, %edx
	movl	-28(%ebp), %eax
	movl	%edx, 8(%eax)
	jmp	L32
L31:
	movl	%eax, %ebx
	.loc 7 417 0
	call	___cxa_end_catch
	movl	%ebx, %eax
	movl	%eax, (%esp)
LEHB3:
	call	__Unwind_Resume
LEHE3:
L30:
	movl	%eax, (%esp)
	call	___cxa_begin_catch
	.loc 7 419 0
	cmpl	$0, -12(%ebp)
	jne	L28
	.loc 7 420 0
	movl	-28(%ebp), %eax
	movl	%eax, %ecx
	call	__ZNKSt6vectorIP7BotDataSaIS1_EE4sizeEv
	leal	0(,%eax,4), %edx
	movl	-20(%ebp), %eax
	addl	%eax, %edx
	movl	-28(%ebp), %eax
	movl	%edx, 4(%esp)
	movl	%eax, (%esp)
LEHB4:
	call	__ZNSt16allocator_traitsISaIP7BotDataEE7destroyIS1_EEvRS2_PT_
	jmp	L29
L28:
	.loc 7 422 0
	movl	-28(%ebp), %eax
	movl	%eax, %ecx
	call	__ZNSt12_Vector_baseIP7BotDataSaIS1_EE19_M_get_Tp_allocatorEv
	movl	%eax, 8(%esp)
	movl	-12(%ebp), %eax
	movl	%eax, 4(%esp)
	movl	-20(%ebp), %eax
	movl	%eax, (%esp)
	call	__ZSt8_DestroyIPP7BotDataS1_EvT_S3_RSaIT0_E
L29:
	.loc 7 423 0
	movl	-28(%ebp), %eax
	movl	-16(%ebp), %edx
	movl	%edx, 4(%esp)
	movl	-20(%ebp), %edx
	movl	%edx, (%esp)
	movl	%eax, %ecx
	call	__ZNSt12_Vector_baseIP7BotDataSaIS1_EE13_M_deallocateEPS1_j
	subl	$8, %esp
	.loc 7 424 0
	call	___cxa_rethrow
LEHE4:
L32:
LBE2:
	.loc 7 434 0
	movl	-4(%ebp), %ebx
	leave
LCFI41:
	.cfi_restore 5
	.cfi_restore 3
	.cfi_def_cfa 4, 4
	ret	$4
	.cfi_endproc
LFE1127:
	.def	___gxx_personality_v0;	.scl	2;	.type	32;	.endef
	.section	.gcc_except_table,"w"
	.align 4
LLSDA1127:
	.byte	0xff
	.byte	0
	.uleb128 LLSDATT1127-LLSDATTD1127
LLSDATTD1127:
	.byte	0x1
	.uleb128 LLSDACSE1127-LLSDACSB1127
LLSDACSB1127:
	.uleb128 LEHB0-LFB1127
	.uleb128 LEHE0-LEHB0
	.uleb128 0
	.uleb128 0
	.uleb128 LEHB1-LFB1127
	.uleb128 LEHE1-LEHB1
	.uleb128 L30-LFB1127
	.uleb128 0x1
	.uleb128 LEHB2-LFB1127
	.uleb128 LEHE2-LEHB2
	.uleb128 0
	.uleb128 0
	.uleb128 LEHB3-LFB1127
	.uleb128 LEHE3-LEHB3
	.uleb128 0
	.uleb128 0
	.uleb128 LEHB4-LFB1127
	.uleb128 LEHE4-LEHB4
	.uleb128 L31-LFB1127
	.uleb128 0
LLSDACSE1127:
	.byte	0x1
	.byte	0
	.align 4
	.long	0
LLSDATT1127:
	.section	.text$_ZNSt6vectorIP7BotDataSaIS1_EE19_M_emplace_back_auxIIRKS1_EEEvDpOT_,"x"
	.linkonce discard
	.weak	__ZNSt6vectorIP7BotDataSaIS1_EE19_M_emplace_back_auxIJRKS1_EEEvDpOT_
	.def	__ZNSt6vectorIP7BotDataSaIS1_EE19_M_emplace_back_auxIJRKS1_EEEvDpOT_;	.scl	2;	.type	32;	.endef
	.set	__ZNSt6vectorIP7BotDataSaIS1_EE19_M_emplace_back_auxIJRKS1_EEEvDpOT_,__ZNSt6vectorIP7BotDataSaIS1_EE19_M_emplace_back_auxIIRKS1_EEEvDpOT_
	.section	.text$_ZNSt12_Vector_baseIP7BotDataSaIS1_EE13_M_deallocateEPS1_j,"x"
	.linkonce discard
	.align 2
	.globl	__ZNSt12_Vector_baseIP7BotDataSaIS1_EE13_M_deallocateEPS1_j
	.def	__ZNSt12_Vector_baseIP7BotDataSaIS1_EE13_M_deallocateEPS1_j;	.scl	2;	.type	32;	.endef
__ZNSt12_Vector_baseIP7BotDataSaIS1_EE13_M_deallocateEPS1_j:
LFB1139:
	.loc 3 172 0
	.cfi_startproc
	pushl	%ebp
LCFI42:
	.cfi_def_cfa_offset 8
	.cfi_offset 5, -8
	movl	%esp, %ebp
LCFI43:
	.cfi_def_cfa_register 5
	subl	$40, %esp
	movl	%ecx, -12(%ebp)
	.loc 3 174 0
	cmpl	$0, 8(%ebp)
	je	L33
	.loc 3 175 0
	movl	-12(%ebp), %eax
	movl	12(%ebp), %edx
	movl	%edx, 4(%esp)
	movl	8(%ebp), %edx
	movl	%edx, (%esp)
	movl	%eax, %ecx
	call	__ZN9__gnu_cxx13new_allocatorIP7BotDataE10deallocateEPS2_j
	subl	$8, %esp
L33:
	.loc 3 176 0
	leave
LCFI44:
	.cfi_restore 5
	.cfi_def_cfa 4, 4
	ret	$8
	.cfi_endproc
LFE1139:
	.section	.text$_ZSt8_DestroyIPP7BotDataEvT_S3_,"x"
	.linkonce discard
	.globl	__ZSt8_DestroyIPP7BotDataEvT_S3_
	.def	__ZSt8_DestroyIPP7BotDataEvT_S3_;	.scl	2;	.type	32;	.endef
__ZSt8_DestroyIPP7BotDataEvT_S3_:
LFB1140:
	.loc 4 124 0
	.cfi_startproc
	pushl	%ebp
LCFI45:
	.cfi_def_cfa_offset 8
	.cfi_offset 5, -8
	movl	%esp, %ebp
LCFI46:
	.cfi_def_cfa_register 5
	subl	$24, %esp
LBB3:
	.loc 4 128 0
	movl	12(%ebp), %eax
	movl	%eax, 4(%esp)
	movl	8(%ebp), %eax
	movl	%eax, (%esp)
	call	__ZNSt12_Destroy_auxILb1EE9__destroyIPP7BotDataEEvT_S5_
LBE3:
	.loc 4 130 0
	leave
LCFI47:
	.cfi_restore 5
	.cfi_def_cfa 4, 4
	ret
	.cfi_endproc
LFE1140:
	.section	.text$_ZNSt16allocator_traitsISaIP7BotDataEE12_S_constructIS1_IRKS1_EEENSt9enable_ifIXsrNS3_18__construct_helperIT_IDpT0_EEE5valueEvE4typeERS2_PS9_DpOSA_,"x"
	.linkonce discard
	.globl	__ZNSt16allocator_traitsISaIP7BotDataEE12_S_constructIS1_IRKS1_EEENSt9enable_ifIXsrNS3_18__construct_helperIT_IDpT0_EEE5valueEvE4typeERS2_PS9_DpOSA_
	.def	__ZNSt16allocator_traitsISaIP7BotDataEE12_S_constructIS1_IRKS1_EEENSt9enable_ifIXsrNS3_18__construct_helperIT_IDpT0_EEE5valueEvE4typeERS2_PS9_DpOSA_;	.scl	2;	.type	32;	.endef
__ZNSt16allocator_traitsISaIP7BotDataEE12_S_constructIS1_IRKS1_EEENSt9enable_ifIXsrNS3_18__construct_helperIT_IDpT0_EEE5valueEvE4typeERS2_PS9_DpOSA_:
LFB1141:
	.loc 6 249 0
	.cfi_startproc
	pushl	%ebp
LCFI48:
	.cfi_def_cfa_offset 8
	.cfi_offset 5, -8
	movl	%esp, %ebp
LCFI49:
	.cfi_def_cfa_register 5
	subl	$24, %esp
	.loc 6 250 0
	movl	16(%ebp), %eax
	movl	%eax, (%esp)
	call	__ZSt7forwardIRKP7BotDataEOT_RNSt16remove_referenceIS4_E4typeE
	movl	%eax, 4(%esp)
	movl	12(%ebp), %eax
	movl	%eax, (%esp)
	movl	8(%ebp), %ecx
	call	__ZN9__gnu_cxx13new_allocatorIP7BotDataE9constructIS2_IRKS2_EEEvPT_DpOT0_
	subl	$8, %esp
	leave
LCFI50:
	.cfi_restore 5
	.cfi_def_cfa 4, 4
	ret
	.cfi_endproc
LFE1141:
	.weak	__ZNSt16allocator_traitsISaIP7BotDataEE12_S_constructIS1_JRKS1_EEENSt9enable_ifIXsrNS3_18__construct_helperIT_JDpT0_EEE5valueEvE4typeERS2_PS9_DpOSA_
	.def	__ZNSt16allocator_traitsISaIP7BotDataEE12_S_constructIS1_JRKS1_EEENSt9enable_ifIXsrNS3_18__construct_helperIT_JDpT0_EEE5valueEvE4typeERS2_PS9_DpOSA_;	.scl	2;	.type	32;	.endef
	.set	__ZNSt16allocator_traitsISaIP7BotDataEE12_S_constructIS1_JRKS1_EEENSt9enable_ifIXsrNS3_18__construct_helperIT_JDpT0_EEE5valueEvE4typeERS2_PS9_DpOSA_,__ZNSt16allocator_traitsISaIP7BotDataEE12_S_constructIS1_IRKS1_EEENSt9enable_ifIXsrNS3_18__construct_helperIT_IDpT0_EEE5valueEvE4typeERS2_PS9_DpOSA_
	.section	.text$_ZNKSt6vectorIP7BotDataSaIS1_EE12_M_check_lenEjPKc,"x"
	.linkonce discard
	.align 2
	.globl	__ZNKSt6vectorIP7BotDataSaIS1_EE12_M_check_lenEjPKc
	.def	__ZNKSt6vectorIP7BotDataSaIS1_EE12_M_check_lenEjPKc;	.scl	2;	.type	32;	.endef
__ZNKSt6vectorIP7BotDataSaIS1_EE12_M_check_lenEjPKc:
LFB1142:
	.loc 3 1321 0
	.cfi_startproc
	pushl	%ebp
LCFI51:
	.cfi_def_cfa_offset 8
	.cfi_offset 5, -8
	movl	%esp, %ebp
LCFI52:
	.cfi_def_cfa_register 5
	pushl	%ebx
	subl	$52, %esp
	.cfi_offset 3, -12
	movl	%ecx, -28(%ebp)
LBB4:
	.loc 3 1323 0
	movl	-28(%ebp), %eax
	movl	%eax, %ecx
	call	__ZNKSt6vectorIP7BotDataSaIS1_EE8max_sizeEv
	movl	%eax, %ebx
	movl	-28(%ebp), %eax
	movl	%eax, %ecx
	call	__ZNKSt6vectorIP7BotDataSaIS1_EE4sizeEv
	movl	%ebx, %edx
	subl	%eax, %edx
	movl	8(%ebp), %eax
	cmpl	%eax, %edx
	setb	%al
	testb	%al, %al
	je	L38
	.loc 3 1324 0
	movl	12(%ebp), %eax
	movl	%eax, (%esp)
	call	__ZSt20__throw_length_errorPKc
L38:
	.loc 3 1326 0
	movl	-28(%ebp), %eax
	movl	%eax, %ecx
	call	__ZNKSt6vectorIP7BotDataSaIS1_EE4sizeEv
	movl	%eax, %ebx
	movl	-28(%ebp), %eax
	movl	%eax, %ecx
	call	__ZNKSt6vectorIP7BotDataSaIS1_EE4sizeEv
	movl	%eax, -16(%ebp)
	leal	8(%ebp), %eax
	movl	%eax, 4(%esp)
	leal	-16(%ebp), %eax
	movl	%eax, (%esp)
	call	__ZSt3maxIjERKT_S2_S2_
	movl	(%eax), %eax
	addl	%ebx, %eax
	movl	%eax, -12(%ebp)
	.loc 3 1327 0
	movl	-28(%ebp), %eax
	movl	%eax, %ecx
	call	__ZNKSt6vectorIP7BotDataSaIS1_EE4sizeEv
	cmpl	-12(%ebp), %eax
	ja	L39
	.loc 3 1327 0 is_stmt 0 discriminator 2
	movl	-28(%ebp), %eax
	movl	%eax, %ecx
	call	__ZNKSt6vectorIP7BotDataSaIS1_EE8max_sizeEv
	cmpl	-12(%ebp), %eax
	jae	L40
L39:
	.loc 3 1327 0 discriminator 1
	movl	-28(%ebp), %eax
	movl	%eax, %ecx
	call	__ZNKSt6vectorIP7BotDataSaIS1_EE8max_sizeEv
	jmp	L41
L40:
	.loc 3 1327 0 discriminator 3
	movl	-12(%ebp), %eax
L41:
LBE4:
	.loc 3 1328 0 is_stmt 1 discriminator 4
	addl	$52, %esp
	popl	%ebx
	.cfi_restore 3
	popl	%ebp
LCFI53:
	.cfi_restore 5
	.cfi_def_cfa 4, 4
	ret	$8
	.cfi_endproc
LFE1142:
	.section	.text$_ZNSt12_Vector_baseIP7BotDataSaIS1_EE11_M_allocateEj,"x"
	.linkonce discard
	.align 2
	.globl	__ZNSt12_Vector_baseIP7BotDataSaIS1_EE11_M_allocateEj
	.def	__ZNSt12_Vector_baseIP7BotDataSaIS1_EE11_M_allocateEj;	.scl	2;	.type	32;	.endef
__ZNSt12_Vector_baseIP7BotDataSaIS1_EE11_M_allocateEj:
LFB1143:
	.loc 3 168 0
	.cfi_startproc
	pushl	%ebp
LCFI54:
	.cfi_def_cfa_offset 8
	.cfi_offset 5, -8
	movl	%esp, %ebp
LCFI55:
	.cfi_def_cfa_register 5
	subl	$40, %esp
	movl	%ecx, -12(%ebp)
	.loc 3 169 0
	cmpl	$0, 8(%ebp)
	je	L44
	.loc 3 169 0 is_stmt 0 discriminator 1
	movl	-12(%ebp), %eax
	movl	$0, 4(%esp)
	movl	8(%ebp), %edx
	movl	%edx, (%esp)
	movl	%eax, %ecx
	call	__ZN9__gnu_cxx13new_allocatorIP7BotDataE8allocateEjPKv
	subl	$8, %esp
	jmp	L45
L44:
	.loc 3 169 0 discriminator 2
	movl	$0, %eax
L45:
	.loc 3 169 0 discriminator 3
	leave
LCFI56:
	.cfi_restore 5
	.cfi_def_cfa 4, 4
	ret	$4
	.cfi_endproc
LFE1143:
	.section	.text$_ZSt34__uninitialized_move_if_noexcept_aIPP7BotDataS2_SaIS1_EET0_T_S5_S4_RT1_,"x"
	.linkonce discard
	.globl	__ZSt34__uninitialized_move_if_noexcept_aIPP7BotDataS2_SaIS1_EET0_T_S5_S4_RT1_
	.def	__ZSt34__uninitialized_move_if_noexcept_aIPP7BotDataS2_SaIS1_EET0_T_S5_S4_RT1_;	.scl	2;	.type	32;	.endef
__ZSt34__uninitialized_move_if_noexcept_aIPP7BotDataS2_SaIS1_EET0_T_S5_S4_RT1_:
LFB1144:
	.file 8 "c:/program files (x86)/codeblocks/mingw/bin/../lib/gcc/mingw32/4.7.0/include/c++/bits/stl_uninitialized.h"
	.loc 8 276 0 is_stmt 1
	.cfi_startproc
	pushl	%ebp
LCFI57:
	.cfi_def_cfa_offset 8
	.cfi_offset 5, -8
	movl	%esp, %ebp
LCFI58:
	.cfi_def_cfa_register 5
	pushl	%ebx
	subl	$20, %esp
	.cfi_offset 3, -12
	.loc 8 283 0
	movl	12(%ebp), %eax
	movl	%eax, (%esp)
	call	__ZSt32__make_move_if_noexcept_iteratorIPP7BotDataSt13move_iteratorIS2_EET0_T_
	movl	%eax, %ebx
	movl	8(%ebp), %eax
	movl	%eax, (%esp)
	call	__ZSt32__make_move_if_noexcept_iteratorIPP7BotDataSt13move_iteratorIS2_EET0_T_
	movl	20(%ebp), %edx
	movl	%edx, 12(%esp)
	movl	16(%ebp), %edx
	movl	%edx, 8(%esp)
	movl	%ebx, 4(%esp)
	movl	%eax, (%esp)
	call	__ZSt22__uninitialized_copy_aISt13move_iteratorIPP7BotDataES3_S2_ET0_T_S6_S5_RSaIT1_E
	.loc 8 284 0
	addl	$20, %esp
	popl	%ebx
	.cfi_restore 3
	popl	%ebp
LCFI59:
	.cfi_restore 5
	.cfi_def_cfa 4, 4
	ret
	.cfi_endproc
LFE1144:
	.section	.text$_ZNSt16allocator_traitsISaIP7BotDataEE7destroyIS1_EEvRS2_PT_,"x"
	.linkonce discard
	.globl	__ZNSt16allocator_traitsISaIP7BotDataEE7destroyIS1_EEvRS2_PT_
	.def	__ZNSt16allocator_traitsISaIP7BotDataEE7destroyIS1_EEvRS2_PT_;	.scl	2;	.type	32;	.endef
__ZNSt16allocator_traitsISaIP7BotDataEE7destroyIS1_EEvRS2_PT_:
LFB1145:
	.loc 6 398 0
	.cfi_startproc
	pushl	%ebp
LCFI60:
	.cfi_def_cfa_offset 8
	.cfi_offset 5, -8
	movl	%esp, %ebp
LCFI61:
	.cfi_def_cfa_register 5
	subl	$24, %esp
	.loc 6 399 0
	movl	12(%ebp), %eax
	movl	%eax, 4(%esp)
	movl	8(%ebp), %eax
	movl	%eax, (%esp)
	call	__ZNSt16allocator_traitsISaIP7BotDataEE10_S_destroyIS1_EENSt9enable_ifIXsrNS3_16__destroy_helperIT_EE5valueEvE4typeERS2_PS7_
	leave
LCFI62:
	.cfi_restore 5
	.cfi_def_cfa 4, 4
	ret
	.cfi_endproc
LFE1145:
	.section	.text$_ZN9__gnu_cxx13new_allocatorIP7BotDataE10deallocateEPS2_j,"x"
	.linkonce discard
	.align 2
	.globl	__ZN9__gnu_cxx13new_allocatorIP7BotDataE10deallocateEPS2_j
	.def	__ZN9__gnu_cxx13new_allocatorIP7BotDataE10deallocateEPS2_j;	.scl	2;	.type	32;	.endef
__ZN9__gnu_cxx13new_allocatorIP7BotDataE10deallocateEPS2_j:
LFB1155:
	.file 9 "c:/program files (x86)/codeblocks/mingw/bin/../lib/gcc/mingw32/4.7.0/include/c++/ext/new_allocator.h"
	.loc 9 99 0
	.cfi_startproc
	pushl	%ebp
LCFI63:
	.cfi_def_cfa_offset 8
	.cfi_offset 5, -8
	movl	%esp, %ebp
LCFI64:
	.cfi_def_cfa_register 5
	subl	$40, %esp
	movl	%ecx, -12(%ebp)
	.loc 9 100 0
	movl	8(%ebp), %eax
	movl	%eax, (%esp)
	call	__ZdlPv
	leave
LCFI65:
	.cfi_restore 5
	.cfi_def_cfa 4, 4
	ret	$8
	.cfi_endproc
LFE1155:
	.section	.text$_ZNSt12_Destroy_auxILb1EE9__destroyIPP7BotDataEEvT_S5_,"x"
	.linkonce discard
	.globl	__ZNSt12_Destroy_auxILb1EE9__destroyIPP7BotDataEEvT_S5_
	.def	__ZNSt12_Destroy_auxILb1EE9__destroyIPP7BotDataEEvT_S5_;	.scl	2;	.type	32;	.endef
__ZNSt12_Destroy_auxILb1EE9__destroyIPP7BotDataEEvT_S5_:
LFB1156:
	.loc 4 114 0
	.cfi_startproc
	pushl	%ebp
LCFI66:
	.cfi_def_cfa_offset 8
	.cfi_offset 5, -8
	movl	%esp, %ebp
LCFI67:
	.cfi_def_cfa_register 5
	.loc 4 114 0
	popl	%ebp
LCFI68:
	.cfi_restore 5
	.cfi_def_cfa 4, 4
	ret
	.cfi_endproc
LFE1156:
	.section	.text$_ZN9__gnu_cxx13new_allocatorIP7BotDataE9constructIS2_IRKS2_EEEvPT_DpOT0_,"x"
	.linkonce discard
	.align 2
	.globl	__ZN9__gnu_cxx13new_allocatorIP7BotDataE9constructIS2_IRKS2_EEEvPT_DpOT0_
	.def	__ZN9__gnu_cxx13new_allocatorIP7BotDataE9constructIS2_IRKS2_EEEvPT_DpOT0_;	.scl	2;	.type	32;	.endef
__ZN9__gnu_cxx13new_allocatorIP7BotDataE9constructIS2_IRKS2_EEEvPT_DpOT0_:
LFB1157:
	.loc 9 109 0
	.cfi_startproc
	pushl	%ebp
LCFI69:
	.cfi_def_cfa_offset 8
	.cfi_offset 5, -8
	movl	%esp, %ebp
LCFI70:
	.cfi_def_cfa_register 5
	pushl	%ebx
	subl	$12, %esp
	.cfi_offset 3, -12
	movl	%ecx, -8(%ebp)
	.loc 9 110 0
	movl	12(%ebp), %eax
	movl	%eax, (%esp)
	call	__ZSt7forwardIRKP7BotDataEOT_RNSt16remove_referenceIS4_E4typeE
	movl	(%eax), %ebx
	movl	8(%ebp), %eax
	movl	%eax, 4(%esp)
	movl	$4, (%esp)
	call	__ZnwjPv
	testl	%eax, %eax
	je	L52
	.loc 9 110 0 is_stmt 0 discriminator 1
	movl	%ebx, (%eax)
L52:
	.loc 9 110 0
	addl	$12, %esp
	popl	%ebx
	.cfi_restore 3
	popl	%ebp
LCFI71:
	.cfi_restore 5
	.cfi_def_cfa 4, 4
	ret	$8
	.cfi_endproc
LFE1157:
	.weak	__ZN9__gnu_cxx13new_allocatorIP7BotDataE9constructIS2_JRKS2_EEEvPT_DpOT0_
	.def	__ZN9__gnu_cxx13new_allocatorIP7BotDataE9constructIS2_JRKS2_EEEvPT_DpOT0_;	.scl	2;	.type	32;	.endef
	.set	__ZN9__gnu_cxx13new_allocatorIP7BotDataE9constructIS2_JRKS2_EEEvPT_DpOT0_,__ZN9__gnu_cxx13new_allocatorIP7BotDataE9constructIS2_IRKS2_EEEvPT_DpOT0_
	.section	.text$_ZNKSt6vectorIP7BotDataSaIS1_EE8max_sizeEv,"x"
	.linkonce discard
	.align 2
	.globl	__ZNKSt6vectorIP7BotDataSaIS1_EE8max_sizeEv
	.def	__ZNKSt6vectorIP7BotDataSaIS1_EE8max_sizeEv;	.scl	2;	.type	32;	.endef
__ZNKSt6vectorIP7BotDataSaIS1_EE8max_sizeEv:
LFB1158:
	.loc 3 648 0 is_stmt 1
	.cfi_startproc
	.cfi_personality 0,___gxx_personality_v0
	.cfi_lsda 0,LLSDA1158
	pushl	%ebp
LCFI72:
	.cfi_def_cfa_offset 8
	.cfi_offset 5, -8
	movl	%esp, %ebp
LCFI73:
	.cfi_def_cfa_register 5
	subl	$40, %esp
	movl	%ecx, -12(%ebp)
	.loc 3 649 0
	movl	-12(%ebp), %eax
	movl	%eax, %ecx
	call	__ZNKSt12_Vector_baseIP7BotDataSaIS1_EE19_M_get_Tp_allocatorEv
	movl	%eax, (%esp)
	call	__ZNSt16allocator_traitsISaIP7BotDataEE8max_sizeERKS2_
	leave
LCFI74:
	.cfi_restore 5
	.cfi_def_cfa 4, 4
	ret
	.cfi_endproc
LFE1158:
	.section	.gcc_except_table,"w"
LLSDA1158:
	.byte	0xff
	.byte	0xff
	.byte	0x1
	.uleb128 LLSDACSE1158-LLSDACSB1158
LLSDACSB1158:
LLSDACSE1158:
	.section	.text$_ZNKSt6vectorIP7BotDataSaIS1_EE8max_sizeEv,"x"
	.linkonce discard
	.section	.text$_ZSt3maxIjERKT_S2_S2_,"x"
	.linkonce discard
	.globl	__ZSt3maxIjERKT_S2_S2_
	.def	__ZSt3maxIjERKT_S2_S2_;	.scl	2;	.type	32;	.endef
__ZSt3maxIjERKT_S2_S2_:
LFB1159:
	.file 10 "c:/program files (x86)/codeblocks/mingw/bin/../lib/gcc/mingw32/4.7.0/include/c++/bits/stl_algobase.h"
	.loc 10 210 0
	.cfi_startproc
	pushl	%ebp
LCFI75:
	.cfi_def_cfa_offset 8
	.cfi_offset 5, -8
	movl	%esp, %ebp
LCFI76:
	.cfi_def_cfa_register 5
	.loc 10 215 0
	movl	8(%ebp), %eax
	movl	(%eax), %edx
	movl	12(%ebp), %eax
	movl	(%eax), %eax
	cmpl	%eax, %edx
	jae	L58
	.loc 10 216 0
	movl	12(%ebp), %eax
	jmp	L59
L58:
	.loc 10 217 0
	movl	8(%ebp), %eax
L59:
	.loc 10 218 0
	popl	%ebp
LCFI77:
	.cfi_restore 5
	.cfi_def_cfa 4, 4
	ret
	.cfi_endproc
LFE1159:
	.section	.text$_ZN9__gnu_cxx13new_allocatorIP7BotDataE8allocateEjPKv,"x"
	.linkonce discard
	.align 2
	.globl	__ZN9__gnu_cxx13new_allocatorIP7BotDataE8allocateEjPKv
	.def	__ZN9__gnu_cxx13new_allocatorIP7BotDataE8allocateEjPKv;	.scl	2;	.type	32;	.endef
__ZN9__gnu_cxx13new_allocatorIP7BotDataE8allocateEjPKv:
LFB1160:
	.loc 9 89 0
	.cfi_startproc
	pushl	%ebp
LCFI78:
	.cfi_def_cfa_offset 8
	.cfi_offset 5, -8
	movl	%esp, %ebp
LCFI79:
	.cfi_def_cfa_register 5
	subl	$40, %esp
	movl	%ecx, -12(%ebp)
	.loc 9 91 0
	movl	-12(%ebp), %eax
	movl	%eax, %ecx
	call	__ZNK9__gnu_cxx13new_allocatorIP7BotDataE8max_sizeEv
	cmpl	8(%ebp), %eax
	setb	%al
	testb	%al, %al
	je	L61
	.loc 9 92 0
	call	__ZSt17__throw_bad_allocv
L61:
	.loc 9 94 0
	movl	8(%ebp), %eax
	sall	$2, %eax
	movl	%eax, (%esp)
	call	__Znwj
	.loc 9 95 0
	leave
LCFI80:
	.cfi_restore 5
	.cfi_def_cfa 4, 4
	ret	$8
	.cfi_endproc
LFE1160:
	.section	.text$_ZSt32__make_move_if_noexcept_iteratorIPP7BotDataSt13move_iteratorIS2_EET0_T_,"x"
	.linkonce discard
	.globl	__ZSt32__make_move_if_noexcept_iteratorIPP7BotDataSt13move_iteratorIS2_EET0_T_
	.def	__ZSt32__make_move_if_noexcept_iteratorIPP7BotDataSt13move_iteratorIS2_EET0_T_;	.scl	2;	.type	32;	.endef
__ZSt32__make_move_if_noexcept_iteratorIPP7BotDataSt13move_iteratorIS2_EET0_T_:
LFB1161:
	.file 11 "c:/program files (x86)/codeblocks/mingw/bin/../lib/gcc/mingw32/4.7.0/include/c++/bits/stl_iterator.h"
	.loc 11 1134 0
	.cfi_startproc
	pushl	%ebp
LCFI81:
	.cfi_def_cfa_offset 8
	.cfi_offset 5, -8
	movl	%esp, %ebp
LCFI82:
	.cfi_def_cfa_register 5
	subl	$40, %esp
	.loc 11 1135 0
	leal	-12(%ebp), %eax
	movl	8(%ebp), %edx
	movl	%edx, (%esp)
	movl	%eax, %ecx
	call	__ZNSt13move_iteratorIPP7BotDataEC1ES2_
	subl	$4, %esp
	movl	-12(%ebp), %eax
	leave
LCFI83:
	.cfi_restore 5
	.cfi_def_cfa 4, 4
	ret
	.cfi_endproc
LFE1161:
	.section	.text$_ZSt22__uninitialized_copy_aISt13move_iteratorIPP7BotDataES3_S2_ET0_T_S6_S5_RSaIT1_E,"x"
	.linkonce discard
	.globl	__ZSt22__uninitialized_copy_aISt13move_iteratorIPP7BotDataES3_S2_ET0_T_S6_S5_RSaIT1_E
	.def	__ZSt22__uninitialized_copy_aISt13move_iteratorIPP7BotDataES3_S2_ET0_T_S6_S5_RSaIT1_E;	.scl	2;	.type	32;	.endef
__ZSt22__uninitialized_copy_aISt13move_iteratorIPP7BotDataES3_S2_ET0_T_S6_S5_RSaIT1_E:
LFB1162:
	.loc 8 258 0
	.cfi_startproc
	pushl	%ebp
LCFI84:
	.cfi_def_cfa_offset 8
	.cfi_offset 5, -8
	movl	%esp, %ebp
LCFI85:
	.cfi_def_cfa_register 5
	subl	$24, %esp
	.loc 8 260 0
	movl	16(%ebp), %eax
	movl	%eax, 8(%esp)
	movl	12(%ebp), %eax
	movl	%eax, 4(%esp)
	movl	8(%ebp), %eax
	movl	%eax, (%esp)
	call	__ZSt18uninitialized_copyISt13move_iteratorIPP7BotDataES3_ET0_T_S6_S5_
	leave
LCFI86:
	.cfi_restore 5
	.cfi_def_cfa 4, 4
	ret
	.cfi_endproc
LFE1162:
	.section	.text$_ZNSt16allocator_traitsISaIP7BotDataEE10_S_destroyIS1_EENSt9enable_ifIXsrNS3_16__destroy_helperIT_EE5valueEvE4typeERS2_PS7_,"x"
	.linkonce discard
	.globl	__ZNSt16allocator_traitsISaIP7BotDataEE10_S_destroyIS1_EENSt9enable_ifIXsrNS3_16__destroy_helperIT_EE5valueEvE4typeERS2_PS7_
	.def	__ZNSt16allocator_traitsISaIP7BotDataEE10_S_destroyIS1_EENSt9enable_ifIXsrNS3_16__destroy_helperIT_EE5valueEvE4typeERS2_PS7_;	.scl	2;	.type	32;	.endef
__ZNSt16allocator_traitsISaIP7BotDataEE10_S_destroyIS1_EENSt9enable_ifIXsrNS3_16__destroy_helperIT_EE5valueEvE4typeERS2_PS7_:
LFB1163:
	.loc 6 275 0
	.cfi_startproc
	pushl	%ebp
LCFI87:
	.cfi_def_cfa_offset 8
	.cfi_offset 5, -8
	movl	%esp, %ebp
LCFI88:
	.cfi_def_cfa_register 5
	subl	$24, %esp
	.loc 6 276 0
	movl	12(%ebp), %eax
	movl	%eax, (%esp)
	movl	8(%ebp), %ecx
	call	__ZN9__gnu_cxx13new_allocatorIP7BotDataE7destroyIS2_EEvPT_
	subl	$4, %esp
	leave
LCFI89:
	.cfi_restore 5
	.cfi_def_cfa 4, 4
	ret
	.cfi_endproc
LFE1163:
	.section	.text$_ZNSt16allocator_traitsISaIP7BotDataEE8max_sizeERKS2_,"x"
	.linkonce discard
	.globl	__ZNSt16allocator_traitsISaIP7BotDataEE8max_sizeERKS2_
	.def	__ZNSt16allocator_traitsISaIP7BotDataEE8max_sizeERKS2_;	.scl	2;	.type	32;	.endef
__ZNSt16allocator_traitsISaIP7BotDataEE8max_sizeERKS2_:
LFB1167:
	.loc 6 409 0
	.cfi_startproc
	pushl	%ebp
LCFI90:
	.cfi_def_cfa_offset 8
	.cfi_offset 5, -8
	movl	%esp, %ebp
LCFI91:
	.cfi_def_cfa_register 5
	subl	$24, %esp
	.loc 6 410 0
	movl	8(%ebp), %eax
	movl	%eax, (%esp)
	call	__ZNSt16allocator_traitsISaIP7BotDataEE11_S_max_sizeIKS2_EENSt9enable_ifIXsrNS3_16__maxsize_helperIT_EE5valueEjE4typeERS8_
	leave
LCFI92:
	.cfi_restore 5
	.cfi_def_cfa 4, 4
	ret
	.cfi_endproc
LFE1167:
	.section	.text$_ZNKSt12_Vector_baseIP7BotDataSaIS1_EE19_M_get_Tp_allocatorEv,"x"
	.linkonce discard
	.align 2
	.globl	__ZNKSt12_Vector_baseIP7BotDataSaIS1_EE19_M_get_Tp_allocatorEv
	.def	__ZNKSt12_Vector_baseIP7BotDataSaIS1_EE19_M_get_Tp_allocatorEv;	.scl	2;	.type	32;	.endef
__ZNKSt12_Vector_baseIP7BotDataSaIS1_EE19_M_get_Tp_allocatorEv:
LFB1168:
	.loc 3 118 0
	.cfi_startproc
	pushl	%ebp
LCFI93:
	.cfi_def_cfa_offset 8
	.cfi_offset 5, -8
	movl	%esp, %ebp
LCFI94:
	.cfi_def_cfa_register 5
	subl	$4, %esp
	movl	%ecx, -4(%ebp)
	.loc 3 119 0
	movl	-4(%ebp), %eax
	leave
LCFI95:
	.cfi_restore 5
	.cfi_def_cfa 4, 4
	ret
	.cfi_endproc
LFE1168:
	.section	.text$_ZNK9__gnu_cxx13new_allocatorIP7BotDataE8max_sizeEv,"x"
	.linkonce discard
	.align 2
	.globl	__ZNK9__gnu_cxx13new_allocatorIP7BotDataE8max_sizeEv
	.def	__ZNK9__gnu_cxx13new_allocatorIP7BotDataE8max_sizeEv;	.scl	2;	.type	32;	.endef
__ZNK9__gnu_cxx13new_allocatorIP7BotDataE8max_sizeEv:
LFB1169:
	.loc 9 103 0
	.cfi_startproc
	pushl	%ebp
LCFI96:
	.cfi_def_cfa_offset 8
	.cfi_offset 5, -8
	movl	%esp, %ebp
LCFI97:
	.cfi_def_cfa_register 5
	subl	$4, %esp
	movl	%ecx, -4(%ebp)
	.loc 9 104 0
	movl	$1073741823, %eax
	leave
LCFI98:
	.cfi_restore 5
	.cfi_def_cfa 4, 4
	ret
	.cfi_endproc
LFE1169:
	.section	.text$_ZNSt13move_iteratorIPP7BotDataEC1ES2_,"x"
	.linkonce discard
	.align 2
	.globl	__ZNSt13move_iteratorIPP7BotDataEC1ES2_
	.def	__ZNSt13move_iteratorIPP7BotDataEC1ES2_;	.scl	2;	.type	32;	.endef
__ZNSt13move_iteratorIPP7BotDataEC1ES2_:
LFB1172:
	.loc 11 952 0
	.cfi_startproc
	pushl	%ebp
LCFI99:
	.cfi_def_cfa_offset 8
	.cfi_offset 5, -8
	movl	%esp, %ebp
LCFI100:
	.cfi_def_cfa_register 5
	subl	$4, %esp
	movl	%ecx, -4(%ebp)
LBB5:
	.loc 11 953 0
	movl	-4(%ebp), %eax
	movl	8(%ebp), %edx
	movl	%edx, (%eax)
LBE5:
	leave
LCFI101:
	.cfi_restore 5
	.cfi_def_cfa 4, 4
	ret	$4
	.cfi_endproc
LFE1172:
	.section	.text$_ZSt18uninitialized_copyISt13move_iteratorIPP7BotDataES3_ET0_T_S6_S5_,"x"
	.linkonce discard
	.globl	__ZSt18uninitialized_copyISt13move_iteratorIPP7BotDataES3_ET0_T_S6_S5_
	.def	__ZSt18uninitialized_copyISt13move_iteratorIPP7BotDataES3_ET0_T_S6_S5_;	.scl	2;	.type	32;	.endef
__ZSt18uninitialized_copyISt13move_iteratorIPP7BotDataES3_ET0_T_S6_S5_:
LFB1173:
	.loc 8 109 0
	.cfi_startproc
	pushl	%ebp
LCFI102:
	.cfi_def_cfa_offset 8
	.cfi_offset 5, -8
	movl	%esp, %ebp
LCFI103:
	.cfi_def_cfa_register 5
	subl	$24, %esp
LBB6:
	.loc 8 119 0
	movl	16(%ebp), %eax
	movl	%eax, 8(%esp)
	movl	12(%ebp), %eax
	movl	%eax, 4(%esp)
	movl	8(%ebp), %eax
	movl	%eax, (%esp)
	call	__ZNSt20__uninitialized_copyILb1EE13__uninit_copyISt13move_iteratorIPP7BotDataES5_EET0_T_S8_S7_
LBE6:
	.loc 8 120 0
	leave
LCFI104:
	.cfi_restore 5
	.cfi_def_cfa 4, 4
	ret
	.cfi_endproc
LFE1173:
	.section	.text$_ZN9__gnu_cxx13new_allocatorIP7BotDataE7destroyIS2_EEvPT_,"x"
	.linkonce discard
	.align 2
	.globl	__ZN9__gnu_cxx13new_allocatorIP7BotDataE7destroyIS2_EEvPT_
	.def	__ZN9__gnu_cxx13new_allocatorIP7BotDataE7destroyIS2_EEvPT_;	.scl	2;	.type	32;	.endef
__ZN9__gnu_cxx13new_allocatorIP7BotDataE7destroyIS2_EEvPT_:
LFB1174:
	.loc 9 114 0
	.cfi_startproc
	pushl	%ebp
LCFI105:
	.cfi_def_cfa_offset 8
	.cfi_offset 5, -8
	movl	%esp, %ebp
LCFI106:
	.cfi_def_cfa_register 5
	subl	$4, %esp
	movl	%ecx, -4(%ebp)
	.loc 9 114 0
	leave
LCFI107:
	.cfi_restore 5
	.cfi_def_cfa 4, 4
	ret	$4
	.cfi_endproc
LFE1174:
	.section	.text$_ZNSt16allocator_traitsISaIP7BotDataEE11_S_max_sizeIKS2_EENSt9enable_ifIXsrNS3_16__maxsize_helperIT_EE5valueEjE4typeERS8_,"x"
	.linkonce discard
	.globl	__ZNSt16allocator_traitsISaIP7BotDataEE11_S_max_sizeIKS2_EENSt9enable_ifIXsrNS3_16__maxsize_helperIT_EE5valueEjE4typeERS8_
	.def	__ZNSt16allocator_traitsISaIP7BotDataEE11_S_max_sizeIKS2_EENSt9enable_ifIXsrNS3_16__maxsize_helperIT_EE5valueEjE4typeERS8_;	.scl	2;	.type	32;	.endef
__ZNSt16allocator_traitsISaIP7BotDataEE11_S_max_sizeIKS2_EENSt9enable_ifIXsrNS3_16__maxsize_helperIT_EE5valueEjE4typeERS8_:
LFB1175:
	.loc 6 300 0
	.cfi_startproc
	pushl	%ebp
LCFI108:
	.cfi_def_cfa_offset 8
	.cfi_offset 5, -8
	movl	%esp, %ebp
LCFI109:
	.cfi_def_cfa_register 5
	.loc 6 301 0
	movl	8(%ebp), %ecx
	call	__ZNK9__gnu_cxx13new_allocatorIP7BotDataE8max_sizeEv
	popl	%ebp
LCFI110:
	.cfi_restore 5
	.cfi_def_cfa 4, 4
	ret
	.cfi_endproc
LFE1175:
	.section	.text$_ZNSt20__uninitialized_copyILb1EE13__uninit_copyISt13move_iteratorIPP7BotDataES5_EET0_T_S8_S7_,"x"
	.linkonce discard
	.globl	__ZNSt20__uninitialized_copyILb1EE13__uninit_copyISt13move_iteratorIPP7BotDataES5_EET0_T_S8_S7_
	.def	__ZNSt20__uninitialized_copyILb1EE13__uninit_copyISt13move_iteratorIPP7BotDataES5_EET0_T_S8_S7_;	.scl	2;	.type	32;	.endef
__ZNSt20__uninitialized_copyILb1EE13__uninit_copyISt13move_iteratorIPP7BotDataES5_EET0_T_S8_S7_:
LFB1176:
	.loc 8 93 0
	.cfi_startproc
	pushl	%ebp
LCFI111:
	.cfi_def_cfa_offset 8
	.cfi_offset 5, -8
	movl	%esp, %ebp
LCFI112:
	.cfi_def_cfa_register 5
	subl	$24, %esp
	.loc 8 95 0
	movl	16(%ebp), %eax
	movl	%eax, 8(%esp)
	movl	12(%ebp), %eax
	movl	%eax, 4(%esp)
	movl	8(%ebp), %eax
	movl	%eax, (%esp)
	call	__ZSt4copyISt13move_iteratorIPP7BotDataES3_ET0_T_S6_S5_
	leave
LCFI113:
	.cfi_restore 5
	.cfi_def_cfa 4, 4
	ret
	.cfi_endproc
LFE1176:
	.section	.text$_ZSt4copyISt13move_iteratorIPP7BotDataES3_ET0_T_S6_S5_,"x"
	.linkonce discard
	.globl	__ZSt4copyISt13move_iteratorIPP7BotDataES3_ET0_T_S6_S5_
	.def	__ZSt4copyISt13move_iteratorIPP7BotDataES3_ET0_T_S6_S5_;	.scl	2;	.type	32;	.endef
__ZSt4copyISt13move_iteratorIPP7BotDataES3_ET0_T_S6_S5_:
LFB1177:
	.loc 10 444 0
	.cfi_startproc
	pushl	%ebp
LCFI114:
	.cfi_def_cfa_offset 8
	.cfi_offset 5, -8
	movl	%esp, %ebp
LCFI115:
	.cfi_def_cfa_register 5
	pushl	%ebx
	subl	$20, %esp
	.cfi_offset 3, -12
	.loc 10 454 0
	movl	12(%ebp), %eax
	movl	%eax, (%esp)
	call	__ZSt12__miter_baseISt13move_iteratorIPP7BotDataEENSt11_Miter_baseIT_E13iterator_typeES6_
	movl	%eax, %ebx
	movl	8(%ebp), %eax
	movl	%eax, (%esp)
	call	__ZSt12__miter_baseISt13move_iteratorIPP7BotDataEENSt11_Miter_baseIT_E13iterator_typeES6_
	movl	16(%ebp), %edx
	movl	%edx, 8(%esp)
	movl	%ebx, 4(%esp)
	movl	%eax, (%esp)
	call	__ZSt14__copy_move_a2ILb1EPP7BotDataS2_ET1_T0_S4_S3_
	.loc 10 455 0
	addl	$20, %esp
	popl	%ebx
	.cfi_restore 3
	popl	%ebp
LCFI116:
	.cfi_restore 5
	.cfi_def_cfa 4, 4
	ret
	.cfi_endproc
LFE1177:
	.section	.text$_ZSt12__miter_baseISt13move_iteratorIPP7BotDataEENSt11_Miter_baseIT_E13iterator_typeES6_,"x"
	.linkonce discard
	.globl	__ZSt12__miter_baseISt13move_iteratorIPP7BotDataEENSt11_Miter_baseIT_E13iterator_typeES6_
	.def	__ZSt12__miter_baseISt13move_iteratorIPP7BotDataEENSt11_Miter_baseIT_E13iterator_typeES6_;	.scl	2;	.type	32;	.endef
__ZSt12__miter_baseISt13move_iteratorIPP7BotDataEENSt11_Miter_baseIT_E13iterator_typeES6_:
LFB1178:
	.loc 10 282 0
	.cfi_startproc
	pushl	%ebp
LCFI117:
	.cfi_def_cfa_offset 8
	.cfi_offset 5, -8
	movl	%esp, %ebp
LCFI118:
	.cfi_def_cfa_register 5
	subl	$24, %esp
	.loc 10 283 0
	movl	8(%ebp), %eax
	movl	%eax, (%esp)
	call	__ZNSt10_Iter_baseISt13move_iteratorIPP7BotDataELb1EE7_S_baseES4_
	leave
LCFI119:
	.cfi_restore 5
	.cfi_def_cfa 4, 4
	ret
	.cfi_endproc
LFE1178:
	.section	.text$_ZSt14__copy_move_a2ILb1EPP7BotDataS2_ET1_T0_S4_S3_,"x"
	.linkonce discard
	.globl	__ZSt14__copy_move_a2ILb1EPP7BotDataS2_ET1_T0_S4_S3_
	.def	__ZSt14__copy_move_a2ILb1EPP7BotDataS2_ET1_T0_S4_S3_;	.scl	2;	.type	32;	.endef
__ZSt14__copy_move_a2ILb1EPP7BotDataS2_ET1_T0_S4_S3_:
LFB1179:
	.loc 10 418 0
	.cfi_startproc
	pushl	%ebp
LCFI120:
	.cfi_def_cfa_offset 8
	.cfi_offset 5, -8
	movl	%esp, %ebp
LCFI121:
	.cfi_def_cfa_register 5
	pushl	%esi
	pushl	%ebx
	subl	$16, %esp
	.cfi_offset 6, -12
	.cfi_offset 3, -16
	.loc 10 422 0
	movl	16(%ebp), %eax
	movl	%eax, (%esp)
	call	__ZSt12__niter_baseIPP7BotDataENSt11_Niter_baseIT_E13iterator_typeES4_
	movl	%eax, %esi
	movl	12(%ebp), %eax
	movl	%eax, (%esp)
	call	__ZSt12__niter_baseIPP7BotDataENSt11_Niter_baseIT_E13iterator_typeES4_
	movl	%eax, %ebx
	movl	8(%ebp), %eax
	movl	%eax, (%esp)
	call	__ZSt12__niter_baseIPP7BotDataENSt11_Niter_baseIT_E13iterator_typeES4_
	movl	%esi, 8(%esp)
	movl	%ebx, 4(%esp)
	movl	%eax, (%esp)
	call	__ZSt13__copy_move_aILb1EPP7BotDataS2_ET1_T0_S4_S3_
	.loc 10 423 0
	addl	$16, %esp
	popl	%ebx
	.cfi_restore 3
	popl	%esi
	.cfi_restore 6
	popl	%ebp
LCFI122:
	.cfi_restore 5
	.cfi_def_cfa 4, 4
	ret
	.cfi_endproc
LFE1179:
	.section	.text$_ZNSt10_Iter_baseISt13move_iteratorIPP7BotDataELb1EE7_S_baseES4_,"x"
	.linkonce discard
	.globl	__ZNSt10_Iter_baseISt13move_iteratorIPP7BotDataELb1EE7_S_baseES4_
	.def	__ZNSt10_Iter_baseISt13move_iteratorIPP7BotDataELb1EE7_S_baseES4_;	.scl	2;	.type	32;	.endef
__ZNSt10_Iter_baseISt13move_iteratorIPP7BotDataELb1EE7_S_baseES4_:
LFB1180:
	.file 12 "c:/program files (x86)/codeblocks/mingw/bin/../lib/gcc/mingw32/4.7.0/include/c++/bits/stl_iterator_base_types.h"
	.loc 12 221 0
	.cfi_startproc
	pushl	%ebp
LCFI123:
	.cfi_def_cfa_offset 8
	.cfi_offset 5, -8
	movl	%esp, %ebp
LCFI124:
	.cfi_def_cfa_register 5
	subl	$8, %esp
	.loc 12 222 0
	leal	8(%ebp), %ecx
	call	__ZNKSt13move_iteratorIPP7BotDataE4baseEv
	leave
LCFI125:
	.cfi_restore 5
	.cfi_def_cfa 4, 4
	ret
	.cfi_endproc
LFE1180:
	.section	.text$_ZSt12__niter_baseIPP7BotDataENSt11_Niter_baseIT_E13iterator_typeES4_,"x"
	.linkonce discard
	.globl	__ZSt12__niter_baseIPP7BotDataENSt11_Niter_baseIT_E13iterator_typeES4_
	.def	__ZSt12__niter_baseIPP7BotDataENSt11_Niter_baseIT_E13iterator_typeES4_;	.scl	2;	.type	32;	.endef
__ZSt12__niter_baseIPP7BotDataENSt11_Niter_baseIT_E13iterator_typeES4_:
LFB1181:
	.loc 10 271 0
	.cfi_startproc
	pushl	%ebp
LCFI126:
	.cfi_def_cfa_offset 8
	.cfi_offset 5, -8
	movl	%esp, %ebp
LCFI127:
	.cfi_def_cfa_register 5
	subl	$24, %esp
	.loc 10 272 0
	movl	8(%ebp), %eax
	movl	%eax, (%esp)
	call	__ZNSt10_Iter_baseIPP7BotDataLb0EE7_S_baseES2_
	leave
LCFI128:
	.cfi_restore 5
	.cfi_def_cfa 4, 4
	ret
	.cfi_endproc
LFE1181:
	.section	.text$_ZSt13__copy_move_aILb1EPP7BotDataS2_ET1_T0_S4_S3_,"x"
	.linkonce discard
	.globl	__ZSt13__copy_move_aILb1EPP7BotDataS2_ET1_T0_S4_S3_
	.def	__ZSt13__copy_move_aILb1EPP7BotDataS2_ET1_T0_S4_S3_;	.scl	2;	.type	32;	.endef
__ZSt13__copy_move_aILb1EPP7BotDataS2_ET1_T0_S4_S3_:
LFB1182:
	.loc 10 373 0
	.cfi_startproc
	pushl	%ebp
LCFI129:
	.cfi_def_cfa_offset 8
	.cfi_offset 5, -8
	movl	%esp, %ebp
LCFI130:
	.cfi_def_cfa_register 5
	subl	$40, %esp
LBB7:
	.loc 10 381 0
	movb	$1, -9(%ebp)
	.loc 10 384 0
	movl	16(%ebp), %eax
	movl	%eax, 8(%esp)
	movl	12(%ebp), %eax
	movl	%eax, 4(%esp)
	movl	8(%ebp), %eax
	movl	%eax, (%esp)
	call	__ZNSt11__copy_moveILb1ELb1ESt26random_access_iterator_tagE8__copy_mIP7BotDataEEPT_PKS5_S8_S6_
LBE7:
	.loc 10 385 0
	leave
LCFI131:
	.cfi_restore 5
	.cfi_def_cfa 4, 4
	ret
	.cfi_endproc
LFE1182:
	.section	.text$_ZNKSt13move_iteratorIPP7BotDataE4baseEv,"x"
	.linkonce discard
	.align 2
	.globl	__ZNKSt13move_iteratorIPP7BotDataE4baseEv
	.def	__ZNKSt13move_iteratorIPP7BotDataE4baseEv;	.scl	2;	.type	32;	.endef
__ZNKSt13move_iteratorIPP7BotDataE4baseEv:
LFB1183:
	.loc 11 960 0
	.cfi_startproc
	pushl	%ebp
LCFI132:
	.cfi_def_cfa_offset 8
	.cfi_offset 5, -8
	movl	%esp, %ebp
LCFI133:
	.cfi_def_cfa_register 5
	subl	$4, %esp
	movl	%ecx, -4(%ebp)
	.loc 11 961 0
	movl	-4(%ebp), %eax
	movl	(%eax), %eax
	leave
LCFI134:
	.cfi_restore 5
	.cfi_def_cfa 4, 4
	ret
	.cfi_endproc
LFE1183:
	.section	.text$_ZNSt10_Iter_baseIPP7BotDataLb0EE7_S_baseES2_,"x"
	.linkonce discard
	.globl	__ZNSt10_Iter_baseIPP7BotDataLb0EE7_S_baseES2_
	.def	__ZNSt10_Iter_baseIPP7BotDataLb0EE7_S_baseES2_;	.scl	2;	.type	32;	.endef
__ZNSt10_Iter_baseIPP7BotDataLb0EE7_S_baseES2_:
LFB1184:
	.loc 12 213 0
	.cfi_startproc
	pushl	%ebp
LCFI135:
	.cfi_def_cfa_offset 8
	.cfi_offset 5, -8
	movl	%esp, %ebp
LCFI136:
	.cfi_def_cfa_register 5
	.loc 12 214 0
	movl	8(%ebp), %eax
	popl	%ebp
LCFI137:
	.cfi_restore 5
	.cfi_def_cfa 4, 4
	ret
	.cfi_endproc
LFE1184:
	.section	.text$_ZNSt11__copy_moveILb1ELb1ESt26random_access_iterator_tagE8__copy_mIP7BotDataEEPT_PKS5_S8_S6_,"x"
	.linkonce discard
	.globl	__ZNSt11__copy_moveILb1ELb1ESt26random_access_iterator_tagE8__copy_mIP7BotDataEEPT_PKS5_S8_S6_
	.def	__ZNSt11__copy_moveILb1ELb1ESt26random_access_iterator_tagE8__copy_mIP7BotDataEEPT_PKS5_S8_S6_;	.scl	2;	.type	32;	.endef
__ZNSt11__copy_moveILb1ELb1ESt26random_access_iterator_tagE8__copy_mIP7BotDataEEPT_PKS5_S8_S6_:
LFB1185:
	.loc 10 362 0
	.cfi_startproc
	pushl	%ebp
LCFI138:
	.cfi_def_cfa_offset 8
	.cfi_offset 5, -8
	movl	%esp, %ebp
LCFI139:
	.cfi_def_cfa_register 5
	subl	$40, %esp
LBB8:
	.loc 10 364 0
	movl	12(%ebp), %edx
	movl	8(%ebp), %eax
	movl	%edx, %ecx
	subl	%eax, %ecx
	movl	%ecx, %eax
	sarl	$2, %eax
	movl	%eax, -12(%ebp)
	.loc 10 365 0
	cmpl	$0, -12(%ebp)
	je	L99
	.loc 10 366 0
	movl	-12(%ebp), %eax
	sall	$2, %eax
	movl	%eax, 8(%esp)
	movl	8(%ebp), %eax
	movl	%eax, 4(%esp)
	movl	16(%ebp), %eax
	movl	%eax, (%esp)
	call	_memmove
L99:
	.loc 10 367 0
	movl	-12(%ebp), %eax
	leal	0(,%eax,4), %edx
	movl	16(%ebp), %eax
	addl	%edx, %eax
LBE8:
	.loc 10 368 0
	leave
LCFI140:
	.cfi_restore 5
	.cfi_def_cfa 4, 4
	ret
	.cfi_endproc
LFE1185:
	.text
Letext0:
	.file 13 "c:/program files (x86)/codeblocks/mingw/bin/../lib/gcc/mingw32/4.7.0/include/c++/cwchar"
	.file 14 "c:/program files (x86)/codeblocks/mingw/bin/../lib/gcc/mingw32/4.7.0/include/c++/cstdint"
	.file 15 "c:/program files (x86)/codeblocks/mingw/bin/../lib/gcc/mingw32/4.7.0/include/c++/mingw32/bits/c++config.h"
	.file 16 "c:/program files (x86)/codeblocks/mingw/bin/../lib/gcc/mingw32/4.7.0/include/c++/clocale"
	.file 17 "c:/program files (x86)/codeblocks/mingw/bin/../lib/gcc/mingw32/4.7.0/include/c++/bits/stringfwd.h"
	.file 18 "c:/program files (x86)/codeblocks/mingw/bin/../lib/gcc/mingw32/4.7.0/include/c++/type_traits"
	.file 19 "c:/program files (x86)/codeblocks/mingw/bin/../lib/gcc/mingw32/4.7.0/include/c++/bits/basic_string.h"
	.file 20 "<built-in>"
	.file 21 "c:/program files (x86)/codeblocks/mingw/bin/../lib/gcc/mingw32/4.7.0/include/c++/bits/cpp_type_traits.h"
	.file 22 "c:/program files (x86)/codeblocks/mingw/bin/../lib/gcc/mingw32/4.7.0/include/c++/debug/debug.h"
	.file 23 "c:/program files (x86)/codeblocks/mingw/bin/../lib/gcc/mingw32/4.7.0/include/stddef.h"
	.file 24 "c:/program files (x86)/codeblocks/mingw/bin/../lib/gcc/mingw32/4.7.0/../../../../include/wchar.h"
	.file 25 "c:/program files (x86)/codeblocks/mingw/bin/../lib/gcc/mingw32/4.7.0/include/c++/bits/char_traits.h"
	.file 26 "c:/program files (x86)/codeblocks/mingw/bin/../lib/gcc/mingw32/4.7.0/../../../../include/stdint.h"
	.file 27 "c:/program files (x86)/codeblocks/mingw/bin/../lib/gcc/mingw32/4.7.0/include/c++/bits/allocator.h"
	.file 28 "c:/program files (x86)/codeblocks/mingw/bin/../lib/gcc/mingw32/4.7.0/../../../../include/locale.h"
	.file 29 "c:/program files (x86)/codeblocks/mingw/bin/../lib/gcc/mingw32/4.7.0/include/c++/mingw32/bits/atomic_word.h"
	.file 30 "c:/program files (x86)/codeblocks/mingw/bin/../lib/gcc/mingw32/4.7.0/include/c++/ext/numeric_traits.h"
	.file 31 "c:/program files (x86)/codeblocks/mingw/bin/../lib/gcc/mingw32/4.7.0/include/c++/bits/basic_string.tcc"
	.file 32 "c:/program files (x86)/codeblocks/mingw/bin/../lib/gcc/mingw32/4.7.0/include/c++/initializer_list"
	.file 33 "F:/CSIKI/PROGRAMING/C++/main/Croupier/BotTester/BotTester/BotData.h"
	.file 34 "c:/program files (x86)/codeblocks/mingw/bin/../lib/gcc/mingw32/4.7.0/include/c++/bits/ptr_traits.h"
	.file 35 "c:/program files (x86)/codeblocks/mingw/bin/../lib/gcc/mingw32/4.7.0/include/c++/ext/alloc_traits.h"
	.file 36 "F:/CSIKI/PROGRAMING/C++/main/Croupier/BotTester/BotTester/GameData.h"
	.file 37 "c:/program files (x86)/codeblocks/mingw/bin/../lib/gcc/mingw32/4.7.0/include/c++/bits/stl_pair.h"
	.file 38 "c:/program files (x86)/codeblocks/mingw/bin/../lib/gcc/mingw32/4.7.0/include/c++/mingw32/bits/gthr-default.h"
	.file 39 "F:/CSIKI/PROGRAMING/C++/main/Croupier/BotTester/BotTester/BotLanguage.h"