	.file	"main.cpp"
	.text
Ltext0:
	.section .rdata,"dr"
__ZStL19piecewise_construct:
	.space 1
	.section	.text$_ZnwjPv,"x"
	.linkonce discard
	.globl	__ZnwjPv
	.def	__ZnwjPv;	.scl	2;	.type	32;	.endef
__ZnwjPv:
LFB332:
	.file 1 "c:/program files (x86)/codeblocks/mingw/bin/../lib/gcc/mingw32/4.7.0/include/c++/new"
	.loc 1 112 0
	.cfi_startproc
	pushl	%ebp
LCFI0:
	.cfi_def_cfa_offset 8
	.cfi_offset 5, -8
	movl	%esp, %ebp
LCFI1:
	.cfi_def_cfa_register 5
	.loc 1 112 0
	movl	12(%ebp), %eax
	popl	%ebp
LCFI2:
	.cfi_restore 5
	.cfi_def_cfa 4, 4
	ret
	.cfi_endproc
LFE332:
.lcomm __ZStL8__ioinit,1,1
	.section	.text$_ZN7BotDataC1EiiSsSsi11BotLanguageiPi,"x"
	.linkonce discard
	.align 2
	.globl	__ZN7BotDataC1EiiSsSsi11BotLanguageiPi
	.def	__ZN7BotDataC1EiiSsSsi11BotLanguageiPi;	.scl	2;	.type	32;	.endef
__ZN7BotDataC1EiiSsSsi11BotLanguageiPi:
LFB1112:
	.file 2 "F:/CSIKI/PROGRAMING/C++/main/Croupier/BotTester/BotTester/BotData.h"
	.loc 2 24 0
	.cfi_startproc
	.cfi_personality 0,___gxx_personality_v0
	.cfi_lsda 0,LLSDA1112
	pushl	%ebp
LCFI3:
	.cfi_def_cfa_offset 8
	.cfi_offset 5, -8
	movl	%esp, %ebp
LCFI4:
	.cfi_def_cfa_register 5
	pushl	%ebx
	subl	$36, %esp
	.cfi_offset 3, -12
	movl	%ecx, -12(%ebp)
LBB2:
	.loc 2 27 0
	movl	-12(%ebp), %eax
	movl	$__ZTV7BotData+8, (%eax)
	movl	-12(%ebp), %eax
	movl	8(%ebp), %edx
	movl	%edx, 4(%eax)
	movl	-12(%ebp), %eax
	movl	12(%ebp), %edx
	movl	%edx, 8(%eax)
	movl	-12(%ebp), %eax
	leal	12(%eax), %edx
	movl	16(%ebp), %eax
	movl	%eax, (%esp)
	movl	%edx, %ecx
LEHB0:
	call	__ZNSsC1ERKSs
LEHE0:
	subl	$4, %esp
	movl	-12(%ebp), %eax
	leal	16(%eax), %edx
	movl	20(%ebp), %eax
	movl	%eax, (%esp)
	movl	%edx, %ecx
LEHB1:
	call	__ZNSsC1ERKSs
LEHE1:
	subl	$4, %esp
	movl	-12(%ebp), %eax
	movl	24(%ebp), %edx
	movl	%edx, 20(%eax)
	movl	-12(%ebp), %eax
	movl	28(%ebp), %edx
	movl	%edx, 24(%eax)
	movl	-12(%ebp), %eax
	movl	32(%ebp), %edx
	movl	%edx, 28(%eax)
	movl	-12(%ebp), %eax
	movl	36(%ebp), %edx
	movl	%edx, 32(%eax)
	jmp	L6
L5:
	movl	%eax, %ebx
	movl	-12(%ebp), %eax
	addl	$12, %eax
	movl	%eax, %ecx
	call	__ZNSsD1Ev
	movl	%ebx, %eax
	movl	%eax, (%esp)
LEHB2:
	call	__Unwind_Resume
LEHE2:
L6:
LBE2:
	.loc 2 28 0
	movl	-4(%ebp), %ebx
	leave
LCFI5:
	.cfi_restore 5
	.cfi_restore 3
	.cfi_def_cfa 4, 4
	ret	$32
	.cfi_endproc
LFE1112:
	.def	___gxx_personality_v0;	.scl	2;	.type	32;	.endef
	.section	.gcc_except_table,"w"
LLSDA1112:
	.byte	0xff
	.byte	0xff
	.byte	0x1
	.uleb128 LLSDACSE1112-LLSDACSB1112
LLSDACSB1112:
	.uleb128 LEHB0-LFB1112
	.uleb128 LEHE0-LEHB0
	.uleb128 0
	.uleb128 0
	.uleb128 LEHB1-LFB1112
	.uleb128 LEHE1-LEHB1
	.uleb128 L5-LFB1112
	.uleb128 0
	.uleb128 LEHB2-LFB1112
	.uleb128 LEHE2-LEHB2
	.uleb128 0
	.uleb128 0
LLSDACSE1112:
	.section	.text$_ZN7BotDataC1EiiSsSsi11BotLanguageiPi,"x"
	.linkonce discard
	.section	.text$_ZN7BotDataD1Ev,"x"
	.linkonce discard
	.align 2
	.globl	__ZN7BotDataD1Ev
	.def	__ZN7BotDataD1Ev;	.scl	2;	.type	32;	.endef
__ZN7BotDataD1Ev:
LFB1115:
	.loc 2 30 0
	.cfi_startproc
	pushl	%ebp
LCFI6:
	.cfi_def_cfa_offset 8
	.cfi_offset 5, -8
	movl	%esp, %ebp
LCFI7:
	.cfi_def_cfa_register 5
	subl	$40, %esp
	movl	%ecx, -12(%ebp)
LBB3:
	.loc 2 31 0
	movl	-12(%ebp), %eax
	movl	$__ZTV7BotData+8, (%eax)
	.loc 2 32 0
	movl	-12(%ebp), %eax
	movl	32(%eax), %eax
	testl	%eax, %eax
	je	L8
	.loc 2 32 0 is_stmt 0 discriminator 1
	movl	-12(%ebp), %eax
	movl	32(%eax), %eax
	movl	%eax, (%esp)
	call	__ZdaPv
L8:
	.loc 2 31 0 is_stmt 1
	movl	-12(%ebp), %eax
	addl	$16, %eax
	movl	%eax, %ecx
	call	__ZNSsD1Ev
	movl	-12(%ebp), %eax
	addl	$12, %eax
	movl	%eax, %ecx
	call	__ZNSsD1Ev
LBE3:
	.loc 2 33 0
	movl	$2, %eax
	andl	$1, %eax
	testl	%eax, %eax
	je	L7
	.loc 2 33 0 is_stmt 0 discriminator 1
	movl	-12(%ebp), %eax
	movl	%eax, (%esp)
	call	__ZdlPv
L7:
	.loc 2 33 0
	leave
LCFI8:
	.cfi_restore 5
	.cfi_def_cfa 4, 4
	ret
	.cfi_endproc
LFE1115:
	.section	.text$_ZN7BotDataD0Ev,"x"
	.linkonce discard
	.align 2
	.globl	__ZN7BotDataD0Ev
	.def	__ZN7BotDataD0Ev;	.scl	2;	.type	32;	.endef
__ZN7BotDataD0Ev:
LFB1116:
	.loc 2 30 0 is_stmt 1
	.cfi_startproc
	pushl	%ebp
LCFI9:
	.cfi_def_cfa_offset 8
	.cfi_offset 5, -8
	movl	%esp, %ebp
LCFI10:
	.cfi_def_cfa_register 5
	subl	$40, %esp
	movl	%ecx, -12(%ebp)
	.loc 2 33 0
	movl	-12(%ebp), %eax
	movl	%eax, %ecx
	call	__ZN7BotDataD1Ev
	movl	-12(%ebp), %eax
	movl	%eax, (%esp)
	call	__ZdlPv
	leave
LCFI11:
	.cfi_restore 5
	.cfi_def_cfa 4, 4
	ret
	.cfi_endproc
LFE1116:
	.section	.text$_ZNSt3mapIiP4TestSt4lessIiESaISt4pairIKiS1_EEED1Ev,"x"
	.linkonce discard
	.align 2
	.globl	__ZNSt3mapIiP4TestSt4lessIiESaISt4pairIKiS1_EEED1Ev
	.def	__ZNSt3mapIiP4TestSt4lessIiESaISt4pairIKiS1_EEED1Ev;	.scl	2;	.type	32;	.endef
__ZNSt3mapIiP4TestSt4lessIiESaISt4pairIKiS1_EEED1Ev:
LFB1362:
	.file 3 "c:/program files (x86)/codeblocks/mingw/bin/../lib/gcc/mingw32/4.7.0/include/c++/bits/stl_map.h"
	.loc 3 90 0
	.cfi_startproc
	pushl	%ebp
LCFI12:
	.cfi_def_cfa_offset 8
	.cfi_offset 5, -8
	movl	%esp, %ebp
LCFI13:
	.cfi_def_cfa_register 5
	subl	$24, %esp
	movl	%ecx, -12(%ebp)
LBB4:
	.loc 3 90 0
	movl	-12(%ebp), %eax
	movl	%eax, %ecx
	call	__ZNSt8_Rb_treeIiSt4pairIKiP4TestESt10_Select1stIS4_ESt4lessIiESaIS4_EED1Ev
LBE4:
	leave
LCFI14:
	.cfi_restore 5
	.cfi_def_cfa 4, 4
	ret
	.cfi_endproc
LFE1362:
	.section	.text$_ZN4TestC2Ev,"x"
	.linkonce discard
	.align 2
	.globl	__ZN4TestC2Ev
	.def	__ZN4TestC2Ev;	.scl	2;	.type	32;	.endef
__ZN4TestC2Ev:
LFB1365:
	.file 4 "F:/CSIKI/PROGRAMING/C++/main/Croupier/BotTester/BotTester/Test.h"
	.loc 4 7 0
	.cfi_startproc
	pushl	%ebp
LCFI15:
	.cfi_def_cfa_offset 8
	.cfi_offset 5, -8
	movl	%esp, %ebp
LCFI16:
	.cfi_def_cfa_register 5
	subl	$4, %esp
	movl	%ecx, -4(%ebp)
LBB5:
	.loc 4 7 0
	movl	-4(%ebp), %eax
	movl	$__ZTV4Test+8, (%eax)
LBE5:
	leave
LCFI17:
	.cfi_restore 5
	.cfi_def_cfa 4, 4
	ret
	.cfi_endproc
LFE1365:
	.section	.text$_ZN12ConcreteTestC1Ev,"x"
	.linkonce discard
	.align 2
	.globl	__ZN12ConcreteTestC1Ev
	.def	__ZN12ConcreteTestC1Ev;	.scl	2;	.type	32;	.endef
__ZN12ConcreteTestC1Ev:
LFB1368:
	.file 5 "F:/CSIKI/PROGRAMING/C++/main/Croupier/BotTester/BotTester/ConcreteTest.h"
	.loc 5 7 0
	.cfi_startproc
	pushl	%ebp
LCFI18:
	.cfi_def_cfa_offset 8
	.cfi_offset 5, -8
	movl	%esp, %ebp
LCFI19:
	.cfi_def_cfa_register 5
	subl	$4, %esp
	movl	%ecx, -4(%ebp)
LBB6:
	.loc 5 7 0
	movl	-4(%ebp), %eax
	movl	%eax, %ecx
	call	__ZN4TestC2Ev
	movl	-4(%ebp), %eax
	movl	$__ZTV12ConcreteTest+8, (%eax)
LBE6:
	leave
LCFI20:
	.cfi_restore 5
	.cfi_def_cfa 4, 4
	ret
	.cfi_endproc
LFE1368:
	.section	.text$_ZSt7forwardIiEOT_RNSt16remove_referenceIS0_E4typeE,"x"
	.linkonce discard
	.globl	__ZSt7forwardIiEOT_RNSt16remove_referenceIS0_E4typeE
	.def	__ZSt7forwardIiEOT_RNSt16remove_referenceIS0_E4typeE;	.scl	2;	.type	32;	.endef
__ZSt7forwardIiEOT_RNSt16remove_referenceIS0_E4typeE:
LFB1370:
	.file 6 "c:/program files (x86)/codeblocks/mingw/bin/../lib/gcc/mingw32/4.7.0/include/c++/bits/move.h"
	.loc 6 77 0
	.cfi_startproc
	pushl	%ebp
LCFI21:
	.cfi_def_cfa_offset 8
	.cfi_offset 5, -8
	movl	%esp, %ebp
LCFI22:
	.cfi_def_cfa_register 5
	.loc 6 78 0
	movl	8(%ebp), %eax
	popl	%ebp
LCFI23:
	.cfi_restore 5
	.cfi_def_cfa 4, 4
	ret
	.cfi_endproc
LFE1370:
	.section	.text$_ZSt7forwardIP12ConcreteTestEOT_RNSt16remove_referenceIS2_E4typeE,"x"
	.linkonce discard
	.globl	__ZSt7forwardIP12ConcreteTestEOT_RNSt16remove_referenceIS2_E4typeE
	.def	__ZSt7forwardIP12ConcreteTestEOT_RNSt16remove_referenceIS2_E4typeE;	.scl	2;	.type	32;	.endef
__ZSt7forwardIP12ConcreteTestEOT_RNSt16remove_referenceIS2_E4typeE:
LFB1371:
	.loc 6 77 0
	.cfi_startproc
	pushl	%ebp
LCFI24:
	.cfi_def_cfa_offset 8
	.cfi_offset 5, -8
	movl	%esp, %ebp
LCFI25:
	.cfi_def_cfa_register 5
	.loc 6 78 0
	movl	8(%ebp), %eax
	popl	%ebp
LCFI26:
	.cfi_restore 5
	.cfi_def_cfa 4, 4
	ret
	.cfi_endproc
LFE1371:
	.section	.text$_ZNSt4pairIiP4TestEC1IiP12ConcreteTestvEEOT_OT0_,"x"
	.linkonce discard
	.align 2
	.globl	__ZNSt4pairIiP4TestEC1IiP12ConcreteTestvEEOT_OT0_
	.def	__ZNSt4pairIiP4TestEC1IiP12ConcreteTestvEEOT_OT0_;	.scl	2;	.type	32;	.endef
__ZNSt4pairIiP4TestEC1IiP12ConcreteTestvEEOT_OT0_:
LFB1373:
	.file 7 "c:/program files (x86)/codeblocks/mingw/bin/../lib/gcc/mingw32/4.7.0/include/c++/bits/stl_pair.h"
	.loc 7 142 0
	.cfi_startproc
	pushl	%ebp
LCFI27:
	.cfi_def_cfa_offset 8
	.cfi_offset 5, -8
	movl	%esp, %ebp
LCFI28:
	.cfi_def_cfa_register 5
	subl	$8, %esp
	movl	%ecx, -4(%ebp)
LBB7:
	.loc 7 143 0
	movl	8(%ebp), %eax
	movl	%eax, (%esp)
	call	__ZSt7forwardIiEOT_RNSt16remove_referenceIS0_E4typeE
	movl	(%eax), %edx
	movl	-4(%ebp), %eax
	movl	%edx, (%eax)
	movl	12(%ebp), %eax
	movl	%eax, (%esp)
	call	__ZSt7forwardIP12ConcreteTestEOT_RNSt16remove_referenceIS2_E4typeE
	movl	(%eax), %edx
	movl	-4(%ebp), %eax
	movl	%edx, 4(%eax)
LBE7:
	leave
LCFI29:
	.cfi_restore 5
	.cfi_def_cfa 4, 4
	ret	$8
	.cfi_endproc
LFE1373:
	.section	.text$_ZSt7forwardIP4TestEOT_RNSt16remove_referenceIS2_E4typeE,"x"
	.linkonce discard
	.globl	__ZSt7forwardIP4TestEOT_RNSt16remove_referenceIS2_E4typeE
	.def	__ZSt7forwardIP4TestEOT_RNSt16remove_referenceIS2_E4typeE;	.scl	2;	.type	32;	.endef
__ZSt7forwardIP4TestEOT_RNSt16remove_referenceIS2_E4typeE:
LFB1375:
	.loc 6 77 0
	.cfi_startproc
	pushl	%ebp
LCFI30:
	.cfi_def_cfa_offset 8
	.cfi_offset 5, -8
	movl	%esp, %ebp
LCFI31:
	.cfi_def_cfa_register 5
	.loc 6 78 0
	movl	8(%ebp), %eax
	popl	%ebp
LCFI32:
	.cfi_restore 5
	.cfi_def_cfa 4, 4
	ret
	.cfi_endproc
LFE1375:
	.section	.text$_ZNSt4pairIKiP4TestEC1IiS2_vEEOS_IT_T0_E,"x"
	.linkonce discard
	.align 2
	.globl	__ZNSt4pairIKiP4TestEC1IiS2_vEEOS_IT_T0_E
	.def	__ZNSt4pairIKiP4TestEC1IiS2_vEEOS_IT_T0_E;	.scl	2;	.type	32;	.endef
__ZNSt4pairIKiP4TestEC1IiS2_vEEOS_IT_T0_E:
LFB1377:
	.loc 7 148 0
	.cfi_startproc
	pushl	%ebp
LCFI33:
	.cfi_def_cfa_offset 8
	.cfi_offset 5, -8
	movl	%esp, %ebp
LCFI34:
	.cfi_def_cfa_register 5
	subl	$8, %esp
	movl	%ecx, -4(%ebp)
LBB8:
	.loc 7 150 0
	movl	8(%ebp), %eax
	movl	%eax, (%esp)
	call	__ZSt7forwardIiEOT_RNSt16remove_referenceIS0_E4typeE
	movl	(%eax), %edx
	movl	-4(%ebp), %eax
	movl	%edx, (%eax)
	movl	8(%ebp), %eax
	addl	$4, %eax
	movl	%eax, (%esp)
	call	__ZSt7forwardIP4TestEOT_RNSt16remove_referenceIS2_E4typeE
	movl	(%eax), %edx
	movl	-4(%ebp), %eax
	movl	%edx, 4(%eax)
LBE8:
	leave
LCFI35:
	.cfi_restore 5
	.cfi_def_cfa 4, 4
	ret	$4
	.cfi_endproc
LFE1377:
	.section	.text$_ZN6TesterC1Ev,"x"
	.linkonce discard
	.align 2
	.globl	__ZN6TesterC1Ev
	.def	__ZN6TesterC1Ev;	.scl	2;	.type	32;	.endef
__ZN6TesterC1Ev:
LFB1379:
	.file 8 "F:/CSIKI/PROGRAMING/C++/main/Croupier/BotTester/BotTester/Tester.h"
	.loc 8 19 0
	.cfi_startproc
	.cfi_personality 0,___gxx_personality_v0
	.cfi_lsda 0,LLSDA1379
	pushl	%ebp
LCFI36:
	.cfi_def_cfa_offset 8
	.cfi_offset 5, -8
	movl	%esp, %ebp
LCFI37:
	.cfi_def_cfa_register 5
	pushl	%ebx
	subl	$68, %esp
	.cfi_offset 3, -12
	movl	%ecx, -28(%ebp)
LBB9:
	.loc 8 20 0
	movl	-28(%ebp), %eax
	movl	%eax, %ecx
LEHB3:
	call	__ZNSt3mapIiP4TestSt4lessIiESaISt4pairIKiS1_EEEC1Ev
LEHE3:
	.loc 8 21 0
	movl	$4, (%esp)
LEHB4:
	call	__Znwj
LEHE4:
	movl	%eax, %ebx
	movl	$0, (%ebx)
	movl	%ebx, %ecx
	call	__ZN12ConcreteTestC1Ev
	movl	%ebx, -16(%ebp)
	movl	$0, -12(%ebp)
	leal	-24(%ebp), %eax
	leal	-16(%ebp), %edx
	movl	%edx, 4(%esp)
	leal	-12(%ebp), %edx
	movl	%edx, (%esp)
	movl	%eax, %ecx
	call	__ZNSt4pairIiP4TestEC1IiP12ConcreteTestvEEOT_OT0_
	subl	$8, %esp
	movl	-28(%ebp), %edx
	leal	-56(%ebp), %eax
	leal	-24(%ebp), %ecx
	movl	%ecx, 4(%esp)
	movl	%edx, (%esp)
	movl	%eax, %ecx
LEHB5:
	call	__ZNSt3mapIiP4TestSt4lessIiESaISt4pairIKiS1_EEE6insertIS4_IiS1_EvEES4_ISt17_Rb_tree_iteratorIS6_EbEOT_
LEHE5:
	.loc 8 21 0 is_stmt 0 discriminator 1
	subl	$8, %esp
	jmp	L30
L29:
	movl	%eax, %ebx
	jmp	L27
L28:
	movl	%eax, %ebx
L27:
	.loc 8 20 0 is_stmt 1
	movl	-28(%ebp), %eax
	movl	%eax, %ecx
	call	__ZNSt3mapIiP4TestSt4lessIiESaISt4pairIKiS1_EEED1Ev
	movl	%ebx, %eax
	movl	%eax, (%esp)
LEHB6:
	call	__Unwind_Resume
LEHE6:
L30:
LBE9:
	.loc 8 22 0
	movl	-4(%ebp), %ebx
	leave
LCFI38:
	.cfi_restore 5
	.cfi_restore 3
	.cfi_def_cfa 4, 4
	ret
	.cfi_endproc
LFE1379:
	.section	.gcc_except_table,"w"
LLSDA1379:
	.byte	0xff
	.byte	0xff
	.byte	0x1
	.uleb128 LLSDACSE1379-LLSDACSB1379
LLSDACSB1379:
	.uleb128 LEHB3-LFB1379
	.uleb128 LEHE3-LEHB3
	.uleb128 0
	.uleb128 0
	.uleb128 LEHB4-LFB1379
	.uleb128 LEHE4-LEHB4
	.uleb128 L28-LFB1379
	.uleb128 0
	.uleb128 LEHB5-LFB1379
	.uleb128 LEHE5-LEHB5
	.uleb128 L29-LFB1379
	.uleb128 0
	.uleb128 LEHB6-LFB1379
	.uleb128 LEHE6-LEHB6
	.uleb128 0
	.uleb128 0
LLSDACSE1379:
	.section	.text$_ZN6TesterC1Ev,"x"
	.linkonce discard
	.section	.text$_ZN6TesterD1Ev,"x"
	.linkonce discard
	.align 2
	.globl	__ZN6TesterD1Ev
	.def	__ZN6TesterD1Ev;	.scl	2;	.type	32;	.endef
__ZN6TesterD1Ev:
LFB1382:
	.loc 8 24 0
	.cfi_startproc
	pushl	%ebp
LCFI39:
	.cfi_def_cfa_offset 8
	.cfi_offset 5, -8
	movl	%esp, %ebp
LCFI40:
	.cfi_def_cfa_register 5
	subl	$56, %esp
	movl	%ecx, -28(%ebp)
LBB10:
LBB11:
LBB12:
	.loc 8 26 0
	movl	-28(%ebp), %eax
	movl	%eax, %ecx
	call	__ZNSt3mapIiP4TestSt4lessIiESaISt4pairIKiS1_EEE5beginEv
	movl	%eax, -16(%ebp)
	jmp	L32
L33:
	.loc 8 28 0 discriminator 2
	leal	-16(%ebp), %eax
	movl	%eax, %ecx
	call	__ZNKSt17_Rb_tree_iteratorISt4pairIKiP4TestEEptEv
	movl	4(%eax), %eax
	movl	%eax, (%esp)
	call	__ZdlPv
	.loc 8 26 0 discriminator 2
	leal	-16(%ebp), %eax
	movl	%eax, %ecx
	call	__ZNSt17_Rb_tree_iteratorISt4pairIKiP4TestEEppEv
L32:
	.loc 8 26 0 is_stmt 0 discriminator 1
	movl	-28(%ebp), %eax
	movl	%eax, %ecx
	call	__ZNSt3mapIiP4TestSt4lessIiESaISt4pairIKiS1_EEE3endEv
	movl	%eax, -12(%ebp)
	leal	-16(%ebp), %eax
	leal	-12(%ebp), %edx
	movl	%edx, (%esp)
	movl	%eax, %ecx
	call	__ZNKSt17_Rb_tree_iteratorISt4pairIKiP4TestEEneERKS5_
	subl	$4, %esp
	testb	%al, %al
	jne	L33
LBE12:
LBE11:
	.loc 8 25 0 is_stmt 1
	movl	-28(%ebp), %eax
	movl	%eax, %ecx
	call	__ZNSt3mapIiP4TestSt4lessIiESaISt4pairIKiS1_EEED1Ev
LBE10:
	.loc 8 30 0
	leave
LCFI41:
	.cfi_restore 5
	.cfi_def_cfa 4, 4
	ret
	.cfi_endproc
LFE1382:
	.def	___main;	.scl	2;	.type	32;	.endef
	.text
	.globl	_main
	.def	_main;	.scl	2;	.type	32;	.endef
_main:
LFB1383:
	.file 9 "F:/CSIKI/PROGRAMING/C++/main/Croupier/BotTester/BotTester/main.cpp"
	.loc 9 10 0
	.cfi_startproc
	.cfi_personality 0,___gxx_personality_v0
	.cfi_lsda 0,LLSDA1383
	leal	4(%esp), %ecx
LCFI42:
	.cfi_def_cfa 1, 0
	andl	$-16, %esp
	pushl	-4(%ecx)
	pushl	%ebp
	.cfi_escape 0x10,0x5,0x2,0x75,0
	movl	%esp, %ebp
	pushl	%esi
	pushl	%ebx
	pushl	%ecx
LCFI43:
	.cfi_escape 0xf,0x3,0x75,0x74,0x6
	.cfi_escape 0x10,0x6,0x2,0x75,0x7c
	.cfi_escape 0x10,0x3,0x2,0x75,0x78
	subl	$172, %esp
	movl	%ecx, %ebx
	.loc 9 10 0
	call	___main
LBB13:
	.loc 9 11 0
	cmpl	$3, (%ebx)
	jg	L36
	.loc 9 13 0
	movl	$-1, %ebx
	jmp	L41
L36:
	.loc 9 17 0
	movl	4(%ebx), %eax
	addl	$4, %eax
	movl	(%eax), %eax
	movl	%eax, (%esp)
	call	_atoi
	movl	%eax, -32(%ebp)
	.loc 9 18 0
	movl	4(%ebx), %eax
	addl	$8, %eax
	movl	(%eax), %eax
	movl	%eax, (%esp)
	call	_atoi
	movl	%eax, -36(%ebp)
	.loc 9 19 0
	movl	4(%ebx), %eax
	addl	$12, %eax
	movl	(%eax), %eax
	movl	%eax, (%esp)
	call	_atoi
	movl	%eax, -40(%ebp)
	.loc 9 20 0
	movl	4(%ebx), %eax
	addl	$16, %eax
	movl	(%eax), %eax
	movl	%eax, (%esp)
	call	_atoi
	movl	%eax, -44(%ebp)
	.loc 9 21 0
	movl	4(%ebx), %eax
	movl	20(%eax), %eax
	movl	%eax, -48(%ebp)
	.loc 9 22 0
	movl	4(%ebx), %eax
	movl	24(%eax), %eax
	movl	%eax, -52(%ebp)
	.loc 9 23 0
	movl	4(%ebx), %eax
	addl	$28, %eax
	movl	(%eax), %eax
	movl	%eax, (%esp)
	call	_atoi
	movl	%eax, -56(%ebp)
	.loc 9 24 0
	movl	4(%ebx), %eax
	addl	$32, %eax
	movl	(%eax), %eax
	movl	%eax, (%esp)
	call	_atoi
	movl	%eax, -60(%ebp)
	.loc 9 25 0
	movl	-60(%ebp), %eax
	sall	$2, %eax
	movl	%eax, (%esp)
LEHB7:
	call	__Znaj
LEHE7:
	movl	%eax, -64(%ebp)
LBB14:
	.loc 9 26 0
	movl	$0, -28(%ebp)
	jmp	L38
L39:
	.loc 9 28 0 discriminator 2
	movl	-28(%ebp), %eax
	leal	0(,%eax,4), %edx
	movl	-64(%ebp), %eax
	leal	(%edx,%eax), %esi
	movl	-28(%ebp), %eax
	addl	$9, %eax
	leal	0(,%eax,4), %edx
	movl	4(%ebx), %eax
	addl	%edx, %eax
	movl	(%eax), %eax
	movl	%eax, (%esp)
	call	_atoi
	movl	%eax, (%esi)
	.loc 9 26 0 discriminator 2
	incl	-28(%ebp)
L38:
	.loc 9 26 0 is_stmt 0 discriminator 1
	movl	-60(%ebp), %eax
	cmpl	-28(%ebp), %eax
	seta	%al
	testb	%al, %al
	jne	L39
LBE14:
	.loc 9 32 0 is_stmt 1
	leal	-73(%ebp), %eax
	movl	%eax, %ecx
	call	__ZNSaIcEC1Ev
	leal	-80(%ebp), %eax
	leal	-73(%ebp), %edx
	movl	%edx, 4(%esp)
	movl	-52(%ebp), %edx
	movl	%edx, (%esp)
	movl	%eax, %ecx
LEHB8:
	call	__ZNSsC1EPKcRKSaIcE
LEHE8:
	subl	$8, %esp
	leal	-65(%ebp), %eax
	movl	%eax, %ecx
	call	__ZNSaIcEC1Ev
	leal	-72(%ebp), %eax
	leal	-65(%ebp), %edx
	movl	%edx, 4(%esp)
	movl	-48(%ebp), %edx
	movl	%edx, (%esp)
	movl	%eax, %ecx
LEHB9:
	call	__ZNSsC1EPKcRKSaIcE
LEHE9:
	.loc 9 32 0 is_stmt 0 discriminator 1
	subl	$8, %esp
	leal	-144(%ebp), %eax
	movl	-64(%ebp), %edx
	movl	%edx, 28(%esp)
	movl	-60(%ebp), %edx
	movl	%edx, 24(%esp)
	movl	-56(%ebp), %edx
	movl	%edx, 20(%esp)
	movl	$1000, 16(%esp)
	leal	-80(%ebp), %edx
	movl	%edx, 12(%esp)
	leal	-72(%ebp), %edx
	movl	%edx, 8(%esp)
	movl	-32(%ebp), %edx
	movl	%edx, 4(%esp)
	movl	-36(%ebp), %edx
	movl	%edx, (%esp)
	movl	%eax, %ecx
LEHB10:
	call	__ZN7BotDataC1EiiSsSsi11BotLanguageiPi
LEHE10:
	.loc 9 32 0 discriminator 2
	subl	$32, %esp
	leal	-72(%ebp), %eax
	movl	%eax, %ecx
	call	__ZNSsD1Ev
	leal	-65(%ebp), %eax
	movl	%eax, %ecx
	call	__ZNSaIcED1Ev
	leal	-80(%ebp), %eax
	movl	%eax, %ecx
	call	__ZNSsD1Ev
	leal	-73(%ebp), %eax
	movl	%eax, %ecx
	call	__ZNSaIcED1Ev
	.loc 9 34 0 is_stmt 1 discriminator 2
	leal	-104(%ebp), %eax
	movl	%eax, %ecx
LEHB11:
	call	__ZN6TesterC1Ev
LEHE11:
	.loc 9 35 0
	leal	-104(%ebp), %eax
	movl	-44(%ebp), %edx
	movl	%edx, 8(%esp)
	movl	-40(%ebp), %edx
	movl	%edx, 4(%esp)
	leal	-144(%ebp), %edx
	movl	%edx, (%esp)
	movl	%eax, %ecx
LEHB12:
	call	__ZN6Tester4testEP7BotDataii
LEHE12:
	subl	$12, %esp
	.loc 9 37 0
	cmpl	$0, -64(%ebp)
	je	L40
	.loc 9 37 0 is_stmt 0 discriminator 1
	movl	-64(%ebp), %eax
	movl	%eax, (%esp)
	call	__ZdaPv
L40:
	.loc 9 39 0 is_stmt 1
	movl	-44(%ebp), %ebx
	leal	-104(%ebp), %eax
	movl	%eax, %ecx
	call	__ZN6TesterD1Ev
	leal	-144(%ebp), %eax
	movl	%eax, %ecx
	call	__ZN7BotDataD1Ev
L41:
	movl	%ebx, %eax
	jmp	L54
L51:
	movl	%eax, %ebx
	.loc 9 32 0
	leal	-72(%ebp), %eax
	movl	%eax, %ecx
	call	__ZNSsD1Ev
	jmp	L43
L50:
	movl	%eax, %ebx
L43:
	leal	-65(%ebp), %eax
	movl	%eax, %ecx
	call	__ZNSaIcED1Ev
	leal	-80(%ebp), %eax
	movl	%eax, %ecx
	call	__ZNSsD1Ev
	jmp	L44
L49:
	movl	%eax, %ebx
L44:
	leal	-73(%ebp), %eax
	movl	%eax, %ecx
	call	__ZNSaIcED1Ev
	movl	%ebx, %eax
	jmp	L45
L53:
	movl	%eax, %ebx
	.loc 9 39 0
	leal	-104(%ebp), %eax
	movl	%eax, %ecx
	call	__ZN6TesterD1Ev
	jmp	L47
L52:
	movl	%eax, %ebx
L47:
	leal	-144(%ebp), %eax
	movl	%eax, %ecx
	call	__ZN7BotDataD1Ev
	movl	%ebx, %eax
	jmp	L45
L48:
L45:
	movl	%eax, (%esp)
LEHB13:
	call	__Unwind_Resume
LEHE13:
L54:
LBE13:
	.loc 9 40 0
	leal	-12(%ebp), %esp
	popl	%ecx
LCFI44:
	.cfi_restore 1
	.cfi_def_cfa 1, 0
	popl	%ebx
	.cfi_restore 3
	popl	%esi
	.cfi_restore 6
	popl	%ebp
	.cfi_restore 5
	leal	-4(%ecx), %esp
LCFI45:
	.cfi_def_cfa 4, 4
	ret
	.cfi_endproc
LFE1383:
	.section	.gcc_except_table,"w"
LLSDA1383:
	.byte	0xff
	.byte	0xff
	.byte	0x1
	.uleb128 LLSDACSE1383-LLSDACSB1383
LLSDACSB1383:
	.uleb128 LEHB7-LFB1383
	.uleb128 LEHE7-LEHB7
	.uleb128 L48-LFB1383
	.uleb128 0
	.uleb128 LEHB8-LFB1383
	.uleb128 LEHE8-LEHB8
	.uleb128 L49-LFB1383
	.uleb128 0
	.uleb128 LEHB9-LFB1383
	.uleb128 LEHE9-LEHB9
	.uleb128 L50-LFB1383
	.uleb128 0
	.uleb128 LEHB10-LFB1383
	.uleb128 LEHE10-LEHB10
	.uleb128 L51-LFB1383
	.uleb128 0
	.uleb128 LEHB11-LFB1383
	.uleb128 LEHE11-LEHB11
	.uleb128 L52-LFB1383
	.uleb128 0
	.uleb128 LEHB12-LFB1383
	.uleb128 LEHE12-LEHB12
	.uleb128 L53-LFB1383
	.uleb128 0
	.uleb128 LEHB13-LFB1383
	.uleb128 LEHE13-LEHB13
	.uleb128 0
	.uleb128 0
LLSDACSE1383:
	.text
	.section	.text$_ZNSt3mapIiP4TestSt4lessIiESaISt4pairIKiS1_EEEC1Ev,"x"
	.linkonce discard
	.align 2
	.globl	__ZNSt3mapIiP4TestSt4lessIiESaISt4pairIKiS1_EEEC1Ev
	.def	__ZNSt3mapIiP4TestSt4lessIiESaISt4pairIKiS1_EEEC1Ev;	.scl	2;	.type	32;	.endef
__ZNSt3mapIiP4TestSt4lessIiESaISt4pairIKiS1_EEEC1Ev:
LFB1402:
	.loc 3 154 0
	.cfi_startproc
	pushl	%ebp
LCFI46:
	.cfi_def_cfa_offset 8
	.cfi_offset 5, -8
	movl	%esp, %ebp
LCFI47:
	.cfi_def_cfa_register 5
	subl	$24, %esp
	movl	%ecx, -12(%ebp)
LBB15:
	.loc 3 155 0
	movl	-12(%ebp), %eax
	movl	%eax, %ecx
	call	__ZNSt8_Rb_treeIiSt4pairIKiP4TestESt10_Select1stIS4_ESt4lessIiESaIS4_EEC1Ev
LBE15:
	leave
LCFI48:
	.cfi_restore 5
	.cfi_def_cfa 4, 4
	ret
	.cfi_endproc
LFE1402:
	.section	.text$_ZNSt8_Rb_treeIiSt4pairIKiP4TestESt10_Select1stIS4_ESt4lessIiESaIS4_EE13_Rb_tree_implIS8_Lb1EED1Ev,"x"
	.linkonce discard
	.align 2
	.globl	__ZNSt8_Rb_treeIiSt4pairIKiP4TestESt10_Select1stIS4_ESt4lessIiESaIS4_EE13_Rb_tree_implIS8_Lb1EED1Ev
	.def	__ZNSt8_Rb_treeIiSt4pairIKiP4TestESt10_Select1stIS4_ESt4lessIiESaIS4_EE13_Rb_tree_implIS8_Lb1EED1Ev;	.scl	2;	.type	32;	.endef
__ZNSt8_Rb_treeIiSt4pairIKiP4TestESt10_Select1stIS4_ESt4lessIiESaIS4_EE13_Rb_tree_implIS8_Lb1EED1Ev:
LFB1406:
	.file 10 "c:/program files (x86)/codeblocks/mingw/bin/../lib/gcc/mingw32/4.7.0/include/c++/bits/stl_tree.h"
	.loc 10 437 0
	.cfi_startproc
	pushl	%ebp
LCFI49:
	.cfi_def_cfa_offset 8
	.cfi_offset 5, -8
	movl	%esp, %ebp
LCFI50:
	.cfi_def_cfa_register 5
	subl	$24, %esp
	movl	%ecx, -12(%ebp)
LBB16:
	.loc 10 437 0
	movl	-12(%ebp), %eax
	movl	%eax, %ecx
	call	__ZNSaISt13_Rb_tree_nodeISt4pairIKiP4TestEEED2Ev
LBE16:
	leave
LCFI51:
	.cfi_restore 5
	.cfi_def_cfa 4, 4
	ret
	.cfi_endproc
LFE1406:
	.section	.text$_ZNSt8_Rb_treeIiSt4pairIKiP4TestESt10_Select1stIS4_ESt4lessIiESaIS4_EED1Ev,"x"
	.linkonce discard
	.align 2
	.globl	__ZNSt8_Rb_treeIiSt4pairIKiP4TestESt10_Select1stIS4_ESt4lessIiESaIS4_EED1Ev
	.def	__ZNSt8_Rb_treeIiSt4pairIKiP4TestESt10_Select1stIS4_ESt4lessIiESaIS4_EED1Ev;	.scl	2;	.type	32;	.endef
__ZNSt8_Rb_treeIiSt4pairIKiP4TestESt10_Select1stIS4_ESt4lessIiESaIS4_EED1Ev:
LFB1408:
	.loc 10 645 0
	.cfi_startproc
	.cfi_personality 0,___gxx_personality_v0
	.cfi_lsda 0,LLSDA1408
	pushl	%ebp
LCFI52:
	.cfi_def_cfa_offset 8
	.cfi_offset 5, -8
	movl	%esp, %ebp
LCFI53:
	.cfi_def_cfa_register 5
	subl	$40, %esp
	movl	%ecx, -12(%ebp)
LBB17:
	.loc 10 646 0
	movl	-12(%ebp), %eax
	movl	%eax, %ecx
	call	__ZNSt8_Rb_treeIiSt4pairIKiP4TestESt10_Select1stIS4_ESt4lessIiESaIS4_EE8_M_beginEv
	movl	-12(%ebp), %edx
	movl	%eax, (%esp)
	movl	%edx, %ecx
	call	__ZNSt8_Rb_treeIiSt4pairIKiP4TestESt10_Select1stIS4_ESt4lessIiESaIS4_EE8_M_eraseEPSt13_Rb_tree_nodeIS4_E
	subl	$4, %esp
	movl	-12(%ebp), %eax
	movl	%eax, %ecx
	call	__ZNSt8_Rb_treeIiSt4pairIKiP4TestESt10_Select1stIS4_ESt4lessIiESaIS4_EE13_Rb_tree_implIS8_Lb1EED1Ev
LBE17:
	leave
LCFI54:
	.cfi_restore 5
	.cfi_def_cfa 4, 4
	ret
	.cfi_endproc
LFE1408:
	.section	.gcc_except_table,"w"
LLSDA1408:
	.byte	0xff
	.byte	0xff
	.byte	0x1
	.uleb128 LLSDACSE1408-LLSDACSB1408
LLSDACSB1408:
LLSDACSE1408:
	.section	.text$_ZNSt8_Rb_treeIiSt4pairIKiP4TestESt10_Select1stIS4_ESt4lessIiESaIS4_EED1Ev,"x"
	.linkonce discard
	.section	.text$_ZSt7forwardISt4pairIiP4TestEEOT_RNSt16remove_referenceIS4_E4typeE,"x"
	.linkonce discard
	.globl	__ZSt7forwardISt4pairIiP4TestEEOT_RNSt16remove_referenceIS4_E4typeE
	.def	__ZSt7forwardISt4pairIiP4TestEEOT_RNSt16remove_referenceIS4_E4typeE;	.scl	2;	.type	32;	.endef
__ZSt7forwardISt4pairIiP4TestEEOT_RNSt16remove_referenceIS4_E4typeE:
LFB1410:
	.loc 6 77 0
	.cfi_startproc
	pushl	%ebp
LCFI55:
	.cfi_def_cfa_offset 8
	.cfi_offset 5, -8
	movl	%esp, %ebp
LCFI56:
	.cfi_def_cfa_register 5
	.loc 6 78 0
	movl	8(%ebp), %eax
	popl	%ebp
LCFI57:
	.cfi_restore 5
	.cfi_def_cfa 4, 4
	ret
	.cfi_endproc
LFE1410:
	.section	.text$_ZNSt3mapIiP4TestSt4lessIiESaISt4pairIKiS1_EEE6insertIS4_IiS1_EvEES4_ISt17_Rb_tree_iteratorIS6_EbEOT_,"x"
	.linkonce discard
	.align 2
	.globl	__ZNSt3mapIiP4TestSt4lessIiESaISt4pairIKiS1_EEE6insertIS4_IiS1_EvEES4_ISt17_Rb_tree_iteratorIS6_EbEOT_
	.def	__ZNSt3mapIiP4TestSt4lessIiESaISt4pairIKiS1_EEE6insertIS4_IiS1_EvEES4_ISt17_Rb_tree_iteratorIS6_EbEOT_;	.scl	2;	.type	32;	.endef
__ZNSt3mapIiP4TestSt4lessIiESaISt4pairIKiS1_EEE6insertIS4_IiS1_EvEES4_ISt17_Rb_tree_iteratorIS6_EbEOT_:
LFB1409:
	.loc 3 530 0
	.cfi_startproc
	pushl	%ebp
LCFI58:
	.cfi_def_cfa_offset 8
	.cfi_offset 5, -8
	movl	%esp, %ebp
LCFI59:
	.cfi_def_cfa_register 5
	subl	$40, %esp
	movl	%ecx, -12(%ebp)
	.loc 3 531 0
	movl	12(%ebp), %eax
	movl	%eax, (%esp)
	call	__ZSt7forwardISt4pairIiP4TestEEOT_RNSt16remove_referenceIS4_E4typeE
	movl	8(%ebp), %ecx
	movl	-12(%ebp), %edx
	movl	%eax, 4(%esp)
	movl	%ecx, (%esp)
	movl	%edx, %ecx
	call	__ZNSt8_Rb_treeIiSt4pairIKiP4TestESt10_Select1stIS4_ESt4lessIiESaIS4_EE16_M_insert_uniqueIS0_IiS3_EEES0_ISt17_Rb_tree_iteratorIS4_EbEOT_
	subl	$8, %esp
	movl	-12(%ebp), %eax
	leave
LCFI60:
	.cfi_restore 5
	.cfi_def_cfa 4, 4
	ret	$8
	.cfi_endproc
LFE1409:
	.section	.text$_ZNSt3mapIiP4TestSt4lessIiESaISt4pairIKiS1_EEE5beginEv,"x"
	.linkonce discard
	.align 2
	.globl	__ZNSt3mapIiP4TestSt4lessIiESaISt4pairIKiS1_EEE5beginEv
	.def	__ZNSt3mapIiP4TestSt4lessIiESaISt4pairIKiS1_EEE5beginEv;	.scl	2;	.type	32;	.endef
__ZNSt3mapIiP4TestSt4lessIiESaISt4pairIKiS1_EEE5beginEv:
LFB1411:
	.loc 3 314 0
	.cfi_startproc
	pushl	%ebp
LCFI61:
	.cfi_def_cfa_offset 8
	.cfi_offset 5, -8
	movl	%esp, %ebp
LCFI62:
	.cfi_def_cfa_register 5
	subl	$24, %esp
	movl	%ecx, -12(%ebp)
	.loc 3 315 0
	movl	-12(%ebp), %eax
	movl	%eax, %ecx
	call	__ZNSt8_Rb_treeIiSt4pairIKiP4TestESt10_Select1stIS4_ESt4lessIiESaIS4_EE5beginEv
	leave
LCFI63:
	.cfi_restore 5
	.cfi_def_cfa 4, 4
	ret
	.cfi_endproc
LFE1411:
	.section	.text$_ZNSt3mapIiP4TestSt4lessIiESaISt4pairIKiS1_EEE3endEv,"x"
	.linkonce discard
	.align 2
	.globl	__ZNSt3mapIiP4TestSt4lessIiESaISt4pairIKiS1_EEE3endEv
	.def	__ZNSt3mapIiP4TestSt4lessIiESaISt4pairIKiS1_EEE3endEv;	.scl	2;	.type	32;	.endef
__ZNSt3mapIiP4TestSt4lessIiESaISt4pairIKiS1_EEE3endEv:
LFB1412:
	.loc 3 332 0
	.cfi_startproc
	pushl	%ebp
LCFI64:
	.cfi_def_cfa_offset 8
	.cfi_offset 5, -8
	movl	%esp, %ebp
LCFI65:
	.cfi_def_cfa_register 5
	subl	$24, %esp
	movl	%ecx, -12(%ebp)
	.loc 3 333 0
	movl	-12(%ebp), %eax
	movl	%eax, %ecx
	call	__ZNSt8_Rb_treeIiSt4pairIKiP4TestESt10_Select1stIS4_ESt4lessIiESaIS4_EE3endEv
	leave
LCFI66:
	.cfi_restore 5
	.cfi_def_cfa 4, 4
	ret
	.cfi_endproc
LFE1412:
	.section	.text$_ZNKSt17_Rb_tree_iteratorISt4pairIKiP4TestEEneERKS5_,"x"
	.linkonce discard
	.align 2
	.globl	__ZNKSt17_Rb_tree_iteratorISt4pairIKiP4TestEEneERKS5_
	.def	__ZNKSt17_Rb_tree_iteratorISt4pairIKiP4TestEEneERKS5_;	.scl	2;	.type	32;	.endef
__ZNKSt17_Rb_tree_iteratorISt4pairIKiP4TestEEneERKS5_:
LFB1413:
	.loc 10 220 0
	.cfi_startproc
	pushl	%ebp
LCFI67:
	.cfi_def_cfa_offset 8
	.cfi_offset 5, -8
	movl	%esp, %ebp
LCFI68:
	.cfi_def_cfa_register 5
	subl	$4, %esp
	movl	%ecx, -4(%ebp)
	.loc 10 221 0
	movl	-4(%ebp), %eax
	movl	(%eax), %edx
	movl	8(%ebp), %eax
	movl	(%eax), %eax
	cmpl	%eax, %edx
	setne	%al
	leave
LCFI69:
	.cfi_restore 5
	.cfi_def_cfa 4, 4
	ret	$4
	.cfi_endproc
LFE1413:
	.section	.text$_ZNSt17_Rb_tree_iteratorISt4pairIKiP4TestEEppEv,"x"
	.linkonce discard
	.align 2
	.globl	__ZNSt17_Rb_tree_iteratorISt4pairIKiP4TestEEppEv
	.def	__ZNSt17_Rb_tree_iteratorISt4pairIKiP4TestEEppEv;	.scl	2;	.type	32;	.endef
__ZNSt17_Rb_tree_iteratorISt4pairIKiP4TestEEppEv:
LFB1414:
	.loc 10 186 0
	.cfi_startproc
	pushl	%ebp
LCFI70:
	.cfi_def_cfa_offset 8
	.cfi_offset 5, -8
	movl	%esp, %ebp
LCFI71:
	.cfi_def_cfa_register 5
	subl	$40, %esp
	movl	%ecx, -12(%ebp)
	.loc 10 188 0
	movl	-12(%ebp), %eax
	movl	(%eax), %eax
	movl	%eax, (%esp)
	call	__ZSt18_Rb_tree_incrementPSt18_Rb_tree_node_base
	movl	-12(%ebp), %edx
	movl	%eax, (%edx)
	.loc 10 189 0
	movl	-12(%ebp), %eax
	.loc 10 190 0
	leave
LCFI72:
	.cfi_restore 5
	.cfi_def_cfa 4, 4
	ret
	.cfi_endproc
LFE1414:
	.section	.text$_ZNKSt17_Rb_tree_iteratorISt4pairIKiP4TestEEptEv,"x"
	.linkonce discard
	.align 2
	.globl	__ZNKSt17_Rb_tree_iteratorISt4pairIKiP4TestEEptEv
	.def	__ZNKSt17_Rb_tree_iteratorISt4pairIKiP4TestEEptEv;	.scl	2;	.type	32;	.endef
__ZNKSt17_Rb_tree_iteratorISt4pairIKiP4TestEEptEv:
LFB1415:
	.loc 10 181 0
	.cfi_startproc
	pushl	%ebp
LCFI73:
	.cfi_def_cfa_offset 8
	.cfi_offset 5, -8
	movl	%esp, %ebp
LCFI74:
	.cfi_def_cfa_register 5
	subl	$40, %esp
	movl	%ecx, -12(%ebp)
	.loc 10 183 0
	movl	-12(%ebp), %eax
	movl	(%eax), %eax
	addl	$16, %eax
	movl	%eax, (%esp)
	call	__ZSt11__addressofISt4pairIKiP4TestEEPT_RS5_
	leave
LCFI75:
	.cfi_restore 5
	.cfi_def_cfa 4, 4
	ret
	.cfi_endproc
LFE1415:
	.section	.text$_ZNSt8_Rb_treeIiSt4pairIKiP4TestESt10_Select1stIS4_ESt4lessIiESaIS4_EEC1Ev,"x"
	.linkonce discard
	.align 2
	.globl	__ZNSt8_Rb_treeIiSt4pairIKiP4TestESt10_Select1stIS4_ESt4lessIiESaIS4_EEC1Ev
	.def	__ZNSt8_Rb_treeIiSt4pairIKiP4TestESt10_Select1stIS4_ESt4lessIiESaIS4_EEC1Ev;	.scl	2;	.type	32;	.endef
__ZNSt8_Rb_treeIiSt4pairIKiP4TestESt10_Select1stIS4_ESt4lessIiESaIS4_EEC1Ev:
LFB1440:
	.loc 10 623 0
	.cfi_startproc
	pushl	%ebp
LCFI76:
	.cfi_def_cfa_offset 8
	.cfi_offset 5, -8
	movl	%esp, %ebp
LCFI77:
	.cfi_def_cfa_register 5
	subl	$24, %esp
	movl	%ecx, -12(%ebp)
LBB18:
	.loc 10 623 0
	movl	-12(%ebp), %eax
	movl	%eax, %ecx
	call	__ZNSt8_Rb_treeIiSt4pairIKiP4TestESt10_Select1stIS4_ESt4lessIiESaIS4_EE13_Rb_tree_implIS8_Lb1EEC1Ev
LBE18:
	leave
LCFI78:
	.cfi_restore 5
	.cfi_def_cfa 4, 4
	ret
	.cfi_endproc
LFE1440:
	.section	.text$_ZNSaISt13_Rb_tree_nodeISt4pairIKiP4TestEEED2Ev,"x"
	.linkonce discard
	.align 2
	.globl	__ZNSaISt13_Rb_tree_nodeISt4pairIKiP4TestEEED2Ev
	.def	__ZNSaISt13_Rb_tree_nodeISt4pairIKiP4TestEEED2Ev;	.scl	2;	.type	32;	.endef
__ZNSaISt13_Rb_tree_nodeISt4pairIKiP4TestEEED2Ev:
LFB1442:
	.file 11 "c:/program files (x86)/codeblocks/mingw/bin/../lib/gcc/mingw32/4.7.0/include/c++/bits/allocator.h"
	.loc 11 112 0
	.cfi_startproc
	pushl	%ebp
LCFI79:
	.cfi_def_cfa_offset 8
	.cfi_offset 5, -8
	movl	%esp, %ebp
LCFI80:
	.cfi_def_cfa_register 5
	subl	$24, %esp
	movl	%ecx, -12(%ebp)
LBB19:
	.loc 11 112 0
	movl	-12(%ebp), %eax
	movl	%eax, %ecx
	call	__ZN9__gnu_cxx13new_allocatorISt13_Rb_tree_nodeISt4pairIKiP4TestEEED2Ev
LBE19:
	leave
LCFI81:
	.cfi_restore 5
	.cfi_def_cfa 4, 4
	ret
	.cfi_endproc
LFE1442:
	.section	.text$_ZNSt8_Rb_treeIiSt4pairIKiP4TestESt10_Select1stIS4_ESt4lessIiESaIS4_EE8_M_eraseEPSt13_Rb_tree_nodeIS4_E,"x"
	.linkonce discard
	.align 2
	.globl	__ZNSt8_Rb_treeIiSt4pairIKiP4TestESt10_Select1stIS4_ESt4lessIiESaIS4_EE8_M_eraseEPSt13_Rb_tree_nodeIS4_E
	.def	__ZNSt8_Rb_treeIiSt4pairIKiP4TestESt10_Select1stIS4_ESt4lessIiESaIS4_EE8_M_eraseEPSt13_Rb_tree_nodeIS4_E;	.scl	2;	.type	32;	.endef
__ZNSt8_Rb_treeIiSt4pairIKiP4TestESt10_Select1stIS4_ESt4lessIiESaIS4_EE8_M_eraseEPSt13_Rb_tree_nodeIS4_E:
LFB1444:
	.loc 10 1076 0
	.cfi_startproc
	pushl	%ebp
LCFI82:
	.cfi_def_cfa_offset 8
	.cfi_offset 5, -8
	movl	%esp, %ebp
LCFI83:
	.cfi_def_cfa_register 5
	subl	$56, %esp
	movl	%ecx, -28(%ebp)
LBB20:
	.loc 10 1080 0
	jmp	L78
L79:
LBB21:
	.loc 10 1082 0
	movl	8(%ebp), %eax
	movl	%eax, (%esp)
	call	__ZNSt8_Rb_treeIiSt4pairIKiP4TestESt10_Select1stIS4_ESt4lessIiESaIS4_EE8_S_rightEPSt18_Rb_tree_node_base
	movl	-28(%ebp), %edx
	movl	%eax, (%esp)
	movl	%edx, %ecx
	call	__ZNSt8_Rb_treeIiSt4pairIKiP4TestESt10_Select1stIS4_ESt4lessIiESaIS4_EE8_M_eraseEPSt13_Rb_tree_nodeIS4_E
	subl	$4, %esp
	.loc 10 1083 0
	movl	8(%ebp), %eax
	movl	%eax, (%esp)
	call	__ZNSt8_Rb_treeIiSt4pairIKiP4TestESt10_Select1stIS4_ESt4lessIiESaIS4_EE7_S_leftEPSt18_Rb_tree_node_base
	movl	%eax, -12(%ebp)
	.loc 10 1084 0
	movl	-28(%ebp), %eax
	movl	8(%ebp), %edx
	movl	%edx, (%esp)
	movl	%eax, %ecx
	call	__ZNSt8_Rb_treeIiSt4pairIKiP4TestESt10_Select1stIS4_ESt4lessIiESaIS4_EE15_M_destroy_nodeEPSt13_Rb_tree_nodeIS4_E
	subl	$4, %esp
	.loc 10 1085 0
	movl	-12(%ebp), %eax
	movl	%eax, 8(%ebp)
L78:
LBE21:
	.loc 10 1080 0 discriminator 1
	cmpl	$0, 8(%ebp)
	setne	%al
	testb	%al, %al
	jne	L79
LBE20:
	.loc 10 1087 0
	leave
LCFI84:
	.cfi_restore 5
	.cfi_def_cfa 4, 4
	ret	$4
	.cfi_endproc
LFE1444:
	.section	.text$_ZNSt8_Rb_treeIiSt4pairIKiP4TestESt10_Select1stIS4_ESt4lessIiESaIS4_EE8_M_beginEv,"x"
	.linkonce discard
	.align 2
	.globl	__ZNSt8_Rb_treeIiSt4pairIKiP4TestESt10_Select1stIS4_ESt4lessIiESaIS4_EE8_M_beginEv
	.def	__ZNSt8_Rb_treeIiSt4pairIKiP4TestESt10_Select1stIS4_ESt4lessIiESaIS4_EE8_M_beginEv;	.scl	2;	.type	32;	.endef
__ZNSt8_Rb_treeIiSt4pairIKiP4TestESt10_Select1stIS4_ESt4lessIiESaIS4_EE8_M_beginEv:
LFB1445:
	.loc 10 499 0
	.cfi_startproc
	pushl	%ebp
LCFI85:
	.cfi_def_cfa_offset 8
	.cfi_offset 5, -8
	movl	%esp, %ebp
LCFI86:
	.cfi_def_cfa_register 5
	subl	$4, %esp
	movl	%ecx, -4(%ebp)
	.loc 10 500 0
	movl	-4(%ebp), %eax
	movl	8(%eax), %eax
	leave
LCFI87:
	.cfi_restore 5
	.cfi_def_cfa 4, 4
	ret
	.cfi_endproc
LFE1445:
	.section	.text$_ZSt7forwardISt17_Rb_tree_iteratorISt4pairIKiP4TestEEEOT_RNSt16remove_referenceIS7_E4typeE,"x"
	.linkonce discard
	.globl	__ZSt7forwardISt17_Rb_tree_iteratorISt4pairIKiP4TestEEEOT_RNSt16remove_referenceIS7_E4typeE
	.def	__ZSt7forwardISt17_Rb_tree_iteratorISt4pairIKiP4TestEEEOT_RNSt16remove_referenceIS7_E4typeE;	.scl	2;	.type	32;	.endef
__ZSt7forwardISt17_Rb_tree_iteratorISt4pairIKiP4TestEEEOT_RNSt16remove_referenceIS7_E4typeE:
LFB1448:
	.loc 6 77 0
	.cfi_startproc
	pushl	%ebp
LCFI88:
	.cfi_def_cfa_offset 8
	.cfi_offset 5, -8
	movl	%esp, %ebp
LCFI89:
	.cfi_def_cfa_register 5
	.loc 6 78 0
	movl	8(%ebp), %eax
	popl	%ebp
LCFI90:
	.cfi_restore 5
	.cfi_def_cfa 4, 4
	ret
	.cfi_endproc
LFE1448:
	.section	.text$_ZSt7forwardIbEOT_RNSt16remove_referenceIS0_E4typeE,"x"
	.linkonce discard
	.globl	__ZSt7forwardIbEOT_RNSt16remove_referenceIS0_E4typeE
	.def	__ZSt7forwardIbEOT_RNSt16remove_referenceIS0_E4typeE;	.scl	2;	.type	32;	.endef
__ZSt7forwardIbEOT_RNSt16remove_referenceIS0_E4typeE:
LFB1449:
	.loc 6 77 0
	.cfi_startproc
	pushl	%ebp
LCFI91:
	.cfi_def_cfa_offset 8
	.cfi_offset 5, -8
	movl	%esp, %ebp
LCFI92:
	.cfi_def_cfa_register 5
	.loc 6 78 0
	movl	8(%ebp), %eax
	popl	%ebp
LCFI93:
	.cfi_restore 5
	.cfi_def_cfa 4, 4
	ret
	.cfi_endproc
LFE1449:
	.section	.text$_ZNSt4pairISt17_Rb_tree_iteratorIS_IKiP4TestEEbEC1IS5_bvEEOT_OT0_,"x"
	.linkonce discard
	.align 2
	.globl	__ZNSt4pairISt17_Rb_tree_iteratorIS_IKiP4TestEEbEC1IS5_bvEEOT_OT0_
	.def	__ZNSt4pairISt17_Rb_tree_iteratorIS_IKiP4TestEEbEC1IS5_bvEEOT_OT0_;	.scl	2;	.type	32;	.endef
__ZNSt4pairISt17_Rb_tree_iteratorIS_IKiP4TestEEbEC1IS5_bvEEOT_OT0_:
LFB1451:
	.loc 7 142 0
	.cfi_startproc
	pushl	%ebp
LCFI94:
	.cfi_def_cfa_offset 8
	.cfi_offset 5, -8
	movl	%esp, %ebp
LCFI95:
	.cfi_def_cfa_register 5
	subl	$8, %esp
	movl	%ecx, -4(%ebp)
LBB22:
	.loc 7 143 0
	movl	8(%ebp), %eax
	movl	%eax, (%esp)
	call	__ZSt7forwardISt17_Rb_tree_iteratorISt4pairIKiP4TestEEEOT_RNSt16remove_referenceIS7_E4typeE
	movl	-4(%ebp), %edx
	movl	(%eax), %eax
	movl	%eax, (%edx)
	movl	12(%ebp), %eax
	movl	%eax, (%esp)
	call	__ZSt7forwardIbEOT_RNSt16remove_referenceIS0_E4typeE
	movb	(%eax), %dl
	movl	-4(%ebp), %eax
	movb	%dl, 4(%eax)
LBE22:
	leave
LCFI96:
	.cfi_restore 5
	.cfi_def_cfa 4, 4
	ret	$8
	.cfi_endproc
LFE1451:
	.section	.text$_ZSt7forwardIRSt17_Rb_tree_iteratorISt4pairIKiP4TestEEEOT_RNSt16remove_referenceIS8_E4typeE,"x"
	.linkonce discard
	.globl	__ZSt7forwardIRSt17_Rb_tree_iteratorISt4pairIKiP4TestEEEOT_RNSt16remove_referenceIS8_E4typeE
	.def	__ZSt7forwardIRSt17_Rb_tree_iteratorISt4pairIKiP4TestEEEOT_RNSt16remove_referenceIS8_E4typeE;	.scl	2;	.type	32;	.endef
__ZSt7forwardIRSt17_Rb_tree_iteratorISt4pairIKiP4TestEEEOT_RNSt16remove_referenceIS8_E4typeE:
LFB1453:
	.loc 6 77 0
	.cfi_startproc
	pushl	%ebp
LCFI97:
	.cfi_def_cfa_offset 8
	.cfi_offset 5, -8
	movl	%esp, %ebp
LCFI98:
	.cfi_def_cfa_register 5
	.loc 6 78 0
	movl	8(%ebp), %eax
	popl	%ebp
LCFI99:
	.cfi_restore 5
	.cfi_def_cfa 4, 4
	ret
	.cfi_endproc
LFE1453:
	.section	.text$_ZNSt4pairISt17_Rb_tree_iteratorIS_IKiP4TestEEbEC1IRS5_bvEEOT_OT0_,"x"
	.linkonce discard
	.align 2
	.globl	__ZNSt4pairISt17_Rb_tree_iteratorIS_IKiP4TestEEbEC1IRS5_bvEEOT_OT0_
	.def	__ZNSt4pairISt17_Rb_tree_iteratorIS_IKiP4TestEEbEC1IRS5_bvEEOT_OT0_;	.scl	2;	.type	32;	.endef
__ZNSt4pairISt17_Rb_tree_iteratorIS_IKiP4TestEEbEC1IRS5_bvEEOT_OT0_:
LFB1455:
	.loc 7 142 0
	.cfi_startproc
	pushl	%ebp
LCFI100:
	.cfi_def_cfa_offset 8
	.cfi_offset 5, -8
	movl	%esp, %ebp
LCFI101:
	.cfi_def_cfa_register 5
	subl	$8, %esp
	movl	%ecx, -4(%ebp)
LBB23:
	.loc 7 143 0
	movl	8(%ebp), %eax
	movl	%eax, (%esp)
	call	__ZSt7forwardIRSt17_Rb_tree_iteratorISt4pairIKiP4TestEEEOT_RNSt16remove_referenceIS8_E4typeE
	movl	-4(%ebp), %edx
	movl	(%eax), %eax
	movl	%eax, (%edx)
	movl	12(%ebp), %eax
	movl	%eax, (%esp)
	call	__ZSt7forwardIbEOT_RNSt16remove_referenceIS0_E4typeE
	movb	(%eax), %dl
	movl	-4(%ebp), %eax
	movb	%dl, 4(%eax)
LBE23:
	leave
LCFI102:
	.cfi_restore 5
	.cfi_def_cfa 4, 4
	ret	$8
	.cfi_endproc
LFE1455:
	.section	.text$_ZNSt8_Rb_treeIiSt4pairIKiP4TestESt10_Select1stIS4_ESt4lessIiESaIS4_EE16_M_insert_uniqueIS0_IiS3_EEES0_ISt17_Rb_tree_iteratorIS4_EbEOT_,"x"
	.linkonce discard
	.align 2
	.globl	__ZNSt8_Rb_treeIiSt4pairIKiP4TestESt10_Select1stIS4_ESt4lessIiESaIS4_EE16_M_insert_uniqueIS0_IiS3_EEES0_ISt17_Rb_tree_iteratorIS4_EbEOT_
	.def	__ZNSt8_Rb_treeIiSt4pairIKiP4TestESt10_Select1stIS4_ESt4lessIiESaIS4_EE16_M_insert_uniqueIS0_IiS3_EEES0_ISt17_Rb_tree_iteratorIS4_EbEOT_;	.scl	2;	.type	32;	.endef
__ZNSt8_Rb_treeIiSt4pairIKiP4TestESt10_Select1stIS4_ESt4lessIiESaIS4_EE16_M_insert_uniqueIS0_IiS3_EEES0_ISt17_Rb_tree_iteratorIS4_EbEOT_:
LFB1446:
	.loc 10 1272 0
	.cfi_startproc
	.cfi_personality 0,___gxx_personality_v0
	.cfi_lsda 0,LLSDA1446
	pushl	%ebp
LCFI103:
	.cfi_def_cfa_offset 8
	.cfi_offset 5, -8
	movl	%esp, %ebp
LCFI104:
	.cfi_def_cfa_register 5
	pushl	%ebx
	subl	$84, %esp
	.cfi_offset 3, -12
	movl	%ecx, -60(%ebp)
LBB24:
	.loc 10 1279 0
	movl	8(%ebp), %ecx
	call	__ZNSt8_Rb_treeIiSt4pairIKiP4TestESt10_Select1stIS4_ESt4lessIiESaIS4_EE8_M_beginEv
	movl	%eax, -12(%ebp)
	.loc 10 1280 0
	movl	8(%ebp), %ecx
	call	__ZNSt8_Rb_treeIiSt4pairIKiP4TestESt10_Select1stIS4_ESt4lessIiESaIS4_EE6_M_endEv
	movl	%eax, -16(%ebp)
	.loc 10 1281 0
	movb	$1, -17(%ebp)
	.loc 10 1282 0
	jmp	L91
L94:
	.loc 10 1284 0
	movl	-12(%ebp), %eax
	movl	%eax, -16(%ebp)
	.loc 10 1285 0
	movl	-12(%ebp), %eax
	movl	%eax, (%esp)
LEHB14:
	call	__ZNSt8_Rb_treeIiSt4pairIKiP4TestESt10_Select1stIS4_ESt4lessIiESaIS4_EE6_S_keyEPKSt13_Rb_tree_nodeIS4_E
LEHE14:
	movl	%eax, %ebx
	leal	-41(%ebp), %eax
	movl	12(%ebp), %edx
	movl	%edx, (%esp)
	movl	%eax, %ecx
	call	__ZNKSt10_Select1stISt4pairIKiP4TestEEclIS0_IiS3_EEERNT_10first_typeERS8_
	subl	$4, %esp
	movl	8(%ebp), %edx
	movl	%ebx, 4(%esp)
	movl	%eax, (%esp)
	movl	%edx, %ecx
	call	__ZNKSt4lessIiEclERKiS2_
	subl	$8, %esp
	movb	%al, -17(%ebp)
	.loc 10 1286 0
	cmpb	$0, -17(%ebp)
	je	L92
	.loc 10 1286 0 is_stmt 0 discriminator 1
	movl	-12(%ebp), %eax
	movl	%eax, (%esp)
	call	__ZNSt8_Rb_treeIiSt4pairIKiP4TestESt10_Select1stIS4_ESt4lessIiESaIS4_EE7_S_leftEPSt18_Rb_tree_node_base
	jmp	L93
L92:
	.loc 10 1286 0 discriminator 2
	movl	-12(%ebp), %eax
	movl	%eax, (%esp)
	call	__ZNSt8_Rb_treeIiSt4pairIKiP4TestESt10_Select1stIS4_ESt4lessIiESaIS4_EE8_S_rightEPSt18_Rb_tree_node_base
L93:
	.loc 10 1286 0 discriminator 3
	movl	%eax, -12(%ebp)
L91:
	.loc 10 1282 0 is_stmt 1 discriminator 1
	cmpl	$0, -12(%ebp)
	setne	%al
	testb	%al, %al
	jne	L94
	.loc 10 1288 0
	leal	-48(%ebp), %eax
	movl	-16(%ebp), %edx
	movl	%edx, (%esp)
	movl	%eax, %ecx
	call	__ZNSt17_Rb_tree_iteratorISt4pairIKiP4TestEEC1EPSt13_Rb_tree_nodeIS4_E
	subl	$4, %esp
	.loc 10 1289 0
	cmpb	$0, -17(%ebp)
	je	L95
	.loc 10 1291 0
	movl	8(%ebp), %ecx
	call	__ZNSt8_Rb_treeIiSt4pairIKiP4TestESt10_Select1stIS4_ESt4lessIiESaIS4_EE5beginEv
	movl	%eax, -40(%ebp)
	leal	-48(%ebp), %eax
	leal	-40(%ebp), %edx
	movl	%edx, (%esp)
	movl	%eax, %ecx
	call	__ZNKSt17_Rb_tree_iteratorISt4pairIKiP4TestEEeqERKS5_
	subl	$4, %esp
	testb	%al, %al
	je	L96
	.loc 10 1293 0
	movb	$1, -33(%ebp)
	movl	12(%ebp), %eax
	movl	%eax, (%esp)
	call	__ZSt7forwardISt4pairIiP4TestEEOT_RNSt16remove_referenceIS4_E4typeE
	movl	%eax, 8(%esp)
	movl	-16(%ebp), %eax
	movl	%eax, 4(%esp)
	movl	-12(%ebp), %eax
	movl	%eax, (%esp)
	movl	8(%ebp), %ecx
LEHB15:
	call	__ZNSt8_Rb_treeIiSt4pairIKiP4TestESt10_Select1stIS4_ESt4lessIiESaIS4_EE10_M_insert_IS0_IiS3_EEESt17_Rb_tree_iteratorIS4_EPKSt18_Rb_tree_node_baseSH_OT_
LEHE15:
	subl	$12, %esp
	movl	%eax, -32(%ebp)
	movl	-60(%ebp), %eax
	leal	-33(%ebp), %edx
	movl	%edx, 4(%esp)
	leal	-32(%ebp), %edx
	movl	%edx, (%esp)
	movl	%eax, %ecx
	call	__ZNSt4pairISt17_Rb_tree_iteratorIS_IKiP4TestEEbEC1IS5_bvEEOT_OT0_
	subl	$8, %esp
	jmp	L90
L96:
	.loc 10 1295 0
	leal	-48(%ebp), %eax
	movl	%eax, %ecx
	call	__ZNSt17_Rb_tree_iteratorISt4pairIKiP4TestEEmmEv
L95:
	.loc 10 1297 0
	leal	-26(%ebp), %eax
	movl	12(%ebp), %edx
	movl	%edx, (%esp)
	movl	%eax, %ecx
	call	__ZNKSt10_Select1stISt4pairIKiP4TestEEclIS0_IiS3_EEERNT_10first_typeERS8_
	subl	$4, %esp
	movl	%eax, %ebx
	movl	-48(%ebp), %eax
	movl	%eax, (%esp)
LEHB16:
	call	__ZNSt8_Rb_treeIiSt4pairIKiP4TestESt10_Select1stIS4_ESt4lessIiESaIS4_EE6_S_keyEPKSt18_Rb_tree_node_base
LEHE16:
	movl	%eax, %edx
	movl	8(%ebp), %eax
	movl	%ebx, 4(%esp)
	movl	%edx, (%esp)
	movl	%eax, %ecx
	call	__ZNKSt4lessIiEclERKiS2_
	subl	$8, %esp
	testb	%al, %al
	je	L98
	.loc 10 1299 0
	movb	$1, -25(%ebp)
	movl	12(%ebp), %eax
	movl	%eax, (%esp)
	call	__ZSt7forwardISt4pairIiP4TestEEOT_RNSt16remove_referenceIS4_E4typeE
	movl	%eax, 8(%esp)
	movl	-16(%ebp), %eax
	movl	%eax, 4(%esp)
	movl	-12(%ebp), %eax
	movl	%eax, (%esp)
	movl	8(%ebp), %ecx
LEHB17:
	call	__ZNSt8_Rb_treeIiSt4pairIKiP4TestESt10_Select1stIS4_ESt4lessIiESaIS4_EE10_M_insert_IS0_IiS3_EEESt17_Rb_tree_iteratorIS4_EPKSt18_Rb_tree_node_baseSH_OT_
LEHE17:
	subl	$12, %esp
	movl	%eax, -24(%ebp)
	movl	-60(%ebp), %eax
	leal	-25(%ebp), %edx
	movl	%edx, 4(%esp)
	leal	-24(%ebp), %edx
	movl	%edx, (%esp)
	movl	%eax, %ecx
	call	__ZNSt4pairISt17_Rb_tree_iteratorIS_IKiP4TestEEbEC1IS5_bvEEOT_OT0_
	subl	$8, %esp
	jmp	L90
L98:
	.loc 10 1300 0
	movb	$0, -18(%ebp)
	movl	-60(%ebp), %eax
	leal	-18(%ebp), %edx
	movl	%edx, 4(%esp)
	leal	-48(%ebp), %edx
	movl	%edx, (%esp)
	movl	%eax, %ecx
	call	__ZNSt4pairISt17_Rb_tree_iteratorIS_IKiP4TestEEbEC1IRS5_bvEEOT_OT0_
	subl	$8, %esp
	jmp	L90
L105:
	jmp	L101
L106:
	jmp	L101
L107:
	jmp	L101
L104:
L101:
	movl	%eax, (%esp)
LEHB18:
	call	__Unwind_Resume
LEHE18:
L90:
LBE24:
	.loc 10 1301 0
	movl	-60(%ebp), %eax
	movl	-4(%ebp), %ebx
	leave
LCFI105:
	.cfi_restore 5
	.cfi_restore 3
	.cfi_def_cfa 4, 4
	ret	$8
	.cfi_endproc
LFE1446:
	.section	.gcc_except_table,"w"
LLSDA1446:
	.byte	0xff
	.byte	0xff
	.byte	0x1
	.uleb128 LLSDACSE1446-LLSDACSB1446
LLSDACSB1446:
	.uleb128 LEHB14-LFB1446
	.uleb128 LEHE14-LEHB14
	.uleb128 L104-LFB1446
	.uleb128 0
	.uleb128 LEHB15-LFB1446
	.uleb128 LEHE15-LEHB15
	.uleb128 L105-LFB1446
	.uleb128 0
	.uleb128 LEHB16-LFB1446
	.uleb128 LEHE16-LEHB16
	.uleb128 L106-LFB1446
	.uleb128 0
	.uleb128 LEHB17-LFB1446
	.uleb128 LEHE17-LEHB17
	.uleb128 L107-LFB1446
	.uleb128 0
	.uleb128 LEHB18-LFB1446
	.uleb128 LEHE18-LEHB18
	.uleb128 0
	.uleb128 0
LLSDACSE1446:
	.section	.text$_ZNSt8_Rb_treeIiSt4pairIKiP4TestESt10_Select1stIS4_ESt4lessIiESaIS4_EE16_M_insert_uniqueIS0_IiS3_EEES0_ISt17_Rb_tree_iteratorIS4_EbEOT_,"x"
	.linkonce discard
	.section	.text$_ZNSt8_Rb_treeIiSt4pairIKiP4TestESt10_Select1stIS4_ESt4lessIiESaIS4_EE5beginEv,"x"
	.linkonce discard
	.align 2
	.globl	__ZNSt8_Rb_treeIiSt4pairIKiP4TestESt10_Select1stIS4_ESt4lessIiESaIS4_EE5beginEv
	.def	__ZNSt8_Rb_treeIiSt4pairIKiP4TestESt10_Select1stIS4_ESt4lessIiESaIS4_EE5beginEv;	.scl	2;	.type	32;	.endef
__ZNSt8_Rb_treeIiSt4pairIKiP4TestESt10_Select1stIS4_ESt4lessIiESaIS4_EE5beginEv:
LFB1459:
	.loc 10 657 0
	.cfi_startproc
	pushl	%ebp
LCFI106:
	.cfi_def_cfa_offset 8
	.cfi_offset 5, -8
	movl	%esp, %ebp
LCFI107:
	.cfi_def_cfa_register 5
	subl	$56, %esp
	movl	%ecx, -28(%ebp)
	.loc 10 660 0
	movl	-28(%ebp), %eax
	movl	12(%eax), %edx
	leal	-12(%ebp), %eax
	movl	%edx, (%esp)
	movl	%eax, %ecx
	call	__ZNSt17_Rb_tree_iteratorISt4pairIKiP4TestEEC1EPSt13_Rb_tree_nodeIS4_E
	subl	$4, %esp
	movl	-12(%ebp), %eax
	.loc 10 661 0
	leave
LCFI108:
	.cfi_restore 5
	.cfi_def_cfa 4, 4
	ret
	.cfi_endproc
LFE1459:
	.section	.text$_ZNSt8_Rb_treeIiSt4pairIKiP4TestESt10_Select1stIS4_ESt4lessIiESaIS4_EE3endEv,"x"
	.linkonce discard
	.align 2
	.globl	__ZNSt8_Rb_treeIiSt4pairIKiP4TestESt10_Select1stIS4_ESt4lessIiESaIS4_EE3endEv
	.def	__ZNSt8_Rb_treeIiSt4pairIKiP4TestESt10_Select1stIS4_ESt4lessIiESaIS4_EE3endEv;	.scl	2;	.type	32;	.endef
__ZNSt8_Rb_treeIiSt4pairIKiP4TestESt10_Select1stIS4_ESt4lessIiESaIS4_EE3endEv:
LFB1460:
	.loc 10 671 0
	.cfi_startproc
	pushl	%ebp
LCFI109:
	.cfi_def_cfa_offset 8
	.cfi_offset 5, -8
	movl	%esp, %ebp
LCFI110:
	.cfi_def_cfa_register 5
	subl	$56, %esp
	movl	%ecx, -28(%ebp)
	.loc 10 672 0
	movl	-28(%ebp), %eax
	leal	4(%eax), %edx
	leal	-12(%ebp), %eax
	movl	%edx, (%esp)
	movl	%eax, %ecx
	call	__ZNSt17_Rb_tree_iteratorISt4pairIKiP4TestEEC1EPSt13_Rb_tree_nodeIS4_E
	subl	$4, %esp
	movl	-12(%ebp), %eax
	leave
LCFI111:
	.cfi_restore 5
	.cfi_def_cfa 4, 4
	ret
	.cfi_endproc
LFE1460:
	.section	.text$_ZSt11__addressofISt4pairIKiP4TestEEPT_RS5_,"x"
	.linkonce discard
	.globl	__ZSt11__addressofISt4pairIKiP4TestEEPT_RS5_
	.def	__ZSt11__addressofISt4pairIKiP4TestEEPT_RS5_;	.scl	2;	.type	32;	.endef
__ZSt11__addressofISt4pairIKiP4TestEEPT_RS5_:
LFB1461:
	.loc 6 47 0
	.cfi_startproc
	pushl	%ebp
LCFI112:
	.cfi_def_cfa_offset 8
	.cfi_offset 5, -8
	movl	%esp, %ebp
LCFI113:
	.cfi_def_cfa_register 5
	.loc 6 50 0
	movl	8(%ebp), %eax
	.loc 6 51 0
	popl	%ebp
LCFI114:
	.cfi_restore 5
	.cfi_def_cfa 4, 4
	ret
	.cfi_endproc
LFE1461:
	.section	.text$_ZNSt8_Rb_treeIiSt4pairIKiP4TestESt10_Select1stIS4_ESt4lessIiESaIS4_EE13_Rb_tree_implIS8_Lb1EEC1Ev,"x"
	.linkonce discard
	.align 2
	.globl	__ZNSt8_Rb_treeIiSt4pairIKiP4TestESt10_Select1stIS4_ESt4lessIiESaIS4_EE13_Rb_tree_implIS8_Lb1EEC1Ev
	.def	__ZNSt8_Rb_treeIiSt4pairIKiP4TestESt10_Select1stIS4_ESt4lessIiESaIS4_EE13_Rb_tree_implIS8_Lb1EEC1Ev;	.scl	2;	.type	32;	.endef
__ZNSt8_Rb_treeIiSt4pairIKiP4TestESt10_Select1stIS4_ESt4lessIiESaIS4_EE13_Rb_tree_implIS8_Lb1EEC1Ev:
LFB1477:
	.loc 10 443 0
	.cfi_startproc
	pushl	%ebp
LCFI115:
	.cfi_def_cfa_offset 8
	.cfi_offset 5, -8
	movl	%esp, %ebp
LCFI116:
	.cfi_def_cfa_register 5
	pushl	%edi
	pushl	%ebx
	subl	$16, %esp
	.cfi_offset 7, -12
	.cfi_offset 3, -16
	movl	%ecx, -12(%ebp)
LBB25:
	.loc 10 445 0
	movl	-12(%ebp), %eax
	movl	%eax, %ecx
	call	__ZNSaISt13_Rb_tree_nodeISt4pairIKiP4TestEEEC2Ev
	movl	-12(%ebp), %eax
	leal	4(%eax), %ebx
	movb	$0, %al
	movl	$16, %edx
	movl	%ebx, %edi
	movl	%edx, %ecx
	rep stosb
	movl	-12(%ebp), %eax
	movl	$0, 20(%eax)
	.loc 10 446 0
	movl	-12(%ebp), %eax
	movl	%eax, %ecx
	call	__ZNSt8_Rb_treeIiSt4pairIKiP4TestESt10_Select1stIS4_ESt4lessIiESaIS4_EE13_Rb_tree_implIS8_Lb1EE13_M_initializeEv
LBE25:
	addl	$16, %esp
	popl	%ebx
	.cfi_restore 3
	popl	%edi
	.cfi_restore 7
	popl	%ebp
LCFI117:
	.cfi_restore 5
	.cfi_def_cfa 4, 4
	ret
	.cfi_endproc
LFE1477:
	.section	.text$_ZN9__gnu_cxx13new_allocatorISt13_Rb_tree_nodeISt4pairIKiP4TestEEED2Ev,"x"
	.linkonce discard
	.align 2
	.globl	__ZN9__gnu_cxx13new_allocatorISt13_Rb_tree_nodeISt4pairIKiP4TestEEED2Ev
	.def	__ZN9__gnu_cxx13new_allocatorISt13_Rb_tree_nodeISt4pairIKiP4TestEEED2Ev;	.scl	2;	.type	32;	.endef
__ZN9__gnu_cxx13new_allocatorISt13_Rb_tree_nodeISt4pairIKiP4TestEEED2Ev:
LFB1479:
	.file 12 "c:/program files (x86)/codeblocks/mingw/bin/../lib/gcc/mingw32/4.7.0/include/c++/ext/new_allocator.h"
	.loc 12 76 0
	.cfi_startproc
	pushl	%ebp
LCFI118:
	.cfi_def_cfa_offset 8
	.cfi_offset 5, -8
	movl	%esp, %ebp
LCFI119:
	.cfi_def_cfa_register 5
	subl	$4, %esp
	movl	%ecx, -4(%ebp)
	.loc 12 76 0
	leave
LCFI120:
	.cfi_restore 5
	.cfi_def_cfa 4, 4
	ret
	.cfi_endproc
LFE1479:
	.section	.text$_ZNSt8_Rb_treeIiSt4pairIKiP4TestESt10_Select1stIS4_ESt4lessIiESaIS4_EE8_S_rightEPSt18_Rb_tree_node_base,"x"
	.linkonce discard
	.globl	__ZNSt8_Rb_treeIiSt4pairIKiP4TestESt10_Select1stIS4_ESt4lessIiESaIS4_EE8_S_rightEPSt18_Rb_tree_node_base
	.def	__ZNSt8_Rb_treeIiSt4pairIKiP4TestESt10_Select1stIS4_ESt4lessIiESaIS4_EE8_S_rightEPSt18_Rb_tree_node_base;	.scl	2;	.type	32;	.endef
__ZNSt8_Rb_treeIiSt4pairIKiP4TestESt10_Select1stIS4_ESt4lessIiESaIS4_EE8_S_rightEPSt18_Rb_tree_node_base:
LFB1481:
	.loc 10 534 0
	.cfi_startproc
	pushl	%ebp
LCFI121:
	.cfi_def_cfa_offset 8
	.cfi_offset 5, -8
	movl	%esp, %ebp
LCFI122:
	.cfi_def_cfa_register 5
	.loc 10 535 0
	movl	8(%ebp), %eax
	movl	12(%eax), %eax
	popl	%ebp
LCFI123:
	.cfi_restore 5
	.cfi_def_cfa 4, 4
	ret
	.cfi_endproc
LFE1481:
	.section	.text$_ZNSt8_Rb_treeIiSt4pairIKiP4TestESt10_Select1stIS4_ESt4lessIiESaIS4_EE7_S_leftEPSt18_Rb_tree_node_base,"x"
	.linkonce discard
	.globl	__ZNSt8_Rb_treeIiSt4pairIKiP4TestESt10_Select1stIS4_ESt4lessIiESaIS4_EE7_S_leftEPSt18_Rb_tree_node_base
	.def	__ZNSt8_Rb_treeIiSt4pairIKiP4TestESt10_Select1stIS4_ESt4lessIiESaIS4_EE7_S_leftEPSt18_Rb_tree_node_base;	.scl	2;	.type	32;	.endef
__ZNSt8_Rb_treeIiSt4pairIKiP4TestESt10_Select1stIS4_ESt4lessIiESaIS4_EE7_S_leftEPSt18_Rb_tree_node_base:
LFB1482:
	.loc 10 526 0
	.cfi_startproc
	pushl	%ebp
LCFI124:
	.cfi_def_cfa_offset 8
	.cfi_offset 5, -8
	movl	%esp, %ebp
LCFI125:
	.cfi_def_cfa_register 5
	.loc 10 527 0
	movl	8(%ebp), %eax
	movl	8(%eax), %eax
	popl	%ebp
LCFI126:
	.cfi_restore 5
	.cfi_def_cfa 4, 4
	ret
	.cfi_endproc
LFE1482:
	.section	.text$_ZNSt8_Rb_treeIiSt4pairIKiP4TestESt10_Select1stIS4_ESt4lessIiESaIS4_EE15_M_destroy_nodeEPSt13_Rb_tree_nodeIS4_E,"x"
	.linkonce discard
	.align 2
	.globl	__ZNSt8_Rb_treeIiSt4pairIKiP4TestESt10_Select1stIS4_ESt4lessIiESaIS4_EE15_M_destroy_nodeEPSt13_Rb_tree_nodeIS4_E
	.def	__ZNSt8_Rb_treeIiSt4pairIKiP4TestESt10_Select1stIS4_ESt4lessIiESaIS4_EE15_M_destroy_nodeEPSt13_Rb_tree_nodeIS4_E;	.scl	2;	.type	32;	.endef
__ZNSt8_Rb_treeIiSt4pairIKiP4TestESt10_Select1stIS4_ESt4lessIiESaIS4_EE15_M_destroy_nodeEPSt13_Rb_tree_nodeIS4_E:
LFB1483:
	.loc 10 417 0
	.cfi_startproc
	pushl	%ebp
LCFI127:
	.cfi_def_cfa_offset 8
	.cfi_offset 5, -8
	movl	%esp, %ebp
LCFI128:
	.cfi_def_cfa_register 5
	subl	$40, %esp
	movl	%ecx, -12(%ebp)
	.loc 10 419 0
	movl	-12(%ebp), %eax
	movl	%eax, %ecx
	call	__ZNSt8_Rb_treeIiSt4pairIKiP4TestESt10_Select1stIS4_ESt4lessIiESaIS4_EE21_M_get_Node_allocatorEv
	movl	8(%ebp), %edx
	movl	%edx, (%esp)
	movl	%eax, %ecx
	call	__ZN9__gnu_cxx13new_allocatorISt13_Rb_tree_nodeISt4pairIKiP4TestEEE7destroyIS7_EEvPT_
	subl	$4, %esp
	.loc 10 420 0
	movl	-12(%ebp), %eax
	movl	8(%ebp), %edx
	movl	%edx, (%esp)
	movl	%eax, %ecx
	call	__ZNSt8_Rb_treeIiSt4pairIKiP4TestESt10_Select1stIS4_ESt4lessIiESaIS4_EE11_M_put_nodeEPSt13_Rb_tree_nodeIS4_E
	subl	$4, %esp
	.loc 10 421 0
	leave
LCFI129:
	.cfi_restore 5
	.cfi_def_cfa 4, 4
	ret	$4
	.cfi_endproc
LFE1483:
	.section	.text$_ZNSt8_Rb_treeIiSt4pairIKiP4TestESt10_Select1stIS4_ESt4lessIiESaIS4_EE6_M_endEv,"x"
	.linkonce discard
	.align 2
	.globl	__ZNSt8_Rb_treeIiSt4pairIKiP4TestESt10_Select1stIS4_ESt4lessIiESaIS4_EE6_M_endEv
	.def	__ZNSt8_Rb_treeIiSt4pairIKiP4TestESt10_Select1stIS4_ESt4lessIiESaIS4_EE6_M_endEv;	.scl	2;	.type	32;	.endef
__ZNSt8_Rb_treeIiSt4pairIKiP4TestESt10_Select1stIS4_ESt4lessIiESaIS4_EE6_M_endEv:
LFB1484:
	.loc 10 510 0
	.cfi_startproc
	pushl	%ebp
LCFI130:
	.cfi_def_cfa_offset 8
	.cfi_offset 5, -8
	movl	%esp, %ebp
LCFI131:
	.cfi_def_cfa_register 5
	subl	$4, %esp
	movl	%ecx, -4(%ebp)
	.loc 10 511 0
	movl	-4(%ebp), %eax
	addl	$4, %eax
	leave
LCFI132:
	.cfi_restore 5
	.cfi_def_cfa 4, 4
	ret
	.cfi_endproc
LFE1484:
	.section	.text$_ZNKSt10_Select1stISt4pairIKiP4TestEEclIS0_IiS3_EEERNT_10first_typeERS8_,"x"
	.linkonce discard
	.align 2
	.globl	__ZNKSt10_Select1stISt4pairIKiP4TestEEclIS0_IiS3_EEERNT_10first_typeERS8_
	.def	__ZNKSt10_Select1stISt4pairIKiP4TestEEclIS0_IiS3_EEERNT_10first_typeERS8_;	.scl	2;	.type	32;	.endef
__ZNKSt10_Select1stISt4pairIKiP4TestEEclIS0_IiS3_EEERNT_10first_typeERS8_:
LFB1485:
	.file 13 "c:/program files (x86)/codeblocks/mingw/bin/../lib/gcc/mingw32/4.7.0/include/c++/bits/stl_function.h"
	.loc 13 500 0
	.cfi_startproc
	pushl	%ebp
LCFI133:
	.cfi_def_cfa_offset 8
	.cfi_offset 5, -8
	movl	%esp, %ebp
LCFI134:
	.cfi_def_cfa_register 5
	subl	$4, %esp
	movl	%ecx, -4(%ebp)
	.loc 13 501 0
	movl	8(%ebp), %eax
	leave
LCFI135:
	.cfi_restore 5
	.cfi_def_cfa 4, 4
	ret	$4
	.cfi_endproc
LFE1485:
	.section	.text$_ZNSt8_Rb_treeIiSt4pairIKiP4TestESt10_Select1stIS4_ESt4lessIiESaIS4_EE6_S_keyEPKSt13_Rb_tree_nodeIS4_E,"x"
	.linkonce discard
	.globl	__ZNSt8_Rb_treeIiSt4pairIKiP4TestESt10_Select1stIS4_ESt4lessIiESaIS4_EE6_S_keyEPKSt13_Rb_tree_nodeIS4_E
	.def	__ZNSt8_Rb_treeIiSt4pairIKiP4TestESt10_Select1stIS4_ESt4lessIiESaIS4_EE6_S_keyEPKSt13_Rb_tree_nodeIS4_E;	.scl	2;	.type	32;	.endef
__ZNSt8_Rb_treeIiSt4pairIKiP4TestESt10_Select1stIS4_ESt4lessIiESaIS4_EE6_S_keyEPKSt13_Rb_tree_nodeIS4_E:
LFB1486:
	.loc 10 522 0
	.cfi_startproc
	pushl	%ebp
LCFI136:
	.cfi_def_cfa_offset 8
	.cfi_offset 5, -8
	movl	%esp, %ebp
LCFI137:
	.cfi_def_cfa_register 5
	subl	$40, %esp
	.loc 10 523 0
	movl	8(%ebp), %eax
	movl	%eax, (%esp)
	call	__ZNSt8_Rb_treeIiSt4pairIKiP4TestESt10_Select1stIS4_ESt4lessIiESaIS4_EE8_S_valueEPKSt13_Rb_tree_nodeIS4_E
	leal	-9(%ebp), %edx
	movl	%eax, (%esp)
	movl	%edx, %ecx
	call	__ZNKSt10_Select1stISt4pairIKiP4TestEEclERKS4_
	subl	$4, %esp
	leave
LCFI138:
	.cfi_restore 5
	.cfi_def_cfa 4, 4
	ret
	.cfi_endproc
LFE1486:
	.section	.text$_ZNKSt4lessIiEclERKiS2_,"x"
	.linkonce discard
	.align 2
	.globl	__ZNKSt4lessIiEclERKiS2_
	.def	__ZNKSt4lessIiEclERKiS2_;	.scl	2;	.type	32;	.endef
__ZNKSt4lessIiEclERKiS2_:
LFB1487:
	.loc 13 235 0
	.cfi_startproc
	pushl	%ebp
LCFI139:
	.cfi_def_cfa_offset 8
	.cfi_offset 5, -8
	movl	%esp, %ebp
LCFI140:
	.cfi_def_cfa_register 5
	subl	$4, %esp
	movl	%ecx, -4(%ebp)
	.loc 13 236 0
	movl	8(%ebp), %eax
	movl	(%eax), %edx
	movl	12(%ebp), %eax
	movl	(%eax), %eax
	cmpl	%eax, %edx
	setl	%al
	leave
LCFI141:
	.cfi_restore 5
	.cfi_def_cfa 4, 4
	ret	$8
	.cfi_endproc
LFE1487:
	.section	.text$_ZNSt17_Rb_tree_iteratorISt4pairIKiP4TestEEC1EPSt13_Rb_tree_nodeIS4_E,"x"
	.linkonce discard
	.align 2
	.globl	__ZNSt17_Rb_tree_iteratorISt4pairIKiP4TestEEC1EPSt13_Rb_tree_nodeIS4_E
	.def	__ZNSt17_Rb_tree_iteratorISt4pairIKiP4TestEEC1EPSt13_Rb_tree_nodeIS4_E;	.scl	2;	.type	32;	.endef
__ZNSt17_Rb_tree_iteratorISt4pairIKiP4TestEEC1EPSt13_Rb_tree_nodeIS4_E:
LFB1490:
	.loc 10 173 0
	.cfi_startproc
	pushl	%ebp
LCFI142:
	.cfi_def_cfa_offset 8
	.cfi_offset 5, -8
	movl	%esp, %ebp
LCFI143:
	.cfi_def_cfa_register 5
	subl	$4, %esp
	movl	%ecx, -4(%ebp)
LBB26:
	.loc 10 174 0
	movl	-4(%ebp), %eax
	movl	8(%ebp), %edx
	movl	%edx, (%eax)
LBE26:
	leave
LCFI144:
	.cfi_restore 5
	.cfi_def_cfa 4, 4
	ret	$4
	.cfi_endproc
LFE1490:
	.section	.text$_ZNKSt17_Rb_tree_iteratorISt4pairIKiP4TestEEeqERKS5_,"x"
	.linkonce discard
	.align 2
	.globl	__ZNKSt17_Rb_tree_iteratorISt4pairIKiP4TestEEeqERKS5_
	.def	__ZNKSt17_Rb_tree_iteratorISt4pairIKiP4TestEEeqERKS5_;	.scl	2;	.type	32;	.endef
__ZNKSt17_Rb_tree_iteratorISt4pairIKiP4TestEEeqERKS5_:
LFB1491:
	.loc 10 216 0
	.cfi_startproc
	pushl	%ebp
LCFI145:
	.cfi_def_cfa_offset 8
	.cfi_offset 5, -8
	movl	%esp, %ebp
LCFI146:
	.cfi_def_cfa_register 5
	subl	$4, %esp
	movl	%ecx, -4(%ebp)
	.loc 10 217 0
	movl	-4(%ebp), %eax
	movl	(%eax), %edx
	movl	8(%ebp), %eax
	movl	(%eax), %eax
	cmpl	%eax, %edx
	sete	%al
	leave
LCFI147:
	.cfi_restore 5
	.cfi_def_cfa 4, 4
	ret	$4
	.cfi_endproc
LFE1491:
	.section	.text$_ZNSt8_Rb_treeIiSt4pairIKiP4TestESt10_Select1stIS4_ESt4lessIiESaIS4_EE10_M_insert_IS0_IiS3_EEESt17_Rb_tree_iteratorIS4_EPKSt18_Rb_tree_node_baseSH_OT_,"x"
	.linkonce discard
	.align 2
	.globl	__ZNSt8_Rb_treeIiSt4pairIKiP4TestESt10_Select1stIS4_ESt4lessIiESaIS4_EE10_M_insert_IS0_IiS3_EEESt17_Rb_tree_iteratorIS4_EPKSt18_Rb_tree_node_baseSH_OT_
	.def	__ZNSt8_Rb_treeIiSt4pairIKiP4TestESt10_Select1stIS4_ESt4lessIiESaIS4_EE10_M_insert_IS0_IiS3_EEESt17_Rb_tree_iteratorIS4_EPKSt18_Rb_tree_node_baseSH_OT_;	.scl	2;	.type	32;	.endef
__ZNSt8_Rb_treeIiSt4pairIKiP4TestESt10_Select1stIS4_ESt4lessIiESaIS4_EE10_M_insert_IS0_IiS3_EEESt17_Rb_tree_iteratorIS4_EPKSt18_Rb_tree_node_baseSH_OT_:
LFB1492:
	.loc 10 968 0
	.cfi_startproc
	.cfi_personality 0,___gxx_personality_v0
	.cfi_lsda 0,LLSDA1492
	pushl	%ebp
LCFI148:
	.cfi_def_cfa_offset 8
	.cfi_offset 5, -8
	movl	%esp, %ebp
LCFI149:
	.cfi_def_cfa_register 5
	pushl	%esi
	pushl	%ebx
	subl	$48, %esp
	.cfi_offset 6, -12
	.cfi_offset 3, -16
	movl	%ecx, -28(%ebp)
LBB27:
	.loc 10 977 0
	movb	$0, %bl
	cmpl	$0, 8(%ebp)
	jne	L134
	.loc 10 977 0 is_stmt 0 discriminator 2
	movl	-28(%ebp), %eax
	movl	%eax, %ecx
	call	__ZNSt8_Rb_treeIiSt4pairIKiP4TestESt10_Select1stIS4_ESt4lessIiESaIS4_EE6_M_endEv
	cmpl	12(%ebp), %eax
	je	L134
	.loc 10 977 0 discriminator 3
	movl	12(%ebp), %eax
	movl	%eax, (%esp)
LEHB19:
	call	__ZNSt8_Rb_treeIiSt4pairIKiP4TestESt10_Select1stIS4_ESt4lessIiESaIS4_EE6_S_keyEPKSt18_Rb_tree_node_base
LEHE19:
	movl	%eax, %esi
	movb	$1, %bl
	leal	-21(%ebp), %eax
	movl	16(%ebp), %edx
	movl	%edx, (%esp)
	movl	%eax, %ecx
	call	__ZNKSt10_Select1stISt4pairIKiP4TestEEclIS0_IiS3_EEERNT_10first_typeERS8_
	subl	$4, %esp
	movl	-28(%ebp), %edx
	movl	%esi, 4(%esp)
	movl	%eax, (%esp)
	movl	%edx, %ecx
	call	__ZNKSt4lessIiEclERKiS2_
	subl	$8, %esp
	testb	%al, %al
	je	L135
L134:
	.loc 10 977 0 discriminator 1
	movb	$1, %al
	jmp	L136
L135:
	.loc 10 977 0 discriminator 5
	movb	$0, %al
L136:
	.loc 10 977 0 discriminator 6
	movb	%al, -9(%ebp)
	testb	%bl, %bl
	.loc 10 979 0 is_stmt 1 discriminator 6
	movl	16(%ebp), %eax
	movl	%eax, (%esp)
	call	__ZSt7forwardISt4pairIiP4TestEEOT_RNSt16remove_referenceIS4_E4typeE
	movl	-28(%ebp), %edx
	movl	%eax, (%esp)
	movl	%edx, %ecx
LEHB20:
	call	__ZNSt8_Rb_treeIiSt4pairIKiP4TestESt10_Select1stIS4_ESt4lessIiESaIS4_EE14_M_create_nodeIIS0_IiS3_EEEEPSt13_Rb_tree_nodeIS4_EDpOT_
	subl	$4, %esp
	movl	%eax, -16(%ebp)
	.loc 10 981 0 discriminator 6
	movl	-28(%ebp), %eax
	leal	4(%eax), %edx
	movzbl	-9(%ebp), %eax
	movl	%edx, 12(%esp)
	movl	12(%ebp), %edx
	movl	%edx, 8(%esp)
	movl	-16(%ebp), %edx
	movl	%edx, 4(%esp)
	movl	%eax, (%esp)
	call	__ZSt29_Rb_tree_insert_and_rebalancebPSt18_Rb_tree_node_baseS0_RS_
	.loc 10 984 0 discriminator 6
	movl	-28(%ebp), %eax
	movl	20(%eax), %eax
	leal	1(%eax), %edx
	movl	-28(%ebp), %eax
	movl	%edx, 20(%eax)
	.loc 10 985 0 discriminator 6
	leal	-20(%ebp), %eax
	movl	-16(%ebp), %edx
	movl	%edx, (%esp)
	movl	%eax, %ecx
	call	__ZNSt17_Rb_tree_iteratorISt4pairIKiP4TestEEC1EPSt13_Rb_tree_nodeIS4_E
	subl	$4, %esp
	movl	-20(%ebp), %eax
	jmp	L142
L141:
	.loc 10 977 0
	testb	%bl, %bl
	movl	%eax, (%esp)
	call	__Unwind_Resume
LEHE20:
L142:
LBE27:
	.loc 10 986 0
	leal	-8(%ebp), %esp
	popl	%ebx
	.cfi_restore 3
	popl	%esi
	.cfi_restore 6
	popl	%ebp
LCFI150:
	.cfi_restore 5
	.cfi_def_cfa 4, 4
	ret	$12
	.cfi_endproc
LFE1492:
	.section	.gcc_except_table,"w"
LLSDA1492:
	.byte	0xff
	.byte	0xff
	.byte	0x1
	.uleb128 LLSDACSE1492-LLSDACSB1492
LLSDACSB1492:
	.uleb128 LEHB19-LFB1492
	.uleb128 LEHE19-LEHB19
	.uleb128 L141-LFB1492
	.uleb128 0
	.uleb128 LEHB20-LFB1492
	.uleb128 LEHE20-LEHB20
	.uleb128 0
	.uleb128 0
LLSDACSE1492:
	.section	.text$_ZNSt8_Rb_treeIiSt4pairIKiP4TestESt10_Select1stIS4_ESt4lessIiESaIS4_EE10_M_insert_IS0_IiS3_EEESt17_Rb_tree_iteratorIS4_EPKSt18_Rb_tree_node_baseSH_OT_,"x"
	.linkonce discard
	.section	.text$_ZNSt17_Rb_tree_iteratorISt4pairIKiP4TestEEmmEv,"x"
	.linkonce discard
	.align 2
	.globl	__ZNSt17_Rb_tree_iteratorISt4pairIKiP4TestEEmmEv
	.def	__ZNSt17_Rb_tree_iteratorISt4pairIKiP4TestEEmmEv;	.scl	2;	.type	32;	.endef
__ZNSt17_Rb_tree_iteratorISt4pairIKiP4TestEEmmEv:
LFB1493:
	.loc 10 201 0
	.cfi_startproc
	pushl	%ebp
LCFI151:
	.cfi_def_cfa_offset 8
	.cfi_offset 5, -8
	movl	%esp, %ebp
LCFI152:
	.cfi_def_cfa_register 5
	subl	$40, %esp
	movl	%ecx, -12(%ebp)
	.loc 10 203 0
	movl	-12(%ebp), %eax
	movl	(%eax), %eax
	movl	%eax, (%esp)
	call	__ZSt18_Rb_tree_decrementPSt18_Rb_tree_node_base
	movl	-12(%ebp), %edx
	movl	%eax, (%edx)
	.loc 10 204 0
	movl	-12(%ebp), %eax
	.loc 10 205 0
	leave
LCFI153:
	.cfi_restore 5
	.cfi_def_cfa 4, 4
	ret
	.cfi_endproc
LFE1493:
	.section	.text$_ZNSt8_Rb_treeIiSt4pairIKiP4TestESt10_Select1stIS4_ESt4lessIiESaIS4_EE6_S_keyEPKSt18_Rb_tree_node_base,"x"
	.linkonce discard
	.globl	__ZNSt8_Rb_treeIiSt4pairIKiP4TestESt10_Select1stIS4_ESt4lessIiESaIS4_EE6_S_keyEPKSt18_Rb_tree_node_base
	.def	__ZNSt8_Rb_treeIiSt4pairIKiP4TestESt10_Select1stIS4_ESt4lessIiESaIS4_EE6_S_keyEPKSt18_Rb_tree_node_base;	.scl	2;	.type	32;	.endef
__ZNSt8_Rb_treeIiSt4pairIKiP4TestESt10_Select1stIS4_ESt4lessIiESaIS4_EE6_S_keyEPKSt18_Rb_tree_node_base:
LFB1494:
	.loc 10 546 0
	.cfi_startproc
	pushl	%ebp
LCFI154:
	.cfi_def_cfa_offset 8
	.cfi_offset 5, -8
	movl	%esp, %ebp
LCFI155:
	.cfi_def_cfa_register 5
	subl	$40, %esp
	.loc 10 547 0
	movl	8(%ebp), %eax
	movl	%eax, (%esp)
	call	__ZNSt8_Rb_treeIiSt4pairIKiP4TestESt10_Select1stIS4_ESt4lessIiESaIS4_EE8_S_valueEPKSt18_Rb_tree_node_base
	leal	-9(%ebp), %edx
	movl	%eax, (%esp)
	movl	%edx, %ecx
	call	__ZNKSt10_Select1stISt4pairIKiP4TestEEclERKS4_
	subl	$4, %esp
	leave
LCFI156:
	.cfi_restore 5
	.cfi_def_cfa 4, 4
	ret
	.cfi_endproc
LFE1494:
	.section	.text$_ZNSaISt13_Rb_tree_nodeISt4pairIKiP4TestEEEC2Ev,"x"
	.linkonce discard
	.align 2
	.globl	__ZNSaISt13_Rb_tree_nodeISt4pairIKiP4TestEEEC2Ev
	.def	__ZNSaISt13_Rb_tree_nodeISt4pairIKiP4TestEEEC2Ev;	.scl	2;	.type	32;	.endef
__ZNSaISt13_Rb_tree_nodeISt4pairIKiP4TestEEEC2Ev:
LFB1499:
	.loc 11 104 0
	.cfi_startproc
	pushl	%ebp
LCFI157:
	.cfi_def_cfa_offset 8
	.cfi_offset 5, -8
	movl	%esp, %ebp
LCFI158:
	.cfi_def_cfa_register 5
	subl	$24, %esp
	movl	%ecx, -12(%ebp)
LBB28:
	.loc 11 104 0
	movl	-12(%ebp), %eax
	movl	%eax, %ecx
	call	__ZN9__gnu_cxx13new_allocatorISt13_Rb_tree_nodeISt4pairIKiP4TestEEEC2Ev
LBE28:
	leave
LCFI159:
	.cfi_restore 5
	.cfi_def_cfa 4, 4
	ret
	.cfi_endproc
LFE1499:
	.section	.text$_ZNSt8_Rb_treeIiSt4pairIKiP4TestESt10_Select1stIS4_ESt4lessIiESaIS4_EE13_Rb_tree_implIS8_Lb1EE13_M_initializeEv,"x"
	.linkonce discard
	.align 2
	.globl	__ZNSt8_Rb_treeIiSt4pairIKiP4TestESt10_Select1stIS4_ESt4lessIiESaIS4_EE13_Rb_tree_implIS8_Lb1EE13_M_initializeEv
	.def	__ZNSt8_Rb_treeIiSt4pairIKiP4TestESt10_Select1stIS4_ESt4lessIiESaIS4_EE13_Rb_tree_implIS8_Lb1EE13_M_initializeEv;	.scl	2;	.type	32;	.endef
__ZNSt8_Rb_treeIiSt4pairIKiP4TestESt10_Select1stIS4_ESt4lessIiESaIS4_EE13_Rb_tree_implIS8_Lb1EE13_M_initializeEv:
LFB1501:
	.loc 10 462 0
	.cfi_startproc
	pushl	%ebp
LCFI160:
	.cfi_def_cfa_offset 8
	.cfi_offset 5, -8
	movl	%esp, %ebp
LCFI161:
	.cfi_def_cfa_register 5
	subl	$4, %esp
	movl	%ecx, -4(%ebp)
	.loc 10 464 0
	movl	-4(%ebp), %eax
	movl	$0, 4(%eax)
	.loc 10 465 0
	movl	-4(%ebp), %eax
	movl	$0, 8(%eax)
	.loc 10 466 0
	movl	-4(%ebp), %eax
	leal	4(%eax), %edx
	movl	-4(%ebp), %eax
	movl	%edx, 12(%eax)
	.loc 10 467 0
	movl	-4(%ebp), %eax
	leal	4(%eax), %edx
	movl	-4(%ebp), %eax
	movl	%edx, 16(%eax)
	.loc 10 468 0
	leave
LCFI162:
	.cfi_restore 5
	.cfi_def_cfa 4, 4
	ret
	.cfi_endproc
LFE1501:
	.section	.text$_ZNSt8_Rb_treeIiSt4pairIKiP4TestESt10_Select1stIS4_ESt4lessIiESaIS4_EE21_M_get_Node_allocatorEv,"x"
	.linkonce discard
	.align 2
	.globl	__ZNSt8_Rb_treeIiSt4pairIKiP4TestESt10_Select1stIS4_ESt4lessIiESaIS4_EE21_M_get_Node_allocatorEv
	.def	__ZNSt8_Rb_treeIiSt4pairIKiP4TestESt10_Select1stIS4_ESt4lessIiESaIS4_EE21_M_get_Node_allocatorEv;	.scl	2;	.type	32;	.endef
__ZNSt8_Rb_treeIiSt4pairIKiP4TestESt10_Select1stIS4_ESt4lessIiESaIS4_EE21_M_get_Node_allocatorEv:
LFB1502:
	.loc 10 355 0
	.cfi_startproc
	pushl	%ebp
LCFI163:
	.cfi_def_cfa_offset 8
	.cfi_offset 5, -8
	movl	%esp, %ebp
LCFI164:
	.cfi_def_cfa_register 5
	subl	$4, %esp
	movl	%ecx, -4(%ebp)
	.loc 10 356 0
	movl	-4(%ebp), %eax
	leave
LCFI165:
	.cfi_restore 5
	.cfi_def_cfa 4, 4
	ret
	.cfi_endproc
LFE1502:
	.section	.text$_ZN9__gnu_cxx13new_allocatorISt13_Rb_tree_nodeISt4pairIKiP4TestEEE7destroyIS7_EEvPT_,"x"
	.linkonce discard
	.align 2
	.globl	__ZN9__gnu_cxx13new_allocatorISt13_Rb_tree_nodeISt4pairIKiP4TestEEE7destroyIS7_EEvPT_
	.def	__ZN9__gnu_cxx13new_allocatorISt13_Rb_tree_nodeISt4pairIKiP4TestEEE7destroyIS7_EEvPT_;	.scl	2;	.type	32;	.endef
__ZN9__gnu_cxx13new_allocatorISt13_Rb_tree_nodeISt4pairIKiP4TestEEE7destroyIS7_EEvPT_:
LFB1503:
	.loc 12 114 0
	.cfi_startproc
	pushl	%ebp
LCFI166:
	.cfi_def_cfa_offset 8
	.cfi_offset 5, -8
	movl	%esp, %ebp
LCFI167:
	.cfi_def_cfa_register 5
	subl	$4, %esp
	movl	%ecx, -4(%ebp)
	.loc 12 114 0
	leave
LCFI168:
	.cfi_restore 5
	.cfi_def_cfa 4, 4
	ret	$4
	.cfi_endproc
LFE1503:
	.section	.text$_ZNSt8_Rb_treeIiSt4pairIKiP4TestESt10_Select1stIS4_ESt4lessIiESaIS4_EE11_M_put_nodeEPSt13_Rb_tree_nodeIS4_E,"x"
	.linkonce discard
	.align 2
	.globl	__ZNSt8_Rb_treeIiSt4pairIKiP4TestESt10_Select1stIS4_ESt4lessIiESaIS4_EE11_M_put_nodeEPSt13_Rb_tree_nodeIS4_E
	.def	__ZNSt8_Rb_treeIiSt4pairIKiP4TestESt10_Select1stIS4_ESt4lessIiESaIS4_EE11_M_put_nodeEPSt13_Rb_tree_nodeIS4_E;	.scl	2;	.type	32;	.endef
__ZNSt8_Rb_treeIiSt4pairIKiP4TestESt10_Select1stIS4_ESt4lessIiESaIS4_EE11_M_put_nodeEPSt13_Rb_tree_nodeIS4_E:
LFB1504:
	.loc 10 372 0
	.cfi_startproc
	pushl	%ebp
LCFI169:
	.cfi_def_cfa_offset 8
	.cfi_offset 5, -8
	movl	%esp, %ebp
LCFI170:
	.cfi_def_cfa_register 5
	subl	$40, %esp
	movl	%ecx, -12(%ebp)
	.loc 10 373 0
	movl	-12(%ebp), %eax
	movl	$1, 4(%esp)
	movl	8(%ebp), %edx
	movl	%edx, (%esp)
	movl	%eax, %ecx
	call	__ZN9__gnu_cxx13new_allocatorISt13_Rb_tree_nodeISt4pairIKiP4TestEEE10deallocateEPS7_j
	subl	$8, %esp
	leave
LCFI171:
	.cfi_restore 5
	.cfi_def_cfa 4, 4
	ret	$4
	.cfi_endproc
LFE1504:
	.section	.text$_ZNSt8_Rb_treeIiSt4pairIKiP4TestESt10_Select1stIS4_ESt4lessIiESaIS4_EE8_S_valueEPKSt13_Rb_tree_nodeIS4_E,"x"
	.linkonce discard
	.globl	__ZNSt8_Rb_treeIiSt4pairIKiP4TestESt10_Select1stIS4_ESt4lessIiESaIS4_EE8_S_valueEPKSt13_Rb_tree_nodeIS4_E
	.def	__ZNSt8_Rb_treeIiSt4pairIKiP4TestESt10_Select1stIS4_ESt4lessIiESaIS4_EE8_S_valueEPKSt13_Rb_tree_nodeIS4_E;	.scl	2;	.type	32;	.endef
__ZNSt8_Rb_treeIiSt4pairIKiP4TestESt10_Select1stIS4_ESt4lessIiESaIS4_EE8_S_valueEPKSt13_Rb_tree_nodeIS4_E:
LFB1505:
	.loc 10 518 0
	.cfi_startproc
	pushl	%ebp
LCFI172:
	.cfi_def_cfa_offset 8
	.cfi_offset 5, -8
	movl	%esp, %ebp
LCFI173:
	.cfi_def_cfa_register 5
	.loc 10 519 0
	movl	8(%ebp), %eax
	addl	$16, %eax
	popl	%ebp
LCFI174:
	.cfi_restore 5
	.cfi_def_cfa 4, 4
	ret
	.cfi_endproc
LFE1505:
	.section	.text$_ZNKSt10_Select1stISt4pairIKiP4TestEEclERKS4_,"x"
	.linkonce discard
	.align 2
	.globl	__ZNKSt10_Select1stISt4pairIKiP4TestEEclERKS4_
	.def	__ZNKSt10_Select1stISt4pairIKiP4TestEEclERKS4_;	.scl	2;	.type	32;	.endef
__ZNKSt10_Select1stISt4pairIKiP4TestEEclERKS4_:
LFB1506:
	.loc 13 494 0
	.cfi_startproc
	pushl	%ebp
LCFI175:
	.cfi_def_cfa_offset 8
	.cfi_offset 5, -8
	movl	%esp, %ebp
LCFI176:
	.cfi_def_cfa_register 5
	subl	$4, %esp
	movl	%ecx, -4(%ebp)
	.loc 13 495 0
	movl	8(%ebp), %eax
	leave
LCFI177:
	.cfi_restore 5
	.cfi_def_cfa 4, 4
	ret	$4
	.cfi_endproc
LFE1506:
	.section	.text$_ZNSt8_Rb_treeIiSt4pairIKiP4TestESt10_Select1stIS4_ESt4lessIiESaIS4_EE14_M_create_nodeIIS0_IiS3_EEEEPSt13_Rb_tree_nodeIS4_EDpOT_,"x"
	.linkonce discard
	.align 2
	.globl	__ZNSt8_Rb_treeIiSt4pairIKiP4TestESt10_Select1stIS4_ESt4lessIiESaIS4_EE14_M_create_nodeIIS0_IiS3_EEEEPSt13_Rb_tree_nodeIS4_EDpOT_
	.def	__ZNSt8_Rb_treeIiSt4pairIKiP4TestESt10_Select1stIS4_ESt4lessIiESaIS4_EE14_M_create_nodeIIS0_IiS3_EEEEPSt13_Rb_tree_nodeIS4_EDpOT_;	.scl	2;	.type	32;	.endef
__ZNSt8_Rb_treeIiSt4pairIKiP4TestESt10_Select1stIS4_ESt4lessIiESaIS4_EE14_M_create_nodeIIS0_IiS3_EEEEPSt13_Rb_tree_nodeIS4_EDpOT_:
LFB1507:
	.loc 10 400 0
	.cfi_startproc
	.cfi_personality 0,___gxx_personality_v0
	.cfi_lsda 0,LLSDA1507
	pushl	%ebp
LCFI178:
	.cfi_def_cfa_offset 8
	.cfi_offset 5, -8
	movl	%esp, %ebp
LCFI179:
	.cfi_def_cfa_register 5
	pushl	%ebx
	subl	$52, %esp
	.cfi_offset 3, -12
	movl	%ecx, -28(%ebp)
LBB29:
	.loc 10 402 0
	movl	-28(%ebp), %eax
	movl	%eax, %ecx
LEHB21:
	call	__ZNSt8_Rb_treeIiSt4pairIKiP4TestESt10_Select1stIS4_ESt4lessIiESaIS4_EE11_M_get_nodeEv
LEHE21:
	movl	%eax, -12(%ebp)
	.loc 10 405 0
	movl	8(%ebp), %eax
	movl	%eax, (%esp)
	call	__ZSt7forwardISt4pairIiP4TestEEOT_RNSt16remove_referenceIS4_E4typeE
	movl	%eax, %ebx
	movl	-28(%ebp), %eax
	movl	%eax, %ecx
	call	__ZNSt8_Rb_treeIiSt4pairIKiP4TestESt10_Select1stIS4_ESt4lessIiESaIS4_EE21_M_get_Node_allocatorEv
	movl	%ebx, 4(%esp)
	movl	-12(%ebp), %edx
	movl	%edx, (%esp)
	movl	%eax, %ecx
LEHB22:
	call	__ZN9__gnu_cxx13new_allocatorISt13_Rb_tree_nodeISt4pairIKiP4TestEEE9constructIS7_IS2_IiS5_EEEEvPT_DpOT0_
LEHE22:
	subl	$8, %esp
	.loc 10 413 0
	movl	-12(%ebp), %eax
	jmp	L163
L162:
	movl	%eax, %ebx
	.loc 10 408 0
	call	___cxa_end_catch
	movl	%ebx, %eax
	movl	%eax, (%esp)
LEHB23:
	call	__Unwind_Resume
LEHE23:
L161:
	movl	%eax, (%esp)
	call	___cxa_begin_catch
	.loc 10 410 0
	movl	-28(%ebp), %eax
	movl	-12(%ebp), %edx
	movl	%edx, (%esp)
	movl	%eax, %ecx
	call	__ZNSt8_Rb_treeIiSt4pairIKiP4TestESt10_Select1stIS4_ESt4lessIiESaIS4_EE11_M_put_nodeEPSt13_Rb_tree_nodeIS4_E
	subl	$4, %esp
LEHB24:
	.loc 10 411 0
	call	___cxa_rethrow
LEHE24:
L163:
LBE29:
	.loc 10 414 0
	movl	-4(%ebp), %ebx
	leave
LCFI180:
	.cfi_restore 5
	.cfi_restore 3
	.cfi_def_cfa 4, 4
	ret	$4
	.cfi_endproc
LFE1507:
	.section	.gcc_except_table,"w"
	.align 4
LLSDA1507:
	.byte	0xff
	.byte	0
	.uleb128 LLSDATT1507-LLSDATTD1507
LLSDATTD1507:
	.byte	0x1
	.uleb128 LLSDACSE1507-LLSDACSB1507
LLSDACSB1507:
	.uleb128 LEHB21-LFB1507
	.uleb128 LEHE21-LEHB21
	.uleb128 0
	.uleb128 0
	.uleb128 LEHB22-LFB1507
	.uleb128 LEHE22-LEHB22
	.uleb128 L161-LFB1507
	.uleb128 0x1
	.uleb128 LEHB23-LFB1507
	.uleb128 LEHE23-LEHB23
	.uleb128 0
	.uleb128 0
	.uleb128 LEHB24-LFB1507
	.uleb128 LEHE24-LEHB24
	.uleb128 L162-LFB1507
	.uleb128 0
LLSDACSE1507:
	.byte	0x1
	.byte	0
	.align 4
	.long	0
LLSDATT1507:
	.section	.text$_ZNSt8_Rb_treeIiSt4pairIKiP4TestESt10_Select1stIS4_ESt4lessIiESaIS4_EE14_M_create_nodeIIS0_IiS3_EEEEPSt13_Rb_tree_nodeIS4_EDpOT_,"x"
	.linkonce discard
	.weak	__ZNSt8_Rb_treeIiSt4pairIKiP4TestESt10_Select1stIS4_ESt4lessIiESaIS4_EE14_M_create_nodeIJS0_IiS3_EEEEPSt13_Rb_tree_nodeIS4_EDpOT_
	.def	__ZNSt8_Rb_treeIiSt4pairIKiP4TestESt10_Select1stIS4_ESt4lessIiESaIS4_EE14_M_create_nodeIJS0_IiS3_EEEEPSt13_Rb_tree_nodeIS4_EDpOT_;	.scl	2;	.type	32;	.endef
	.set	__ZNSt8_Rb_treeIiSt4pairIKiP4TestESt10_Select1stIS4_ESt4lessIiESaIS4_EE14_M_create_nodeIJS0_IiS3_EEEEPSt13_Rb_tree_nodeIS4_EDpOT_,__ZNSt8_Rb_treeIiSt4pairIKiP4TestESt10_Select1stIS4_ESt4lessIiESaIS4_EE14_M_create_nodeIIS0_IiS3_EEEEPSt13_Rb_tree_nodeIS4_EDpOT_
	.section	.text$_ZNSt8_Rb_treeIiSt4pairIKiP4TestESt10_Select1stIS4_ESt4lessIiESaIS4_EE8_S_valueEPKSt18_Rb_tree_node_base,"x"
	.linkonce discard
	.globl	__ZNSt8_Rb_treeIiSt4pairIKiP4TestESt10_Select1stIS4_ESt4lessIiESaIS4_EE8_S_valueEPKSt18_Rb_tree_node_base
	.def	__ZNSt8_Rb_treeIiSt4pairIKiP4TestESt10_Select1stIS4_ESt4lessIiESaIS4_EE8_S_valueEPKSt18_Rb_tree_node_base;	.scl	2;	.type	32;	.endef
__ZNSt8_Rb_treeIiSt4pairIKiP4TestESt10_Select1stIS4_ESt4lessIiESaIS4_EE8_S_valueEPKSt18_Rb_tree_node_base:
LFB1508:
	.loc 10 542 0
	.cfi_startproc
	pushl	%ebp
LCFI181:
	.cfi_def_cfa_offset 8
	.cfi_offset 5, -8
	movl	%esp, %ebp
LCFI182:
	.cfi_def_cfa_register 5
	.loc 10 543 0
	movl	8(%ebp), %eax
	addl	$16, %eax
	popl	%ebp
LCFI183:
	.cfi_restore 5
	.cfi_def_cfa 4, 4
	ret
	.cfi_endproc
LFE1508:
	.section	.text$_ZN9__gnu_cxx13new_allocatorISt13_Rb_tree_nodeISt4pairIKiP4TestEEEC2Ev,"x"
	.linkonce discard
	.align 2
	.globl	__ZN9__gnu_cxx13new_allocatorISt13_Rb_tree_nodeISt4pairIKiP4TestEEEC2Ev
	.def	__ZN9__gnu_cxx13new_allocatorISt13_Rb_tree_nodeISt4pairIKiP4TestEEEC2Ev;	.scl	2;	.type	32;	.endef
__ZN9__gnu_cxx13new_allocatorISt13_Rb_tree_nodeISt4pairIKiP4TestEEEC2Ev:
LFB1510:
	.loc 12 69 0
	.cfi_startproc
	pushl	%ebp
LCFI184:
	.cfi_def_cfa_offset 8
	.cfi_offset 5, -8
	movl	%esp, %ebp
LCFI185:
	.cfi_def_cfa_register 5
	subl	$4, %esp
	movl	%ecx, -4(%ebp)
	.loc 12 69 0
	leave
LCFI186:
	.cfi_restore 5
	.cfi_def_cfa 4, 4
	ret
	.cfi_endproc
LFE1510:
	.section	.text$_ZN9__gnu_cxx13new_allocatorISt13_Rb_tree_nodeISt4pairIKiP4TestEEE10deallocateEPS7_j,"x"
	.linkonce discard
	.align 2
	.globl	__ZN9__gnu_cxx13new_allocatorISt13_Rb_tree_nodeISt4pairIKiP4TestEEE10deallocateEPS7_j
	.def	__ZN9__gnu_cxx13new_allocatorISt13_Rb_tree_nodeISt4pairIKiP4TestEEE10deallocateEPS7_j;	.scl	2;	.type	32;	.endef
__ZN9__gnu_cxx13new_allocatorISt13_Rb_tree_nodeISt4pairIKiP4TestEEE10deallocateEPS7_j:
LFB1512:
	.loc 12 99 0
	.cfi_startproc
	pushl	%ebp
LCFI187:
	.cfi_def_cfa_offset 8
	.cfi_offset 5, -8
	movl	%esp, %ebp
LCFI188:
	.cfi_def_cfa_register 5
	subl	$40, %esp
	movl	%ecx, -12(%ebp)
	.loc 12 100 0
	movl	8(%ebp), %eax
	movl	%eax, (%esp)
	call	__ZdlPv
	leave
LCFI189:
	.cfi_restore 5
	.cfi_def_cfa 4, 4
	ret	$8
	.cfi_endproc
LFE1512:
	.section	.text$_ZNSt8_Rb_treeIiSt4pairIKiP4TestESt10_Select1stIS4_ESt4lessIiESaIS4_EE11_M_get_nodeEv,"x"
	.linkonce discard
	.align 2
	.globl	__ZNSt8_Rb_treeIiSt4pairIKiP4TestESt10_Select1stIS4_ESt4lessIiESaIS4_EE11_M_get_nodeEv
	.def	__ZNSt8_Rb_treeIiSt4pairIKiP4TestESt10_Select1stIS4_ESt4lessIiESaIS4_EE11_M_get_nodeEv;	.scl	2;	.type	32;	.endef
__ZNSt8_Rb_treeIiSt4pairIKiP4TestESt10_Select1stIS4_ESt4lessIiESaIS4_EE11_M_get_nodeEv:
LFB1513:
	.loc 10 368 0
	.cfi_startproc
	pushl	%ebp
LCFI190:
	.cfi_def_cfa_offset 8
	.cfi_offset 5, -8
	movl	%esp, %ebp
LCFI191:
	.cfi_def_cfa_register 5
	subl	$40, %esp
	movl	%ecx, -12(%ebp)
	.loc 10 369 0
	movl	-12(%ebp), %eax
	movl	$0, 4(%esp)
	movl	$1, (%esp)
	movl	%eax, %ecx
	call	__ZN9__gnu_cxx13new_allocatorISt13_Rb_tree_nodeISt4pairIKiP4TestEEE8allocateEjPKv
	subl	$8, %esp
	leave
LCFI192:
	.cfi_restore 5
	.cfi_def_cfa 4, 4
	ret
	.cfi_endproc
LFE1513:
	.section	.text$_ZN9__gnu_cxx13new_allocatorISt13_Rb_tree_nodeISt4pairIKiP4TestEEE9constructIS7_IS2_IiS5_EEEEvPT_DpOT0_,"x"
	.linkonce discard
	.align 2
	.globl	__ZN9__gnu_cxx13new_allocatorISt13_Rb_tree_nodeISt4pairIKiP4TestEEE9constructIS7_IS2_IiS5_EEEEvPT_DpOT0_
	.def	__ZN9__gnu_cxx13new_allocatorISt13_Rb_tree_nodeISt4pairIKiP4TestEEE9constructIS7_IS2_IiS5_EEEEvPT_DpOT0_;	.scl	2;	.type	32;	.endef
__ZN9__gnu_cxx13new_allocatorISt13_Rb_tree_nodeISt4pairIKiP4TestEEE9constructIS7_IS2_IiS5_EEEEvPT_DpOT0_:
LFB1514:
	.loc 12 109 0
	.cfi_startproc
	pushl	%ebp
LCFI193:
	.cfi_def_cfa_offset 8
	.cfi_offset 5, -8
	movl	%esp, %ebp
LCFI194:
	.cfi_def_cfa_register 5
	pushl	%ebx
	subl	$36, %esp
	.cfi_offset 3, -12
	movl	%ecx, -12(%ebp)
	.loc 12 110 0
	movl	12(%ebp), %eax
	movl	%eax, (%esp)
	call	__ZSt7forwardISt4pairIiP4TestEEOT_RNSt16remove_referenceIS4_E4typeE
	movl	%eax, %ebx
	movl	8(%ebp), %eax
	movl	%eax, 4(%esp)
	movl	$24, (%esp)
	call	__ZnwjPv
	testl	%eax, %eax
	je	L170
	.loc 12 110 0 is_stmt 0 discriminator 1
	movl	%ebx, (%esp)
	movl	%eax, %ecx
	call	__ZNSt13_Rb_tree_nodeISt4pairIKiP4TestEEC1IIS0_IiS3_EEEEDpOT_
	subl	$4, %esp
L170:
	.loc 12 110 0
	movl	-4(%ebp), %ebx
	leave
LCFI195:
	.cfi_restore 5
	.cfi_restore 3
	.cfi_def_cfa 4, 4
	ret	$8
	.cfi_endproc
LFE1514:
	.weak	__ZN9__gnu_cxx13new_allocatorISt13_Rb_tree_nodeISt4pairIKiP4TestEEE9constructIS7_JS2_IiS5_EEEEvPT_DpOT0_
	.def	__ZN9__gnu_cxx13new_allocatorISt13_Rb_tree_nodeISt4pairIKiP4TestEEE9constructIS7_JS2_IiS5_EEEEvPT_DpOT0_;	.scl	2;	.type	32;	.endef
	.set	__ZN9__gnu_cxx13new_allocatorISt13_Rb_tree_nodeISt4pairIKiP4TestEEE9constructIS7_JS2_IiS5_EEEEvPT_DpOT0_,__ZN9__gnu_cxx13new_allocatorISt13_Rb_tree_nodeISt4pairIKiP4TestEEE9constructIS7_IS2_IiS5_EEEEvPT_DpOT0_
	.section	.text$_ZN9__gnu_cxx13new_allocatorISt13_Rb_tree_nodeISt4pairIKiP4TestEEE8allocateEjPKv,"x"
	.linkonce discard
	.align 2
	.globl	__ZN9__gnu_cxx13new_allocatorISt13_Rb_tree_nodeISt4pairIKiP4TestEEE8allocateEjPKv
	.def	__ZN9__gnu_cxx13new_allocatorISt13_Rb_tree_nodeISt4pairIKiP4TestEEE8allocateEjPKv;	.scl	2;	.type	32;	.endef
__ZN9__gnu_cxx13new_allocatorISt13_Rb_tree_nodeISt4pairIKiP4TestEEE8allocateEjPKv:
LFB1515:
	.loc 12 89 0 is_stmt 1
	.cfi_startproc
	pushl	%ebp
LCFI196:
	.cfi_def_cfa_offset 8
	.cfi_offset 5, -8
	movl	%esp, %ebp
LCFI197:
	.cfi_def_cfa_register 5
	subl	$40, %esp
	movl	%ecx, -12(%ebp)
	.loc 12 91 0
	movl	-12(%ebp), %eax
	movl	%eax, %ecx
	call	__ZNK9__gnu_cxx13new_allocatorISt13_Rb_tree_nodeISt4pairIKiP4TestEEE8max_sizeEv
	cmpl	8(%ebp), %eax
	setb	%al
	testb	%al, %al
	je	L174
	.loc 12 92 0
	call	__ZSt17__throw_bad_allocv
L174:
	.loc 12 94 0
	movl	8(%ebp), %edx
	movl	%edx, %eax
	sall	%eax
	addl	%edx, %eax
	sall	$3, %eax
	movl	%eax, (%esp)
	call	__Znwj
	.loc 12 95 0
	leave
LCFI198:
	.cfi_restore 5
	.cfi_def_cfa 4, 4
	ret	$8
	.cfi_endproc
LFE1515:
	.section	.text$_ZNSt13_Rb_tree_nodeISt4pairIKiP4TestEEC1IIS0_IiS3_EEEEDpOT_,"x"
	.linkonce discard
	.align 2
	.globl	__ZNSt13_Rb_tree_nodeISt4pairIKiP4TestEEC1IIS0_IiS3_EEEEDpOT_
	.def	__ZNSt13_Rb_tree_nodeISt4pairIKiP4TestEEC1IIS0_IiS3_EEEEDpOT_;	.scl	2;	.type	32;	.endef
__ZNSt13_Rb_tree_nodeISt4pairIKiP4TestEEC1IIS0_IiS3_EEEEDpOT_:
LFB1518:
	.loc 10 137 0
	.cfi_startproc
	pushl	%ebp
LCFI199:
	.cfi_def_cfa_offset 8
	.cfi_offset 5, -8
	movl	%esp, %ebp
LCFI200:
	.cfi_def_cfa_register 5
	pushl	%edi
	pushl	%ebx
	subl	$8, %esp
	.cfi_offset 7, -12
	.cfi_offset 3, -16
	movl	%ecx, -12(%ebp)
LBB30:
	.loc 10 139 0
	movl	-12(%ebp), %eax
	movl	%eax, %ebx
	movb	$0, %al
	movl	$16, %edx
	movl	%ebx, %edi
	movl	%edx, %ecx
	rep stosb
	movl	8(%ebp), %eax
	movl	%eax, (%esp)
	call	__ZSt7forwardISt4pairIiP4TestEEOT_RNSt16remove_referenceIS4_E4typeE
	movl	-12(%ebp), %edx
	addl	$16, %edx
	movl	%eax, (%esp)
	movl	%edx, %ecx
	call	__ZNSt4pairIKiP4TestEC1IiS2_vEEOS_IT_T0_E
	subl	$4, %esp
LBE30:
	leal	-8(%ebp), %esp
	popl	%ebx
	.cfi_restore 3
	popl	%edi
	.cfi_restore 7
	popl	%ebp
LCFI201:
	.cfi_restore 5
	.cfi_def_cfa 4, 4
	ret	$4
	.cfi_endproc
LFE1518:
	.weak	__ZNSt13_Rb_tree_nodeISt4pairIKiP4TestEEC1IJS0_IiS3_EEEEDpOT_
	.def	__ZNSt13_Rb_tree_nodeISt4pairIKiP4TestEEC1IJS0_IiS3_EEEEDpOT_;	.scl	2;	.type	32;	.endef
	.set	__ZNSt13_Rb_tree_nodeISt4pairIKiP4TestEEC1IJS0_IiS3_EEEEDpOT_,__ZNSt13_Rb_tree_nodeISt4pairIKiP4TestEEC1IIS0_IiS3_EEEEDpOT_
	.section	.text$_ZNK9__gnu_cxx13new_allocatorISt13_Rb_tree_nodeISt4pairIKiP4TestEEE8max_sizeEv,"x"
	.linkonce discard
	.align 2
	.globl	__ZNK9__gnu_cxx13new_allocatorISt13_Rb_tree_nodeISt4pairIKiP4TestEEE8max_sizeEv
	.def	__ZNK9__gnu_cxx13new_allocatorISt13_Rb_tree_nodeISt4pairIKiP4TestEEE8max_sizeEv;	.scl	2;	.type	32;	.endef
__ZNK9__gnu_cxx13new_allocatorISt13_Rb_tree_nodeISt4pairIKiP4TestEEE8max_sizeEv:
LFB1519:
	.loc 12 103 0
	.cfi_startproc
	pushl	%ebp
LCFI202:
	.cfi_def_cfa_offset 8
	.cfi_offset 5, -8
	movl	%esp, %ebp
LCFI203:
	.cfi_def_cfa_register 5
	subl	$4, %esp
	movl	%ecx, -4(%ebp)
	.loc 12 104 0
	movl	$178956970, %eax
	leave
LCFI204:
	.cfi_restore 5
	.cfi_def_cfa 4, 4
	ret
	.cfi_endproc
LFE1519:
	.globl	__ZTV4Test
	.section	.rdata$_ZTV4Test,"dr"
	.linkonce same_size
	.align 8
__ZTV4Test:
	.long	0
	.long	__ZTI4Test
	.long	___cxa_pure_virtual
	.globl	__ZTV7BotData
	.section	.rdata$_ZTV7BotData,"dr"
	.linkonce same_size
	.align 8
__ZTV7BotData:
	.long	0
	.long	__ZTI7BotData
	.long	__ZN7BotDataD1Ev
	.long	__ZN7BotDataD0Ev
	.globl	__ZTS4Test
	.section	.rdata$_ZTS4Test,"dr"
	.linkonce same_size
__ZTS4Test:
	.ascii "4Test\0"
	.globl	__ZTI4Test
	.section	.rdata$_ZTI4Test,"dr"
	.linkonce same_size
	.align 4
__ZTI4Test:
	.long	__ZTVN10__cxxabiv117__class_type_infoE+8
	.long	__ZTS4Test
	.globl	__ZTS7BotData
	.section	.rdata$_ZTS7BotData,"dr"
	.linkonce same_size
__ZTS7BotData:
	.ascii "7BotData\0"
	.globl	__ZTI7BotData
	.section	.rdata$_ZTI7BotData,"dr"
	.linkonce same_size
	.align 4
__ZTI7BotData:
	.long	__ZTVN10__cxxabiv117__class_type_infoE+8
	.long	__ZTS7BotData
	.text
	.def	___tcf_0;	.scl	3;	.type	32;	.endef
___tcf_0:
LFB1521:
	.file 14 "c:/program files (x86)/codeblocks/mingw/bin/../lib/gcc/mingw32/4.7.0/include/c++/iostream"
	.loc 14 75 0
	.cfi_startproc
	pushl	%ebp
LCFI205:
	.cfi_def_cfa_offset 8
	.cfi_offset 5, -8
	movl	%esp, %ebp
LCFI206:
	.cfi_def_cfa_register 5
	subl	$8, %esp
	.loc 14 75 0
	movl	$__ZStL8__ioinit, %ecx
	call	__ZNSt8ios_base4InitD1Ev
	leave
LCFI207:
	.cfi_restore 5
	.cfi_def_cfa 4, 4
	ret
	.cfi_endproc
LFE1521:
	.def	__Z41__static_initialization_and_destruction_0ii;	.scl	3;	.type	32;	.endef
__Z41__static_initialization_and_destruction_0ii:
LFB1520:
	.loc 9 40 0
	.cfi_startproc
	pushl	%ebp
LCFI208:
	.cfi_def_cfa_offset 8
	.cfi_offset 5, -8
	movl	%esp, %ebp
LCFI209:
	.cfi_def_cfa_register 5
	subl	$24, %esp
	.loc 9 40 0
	cmpl	$1, 8(%ebp)
	jne	L180
	.loc 9 40 0 is_stmt 0 discriminator 1
	cmpl	$65535, 12(%ebp)
	jne	L180
	.loc 14 75 0 is_stmt 1
	movl	$__ZStL8__ioinit, %ecx
	call	__ZNSt8ios_base4InitC1Ev
	movl	$___tcf_0, (%esp)
	call	_atexit
L180:
	.loc 9 40 0
	leave
LCFI210:
	.cfi_restore 5
	.cfi_def_cfa 4, 4
	ret
	.cfi_endproc
LFE1520:
	.def	__GLOBAL__sub_I_main;	.scl	3;	.type	32;	.endef
__GLOBAL__sub_I_main:
LFB1522:
	.loc 9 40 0
	.cfi_startproc
	pushl	%ebp
LCFI211:
	.cfi_def_cfa_offset 8
	.cfi_offset 5, -8
	movl	%esp, %ebp
LCFI212:
	.cfi_def_cfa_register 5
	subl	$24, %esp
	.loc 9 40 0
	movl	$65535, 4(%esp)
	movl	$1, (%esp)
	call	__Z41__static_initialization_and_destruction_0ii
	leave
LCFI213:
	.cfi_restore 5
	.cfi_def_cfa 4, 4
	ret
	.cfi_endproc
LFE1522:
	.section	.ctors,"w"
	.align 4
	.long	__GLOBAL__sub_I_main
	.text
Letext0:
	.file 15 "c:/program files (x86)/codeblocks/mingw/bin/../lib/gcc/mingw32/4.7.0/include/stddef.h"
	.file 16 "c:/program files (x86)/codeblocks/mingw/bin/../lib/gcc/mingw32/4.7.0/../../../../include/wctype.h"
	.file 17 "c:/program files (x86)/codeblocks/mingw/bin/../lib/gcc/mingw32/4.7.0/../../../../include/wchar.h"
	.file 18 "c:/program files (x86)/codeblocks/mingw/bin/../lib/gcc/mingw32/4.7.0/include/c++/cwchar"
	.file 19 "c:/program files (x86)/codeblocks/mingw/bin/../lib/gcc/mingw32/4.7.0/include/c++/mingw32/bits/c++config.h"
	.file 20 "c:/program files (x86)/codeblocks/mingw/bin/../lib/gcc/mingw32/4.7.0/include/c++/cstdint"
	.file 21 "c:/program files (x86)/codeblocks/mingw/bin/../lib/gcc/mingw32/4.7.0/include/c++/clocale"
	.file 22 "c:/program files (x86)/codeblocks/mingw/bin/../lib/gcc/mingw32/4.7.0/include/c++/bits/basic_string.h"
	.file 23 "c:/program files (x86)/codeblocks/mingw/bin/../lib/gcc/mingw32/4.7.0/include/c++/bits/stringfwd.h"
	.file 24 "c:/program files (x86)/codeblocks/mingw/bin/../lib/gcc/mingw32/4.7.0/include/c++/bits/ios_base.h"
	.file 25 "c:/program files (x86)/codeblocks/mingw/bin/../lib/gcc/mingw32/4.7.0/include/c++/cwctype"
	.file 26 "<built-in>"
	.file 27 "c:/program files (x86)/codeblocks/mingw/bin/../lib/gcc/mingw32/4.7.0/include/c++/type_traits"
	.file 28 "c:/program files (x86)/codeblocks/mingw/bin/../lib/gcc/mingw32/4.7.0/include/c++/debug/debug.h"
	.file 29 "c:/program files (x86)/codeblocks/mingw/bin/../lib/gcc/mingw32/4.7.0/include/c++/bits/char_traits.h"
	.file 30 "c:/program files (x86)/codeblocks/mingw/bin/../lib/gcc/mingw32/4.7.0/../../../../include/stdint.h"
	.file 31 "c:/program files (x86)/codeblocks/mingw/bin/../lib/gcc/mingw32/4.7.0/../../../../include/locale.h"
	.file 32 "c:/program files (x86)/codeblocks/mingw/bin/../lib/gcc/mingw32/4.7.0/include/c++/mingw32/bits/atomic_word.h"
	.file 33 "c:/program files (x86)/codeblocks/mingw/bin/../lib/gcc/mingw32/4.7.0/include/c++/ext/numeric_traits.h"
	.file 34 "c:/program files (x86)/codeblocks/mingw/bin/../lib/gcc/mingw32/4.7.0/include/c++/bits/basic_string.tcc"
	.file 35 "c:/program files (x86)/codeblocks/mingw/bin/../lib/gcc/mingw32/4.7.0/../../../../include/ctype.h"
	.file 36 "F:/CSIKI/PROGRAMING/C++/main/Croupier/BotTester/BotTester/BotLanguage.h"
	.file 37 "c:/program files (x86)/codeblocks/mingw/bin/../lib/gcc/mingw32/4.7.0/include/c++/initializer_list"
	.file 38 "c:/program files (x86)/codeblocks/mingw/bin/../lib/gcc/mingw32/4.7.0/include/c++/mingw32/bits/gthr-default.h"