	.file	"pugixml.cpp"
	.text
Ltext0:
	.section	.text$_ZNSt9exceptionC2Ev,"x"
	.linkonce discard
	.align 2
	.globl	__ZNSt9exceptionC2Ev
	.def	__ZNSt9exceptionC2Ev;	.scl	2;	.type	32;	.endef
__ZNSt9exceptionC2Ev:
LFB1:
	.file 1 "c:/program files (x86)/codeblocks/mingw/bin/../lib/gcc/mingw32/4.7.0/include/c++/exception"
	.loc 1 65 0
	.cfi_startproc
	pushl	%ebp
LCFI0:
	.cfi_def_cfa_offset 8
	.cfi_offset 5, -8
	movl	%esp, %ebp
LCFI1:
	.cfi_def_cfa_register 5
	subl	$4, %esp
	movl	%ecx, -4(%ebp)
LBB2:
	.loc 1 65 0
	movl	-4(%ebp), %eax
	movl	$__ZTVSt9exception+8, (%eax)
LBE2:
	leave
LCFI2:
	.cfi_restore 5
	.cfi_def_cfa 4, 4
	ret
	.cfi_endproc
LFE1:
	.section .rdata,"dr"
__ZStL19piecewise_construct:
	.space 1
	.section	.text$_ZNSt9bad_allocC1Ev,"x"
	.linkonce discard
	.align 2
	.globl	__ZNSt9bad_allocC1Ev
	.def	__ZNSt9bad_allocC1Ev;	.scl	2;	.type	32;	.endef
__ZNSt9bad_allocC1Ev:
LFB331:
	.file 2 "c:/program files (x86)/codeblocks/mingw/bin/../lib/gcc/mingw32/4.7.0/include/c++/new"
	.loc 2 59 0
	.cfi_startproc
	pushl	%ebp
LCFI3:
	.cfi_def_cfa_offset 8
	.cfi_offset 5, -8
	movl	%esp, %ebp
LCFI4:
	.cfi_def_cfa_register 5
	subl	$4, %esp
	movl	%ecx, -4(%ebp)
LBB3:
	.loc 2 59 0
	movl	-4(%ebp), %eax
	movl	%eax, %ecx
	call	__ZNSt9exceptionC2Ev
	movl	-4(%ebp), %eax
	movl	$__ZTVSt9bad_alloc+8, (%eax)
LBE3:
	leave
LCFI5:
	.cfi_restore 5
	.cfi_def_cfa 4, 4
	ret
	.cfi_endproc
LFE331:
	.section	.text$_ZnwjPv,"x"
	.linkonce discard
	.globl	__ZnwjPv
	.def	__ZnwjPv;	.scl	2;	.type	32;	.endef
__ZnwjPv:
LFB332:
	.loc 2 112 0
	.cfi_startproc
	pushl	%ebp
LCFI6:
	.cfi_def_cfa_offset 8
	.cfi_offset 5, -8
	movl	%esp, %ebp
LCFI7:
	.cfi_def_cfa_register 5
	.loc 2 112 0
	movl	12(%ebp), %eax
	popl	%ebp
LCFI8:
	.cfi_restore 5
	.cfi_def_cfa 4, 4
	ret
	.cfi_endproc
LFE332:
	.section	.text$_ZdlPvS_,"x"
	.linkonce discard
	.globl	__ZdlPvS_
	.def	__ZdlPvS_;	.scl	2;	.type	32;	.endef
__ZdlPvS_:
LFB334:
	.loc 2 117 0
	.cfi_startproc
	pushl	%ebp
LCFI9:
	.cfi_def_cfa_offset 8
	.cfi_offset 5, -8
	movl	%esp, %ebp
LCFI10:
	.cfi_def_cfa_register 5
	.loc 2 117 0
	popl	%ebp
LCFI11:
	.cfi_restore 5
	.cfi_def_cfa 4, 4
	ret
	.cfi_endproc
LFE334:
	.section	.text$_ZN4pugi10xml_writerD2Ev,"x"
	.linkonce discard
	.align 2
	.globl	__ZN4pugi10xml_writerD2Ev
	.def	__ZN4pugi10xml_writerD2Ev;	.scl	2;	.type	32;	.endef
__ZN4pugi10xml_writerD2Ev:
LFB1132:
	.file 3 "F:/CSIKI/PROGRAMING/C++/main/Croupier/BotTester/BotTester/pugixml.hpp"
	.loc 3 236 0
	.cfi_startproc
	pushl	%ebp
LCFI12:
	.cfi_def_cfa_offset 8
	.cfi_offset 5, -8
	movl	%esp, %ebp
LCFI13:
	.cfi_def_cfa_register 5
	subl	$40, %esp
	movl	%ecx, -12(%ebp)
LBB4:
	.loc 3 236 0
	movl	-12(%ebp), %eax
	movl	$__ZTVN4pugi10xml_writerE+8, (%eax)
LBE4:
	movl	$0, %eax
	andl	$1, %eax
	testl	%eax, %eax
	je	L6
	.loc 3 236 0 is_stmt 0 discriminator 1
	movl	-12(%ebp), %eax
	movl	%eax, (%esp)
	call	__ZdlPv
L6:
	.loc 3 236 0
	leave
LCFI14:
	.cfi_restore 5
	.cfi_def_cfa 4, 4
	ret
	.cfi_endproc
LFE1132:
	.section	.text$_ZN4pugi10xml_writerD1Ev,"x"
	.linkonce discard
	.align 2
	.globl	__ZN4pugi10xml_writerD1Ev
	.def	__ZN4pugi10xml_writerD1Ev;	.scl	2;	.type	32;	.endef
__ZN4pugi10xml_writerD1Ev:
LFB1133:
	.loc 3 236 0 is_stmt 1
	.cfi_startproc
	pushl	%ebp
LCFI15:
	.cfi_def_cfa_offset 8
	.cfi_offset 5, -8
	movl	%esp, %ebp
LCFI16:
	.cfi_def_cfa_register 5
	subl	$40, %esp
	movl	%ecx, -12(%ebp)
LBB5:
	.loc 3 236 0
	movl	-12(%ebp), %eax
	movl	$__ZTVN4pugi10xml_writerE+8, (%eax)
LBE5:
	movl	$2, %eax
	andl	$1, %eax
	testl	%eax, %eax
	je	L9
	.loc 3 236 0 is_stmt 0 discriminator 1
	movl	-12(%ebp), %eax
	movl	%eax, (%esp)
	call	__ZdlPv
L9:
	.loc 3 236 0
	leave
LCFI17:
	.cfi_restore 5
	.cfi_def_cfa 4, 4
	ret
	.cfi_endproc
LFE1133:
	.section	.text$_ZN4pugi10xml_writerD0Ev,"x"
	.linkonce discard
	.align 2
	.globl	__ZN4pugi10xml_writerD0Ev
	.def	__ZN4pugi10xml_writerD0Ev;	.scl	2;	.type	32;	.endef
__ZN4pugi10xml_writerD0Ev:
LFB1134:
	.loc 3 236 0 is_stmt 1
	.cfi_startproc
	pushl	%ebp
LCFI18:
	.cfi_def_cfa_offset 8
	.cfi_offset 5, -8
	movl	%esp, %ebp
LCFI19:
	.cfi_def_cfa_register 5
	subl	$40, %esp
	movl	%ecx, -12(%ebp)
	.loc 3 236 0
	movl	-12(%ebp), %eax
	movl	%eax, %ecx
	call	__ZN4pugi10xml_writerD1Ev
	movl	-12(%ebp), %eax
	movl	%eax, (%esp)
	call	__ZdlPv
	leave
LCFI20:
	.cfi_restore 5
	.cfi_def_cfa 4, 4
	ret
	.cfi_endproc
LFE1134:
	.section	.text$sprintf,"x"
	.linkonce discard
	.globl	_sprintf
	.def	_sprintf;	.scl	2;	.type	32;	.endef
_sprintf:
LFB1140:
	.file 4 "c:/program files (x86)/codeblocks/mingw/bin/../lib/gcc/mingw32/4.7.0/../../../../include/stdio.h"
	.loc 4 263 0
	.cfi_startproc
	pushl	%ebp
LCFI21:
	.cfi_def_cfa_offset 8
	.cfi_offset 5, -8
	movl	%esp, %ebp
LCFI22:
	.cfi_def_cfa_register 5
	pushl	%ebx
	subl	$36, %esp
	.cfi_offset 3, -12
LBB6:
	.loc 4 265 0
	leal	16(%ebp), %eax
	movl	%eax, -12(%ebp)
	.loc 4 266 0
	movl	-12(%ebp), %eax
	movl	%eax, 8(%esp)
	movl	12(%ebp), %eax
	movl	%eax, 4(%esp)
	movl	8(%ebp), %eax
	movl	%eax, (%esp)
	call	___mingw_vsprintf
	movl	%eax, %ebx
	.loc 4 268 0
	movl	%ebx, %eax
LBE6:
	.loc 4 269 0
	addl	$36, %esp
	popl	%ebx
	.cfi_restore 3
	popl	%ebp
LCFI23:
	.cfi_restore 5
	.cfi_def_cfa 4, 4
	ret
	.cfi_endproc
LFE1140:
	.section	.text$ferror,"x"
	.linkonce discard
	.globl	_ferror
	.def	_ferror;	.scl	2;	.type	32;	.endef
_ferror:
LFB1145:
	.loc 4 474 0
	.cfi_startproc
	pushl	%ebp
LCFI24:
	.cfi_def_cfa_offset 8
	.cfi_offset 5, -8
	movl	%esp, %ebp
LCFI25:
	.cfi_def_cfa_register 5
	.loc 4 474 0
	movl	8(%ebp), %eax
	movl	12(%eax), %eax
	andl	$32, %eax
	popl	%ebp
LCFI26:
	.cfi_restore 5
	.cfi_def_cfa 4, 4
	ret
	.cfi_endproc
LFE1145:
	.text
	.def	__ZN4pugi4impl12_GLOBAL__N_116default_allocateEj;	.scl	3;	.type	32;	.endef
__ZN4pugi4impl12_GLOBAL__N_116default_allocateEj:
LFB1146:
	.file 5 "F:/CSIKI/PROGRAMING/C++/main/Croupier/BotTester/BotTester/pugixml.cpp"
	.loc 5 143 0
	.cfi_startproc
	pushl	%ebp
LCFI27:
	.cfi_def_cfa_offset 8
	.cfi_offset 5, -8
	movl	%esp, %ebp
LCFI28:
	.cfi_def_cfa_register 5
	subl	$24, %esp
	.loc 5 144 0
	movl	8(%ebp), %eax
	movl	%eax, (%esp)
	call	_malloc
	.loc 5 145 0
	leave
LCFI29:
	.cfi_restore 5
	.cfi_def_cfa 4, 4
	ret
	.cfi_endproc
LFE1146:
	.def	__ZN4pugi4impl12_GLOBAL__N_118default_deallocateEPv;	.scl	3;	.type	32;	.endef
__ZN4pugi4impl12_GLOBAL__N_118default_deallocateEPv:
LFB1147:
	.loc 5 148 0
	.cfi_startproc
	pushl	%ebp
LCFI30:
	.cfi_def_cfa_offset 8
	.cfi_offset 5, -8
	movl	%esp, %ebp
LCFI31:
	.cfi_def_cfa_register 5
	subl	$24, %esp
	.loc 5 149 0
	movl	8(%ebp), %eax
	movl	%eax, (%esp)
	call	_free
	.loc 5 150 0
	leave
LCFI32:
	.cfi_restore 5
	.cfi_def_cfa 4, 4
	ret
	.cfi_endproc
LFE1147:
	.section .rdata,"dr"
	.align 4
LC0:
	.ascii "F:\\CSIKI\\PROGRAMING\\C++\\main\\Croupier\\BotTester\\BotTester\\pugixml.cpp\0"
LC1:
	.ascii "s\0"
	.text
	.def	__ZN4pugi4impl12_GLOBAL__N_19strlengthEPKc;	.scl	3;	.type	32;	.endef
__ZN4pugi4impl12_GLOBAL__N_19strlengthEPKc:
LFB1148:
	.loc 5 169 0
	.cfi_startproc
	pushl	%ebp
LCFI33:
	.cfi_def_cfa_offset 8
	.cfi_offset 5, -8
	movl	%esp, %ebp
LCFI34:
	.cfi_def_cfa_register 5
	subl	$24, %esp
	.loc 5 170 0
	cmpl	$0, 8(%ebp)
	jne	L22
	.loc 5 170 0 is_stmt 0 discriminator 1
	movl	$170, 8(%esp)
	movl	$LC0, 4(%esp)
	movl	$LC1, (%esp)
	call	__assert
L22:
	.loc 5 175 0 is_stmt 1
	movl	8(%ebp), %eax
	movl	%eax, (%esp)
	call	_strlen
	.loc 5 177 0
	leave
LCFI35:
	.cfi_restore 5
	.cfi_def_cfa 4, 4
	ret
	.cfi_endproc
LFE1148:
	.section .rdata,"dr"
LC2:
	.ascii "src && dst\0"
	.text
	.def	__ZN4pugi4impl12_GLOBAL__N_18strequalEPKcS3_;	.scl	3;	.type	32;	.endef
__ZN4pugi4impl12_GLOBAL__N_18strequalEPKcS3_:
LFB1149:
	.loc 5 181 0
	.cfi_startproc
	pushl	%ebp
LCFI36:
	.cfi_def_cfa_offset 8
	.cfi_offset 5, -8
	movl	%esp, %ebp
LCFI37:
	.cfi_def_cfa_register 5
	subl	$24, %esp
	.loc 5 182 0
	cmpl	$0, 8(%ebp)
	je	L25
	.loc 5 182 0 is_stmt 0 discriminator 2
	cmpl	$0, 12(%ebp)
	jne	L26
L25:
	.loc 5 182 0 discriminator 1
	movl	$182, 8(%esp)
	movl	$LC0, 4(%esp)
	movl	$LC2, (%esp)
	call	__assert
L26:
	.loc 5 187 0 is_stmt 1
	movl	12(%ebp), %eax
	movl	%eax, 4(%esp)
	movl	8(%ebp), %eax
	movl	%eax, (%esp)
	call	_strcmp
	testl	%eax, %eax
	sete	%al
	.loc 5 189 0
	leave
LCFI38:
	.cfi_restore 5
	.cfi_def_cfa 4, 4
	ret
	.cfi_endproc
LFE1149:
	.def	__ZN4pugi4impl12_GLOBAL__N_113strequalrangeEPKcS3_j;	.scl	3;	.type	32;	.endef
__ZN4pugi4impl12_GLOBAL__N_113strequalrangeEPKcS3_j:
LFB1150:
	.loc 5 193 0
	.cfi_startproc
	pushl	%ebp
LCFI39:
	.cfi_def_cfa_offset 8
	.cfi_offset 5, -8
	movl	%esp, %ebp
LCFI40:
	.cfi_def_cfa_register 5
	subl	$16, %esp
LBB7:
LBB8:
	.loc 5 194 0
	movl	$0, -4(%ebp)
	jmp	L29
L32:
	.loc 5 195 0
	movl	-4(%ebp), %eax
	movl	8(%ebp), %edx
	addl	%edx, %eax
	movb	(%eax), %dl
	movl	-4(%ebp), %eax
	movl	12(%ebp), %ecx
	addl	%ecx, %eax
	movb	(%eax), %al
	cmpb	%al, %dl
	je	L30
	.loc 5 196 0
	movb	$0, %al
	jmp	L31
L30:
	.loc 5 194 0
	incl	-4(%ebp)
L29:
	.loc 5 194 0 is_stmt 0 discriminator 1
	movl	-4(%ebp), %eax
	cmpl	16(%ebp), %eax
	setb	%al
	testb	%al, %al
	jne	L32
LBE8:
	.loc 5 198 0 is_stmt 1
	movl	16(%ebp), %eax
	movl	8(%ebp), %edx
	addl	%edx, %eax
	movb	(%eax), %al
	testb	%al, %al
	sete	%al
L31:
LBE7:
	.loc 5 199 0
	leave
LCFI41:
	.cfi_restore 5
	.cfi_def_cfa 4, 4
	ret
	.cfi_endproc
LFE1150:
	.align 2
	.def	__ZN4pugi4impl12_GLOBAL__N_113buffer_holderC2EPvPFvS3_E;	.scl	3;	.type	32;	.endef
__ZN4pugi4impl12_GLOBAL__N_113buffer_holderC2EPvPFvS3_E:
LFB1152:
	.loc 5 219 0
	.cfi_startproc
	pushl	%ebp
LCFI42:
	.cfi_def_cfa_offset 8
	.cfi_offset 5, -8
	movl	%esp, %ebp
LCFI43:
	.cfi_def_cfa_register 5
	subl	$4, %esp
	movl	%ecx, -4(%ebp)
LBB9:
	.loc 5 219 0
	movl	-4(%ebp), %eax
	movl	8(%ebp), %edx
	movl	%edx, (%eax)
	movl	-4(%ebp), %eax
	movl	12(%ebp), %edx
	movl	%edx, 4(%eax)
LBE9:
	.loc 5 221 0
	leave
LCFI44:
	.cfi_restore 5
	.cfi_def_cfa 4, 4
	ret	$8
	.cfi_endproc
LFE1152:
	.def	__ZN4pugi4impl12_GLOBAL__N_113buffer_holderC1EPvPFvS3_E;	.scl	3;	.type	32;	.endef
	.set	__ZN4pugi4impl12_GLOBAL__N_113buffer_holderC1EPvPFvS3_E,__ZN4pugi4impl12_GLOBAL__N_113buffer_holderC2EPvPFvS3_E
	.align 2
	.def	__ZN4pugi4impl12_GLOBAL__N_113buffer_holderD2Ev;	.scl	3;	.type	32;	.endef
__ZN4pugi4impl12_GLOBAL__N_113buffer_holderD2Ev:
LFB1155:
	.loc 5 223 0
	.cfi_startproc
	pushl	%ebp
LCFI45:
	.cfi_def_cfa_offset 8
	.cfi_offset 5, -8
	movl	%esp, %ebp
LCFI46:
	.cfi_def_cfa_register 5
	subl	$40, %esp
	movl	%ecx, -12(%ebp)
LBB10:
	.loc 5 225 0
	movl	-12(%ebp), %eax
	movl	(%eax), %eax
	testl	%eax, %eax
	je	L34
	.loc 5 225 0 is_stmt 0 discriminator 1
	movl	-12(%ebp), %eax
	movl	4(%eax), %eax
	movl	-12(%ebp), %edx
	movl	(%edx), %edx
	movl	%edx, (%esp)
	call	*%eax
L34:
LBE10:
	.loc 5 226 0 is_stmt 1
	leave
LCFI47:
	.cfi_restore 5
	.cfi_def_cfa 4, 4
	ret
	.cfi_endproc
LFE1155:
	.def	__ZN4pugi4impl12_GLOBAL__N_113buffer_holderD1Ev;	.scl	3;	.type	32;	.endef
	.set	__ZN4pugi4impl12_GLOBAL__N_113buffer_holderD1Ev,__ZN4pugi4impl12_GLOBAL__N_113buffer_holderD2Ev
	.align 2
	.def	__ZN4pugi4impl12_GLOBAL__N_113buffer_holder7releaseEv;	.scl	3;	.type	32;	.endef
__ZN4pugi4impl12_GLOBAL__N_113buffer_holder7releaseEv:
LFB1157:
	.loc 5 228 0
	.cfi_startproc
	pushl	%ebp
LCFI48:
	.cfi_def_cfa_offset 8
	.cfi_offset 5, -8
	movl	%esp, %ebp
LCFI49:
	.cfi_def_cfa_register 5
	subl	$20, %esp
	movl	%ecx, -20(%ebp)
LBB11:
	.loc 5 230 0
	movl	-20(%ebp), %eax
	movl	(%eax), %eax
	movl	%eax, -4(%ebp)
	.loc 5 231 0
	movl	-20(%ebp), %eax
	movl	$0, (%eax)
	.loc 5 232 0
	movl	-4(%ebp), %eax
LBE11:
	.loc 5 233 0
	leave
LCFI50:
	.cfi_restore 5
	.cfi_def_cfa 4, 4
	ret
	.cfi_endproc
LFE1157:
	.def	__ZN4pugi4impl12_GLOBAL__N_115xml_memory_page9constructEPv;	.scl	3;	.type	32;	.endef
__ZN4pugi4impl12_GLOBAL__N_115xml_memory_page9constructEPv:
LFB1158:
	.loc 5 257 0
	.cfi_startproc
	pushl	%ebp
LCFI51:
	.cfi_def_cfa_offset 8
	.cfi_offset 5, -8
	movl	%esp, %ebp
LCFI52:
	.cfi_def_cfa_register 5
	subl	$16, %esp
LBB12:
	.loc 5 259 0
	cmpl	$0, 8(%ebp)
	jne	L39
	.loc 5 259 0 is_stmt 0 discriminator 1
	movl	$0, %eax
	jmp	L40
L39:
	.loc 5 261 0 is_stmt 1
	movl	8(%ebp), %eax
	movl	%eax, -4(%ebp)
	.loc 5 263 0
	movl	-4(%ebp), %eax
	movl	$0, (%eax)
	.loc 5 264 0
	movl	-4(%ebp), %eax
	movl	$0, 4(%eax)
	.loc 5 265 0
	movl	-4(%ebp), %eax
	movl	$0, 8(%eax)
	.loc 5 266 0
	movl	-4(%ebp), %eax
	movl	$0, 12(%eax)
	.loc 5 267 0
	movl	-4(%ebp), %eax
	movl	$0, 16(%eax)
	.loc 5 268 0
	movl	-4(%ebp), %eax
	movl	$0, 20(%eax)
	.loc 5 270 0
	movl	-4(%ebp), %eax
L40:
LBE12:
	.loc 5 271 0
	leave
LCFI53:
	.cfi_restore 5
	.cfi_def_cfa 4, 4
	ret
	.cfi_endproc
LFE1158:
	.align 2
	.def	__ZN4pugi4impl12_GLOBAL__N_113xml_allocatorC2EPNS1_15xml_memory_pageE;	.scl	3;	.type	32;	.endef
__ZN4pugi4impl12_GLOBAL__N_113xml_allocatorC2EPNS1_15xml_memory_pageE:
LFB1160:
	.loc 5 294 0
	.cfi_startproc
	pushl	%ebp
LCFI54:
	.cfi_def_cfa_offset 8
	.cfi_offset 5, -8
	movl	%esp, %ebp
LCFI55:
	.cfi_def_cfa_register 5
	subl	$4, %esp
	movl	%ecx, -4(%ebp)
LBB13:
	.loc 5 294 0
	movl	-4(%ebp), %eax
	movl	8(%ebp), %edx
	movl	%edx, (%eax)
	movl	8(%ebp), %eax
	movl	16(%eax), %edx
	movl	-4(%ebp), %eax
	movl	%edx, 4(%eax)
LBE13:
	.loc 5 296 0
	leave
LCFI56:
	.cfi_restore 5
	.cfi_def_cfa 4, 4
	ret	$4
	.cfi_endproc
LFE1160:
	.align 2
	.def	__ZN4pugi4impl12_GLOBAL__N_113xml_allocator13allocate_pageEj;	.scl	3;	.type	32;	.endef
__ZN4pugi4impl12_GLOBAL__N_113xml_allocator13allocate_pageEj:
LFB1162:
	.loc 5 298 0
	.cfi_startproc
	pushl	%ebp
LCFI57:
	.cfi_def_cfa_offset 8
	.cfi_offset 5, -8
	movl	%esp, %ebp
LCFI58:
	.cfi_def_cfa_register 5
	subl	$56, %esp
	movl	%ecx, -28(%ebp)
LBB14:
	.loc 5 300 0
	movl	8(%ebp), %eax
	addl	$24, %eax
	movl	%eax, -12(%ebp)
	.loc 5 303 0
	movl	__ZN4pugi4impl12_GLOBAL__N_138xml_memory_management_function_storageIiE8allocateE, %eax
	movl	-12(%ebp), %edx
	addl	$32, %edx
	movl	%edx, (%esp)
	call	*%eax
	movl	%eax, -16(%ebp)
	.loc 5 304 0
	cmpl	$0, -16(%ebp)
	jne	L43
	.loc 5 304 0 is_stmt 0 discriminator 1
	movl	$0, %eax
	jmp	L44
L43:
	.loc 5 307 0 is_stmt 1
	movl	-16(%ebp), %eax
	addl	$31, %eax
	andl	$-32, %eax
	movl	%eax, -20(%ebp)
	.loc 5 310 0
	movl	-20(%ebp), %eax
	movl	%eax, (%esp)
	call	__ZN4pugi4impl12_GLOBAL__N_115xml_memory_page9constructEPv
	movl	%eax, -24(%ebp)
	.loc 5 312 0
	movl	-24(%ebp), %eax
	movl	-16(%ebp), %edx
	movl	%edx, 4(%eax)
	.loc 5 313 0
	movl	-28(%ebp), %eax
	movl	(%eax), %eax
	movl	(%eax), %edx
	movl	-24(%ebp), %eax
	movl	%edx, (%eax)
	.loc 5 315 0
	movl	-24(%ebp), %eax
L44:
LBE14:
	.loc 5 316 0
	leave
LCFI59:
	.cfi_restore 5
	.cfi_def_cfa 4, 4
	ret	$4
	.cfi_endproc
LFE1162:
	.def	__ZN4pugi4impl12_GLOBAL__N_113xml_allocator15deallocate_pageEPNS1_15xml_memory_pageE;	.scl	3;	.type	32;	.endef
__ZN4pugi4impl12_GLOBAL__N_113xml_allocator15deallocate_pageEPNS1_15xml_memory_pageE:
LFB1163:
	.loc 5 318 0
	.cfi_startproc
	pushl	%ebp
LCFI60:
	.cfi_def_cfa_offset 8
	.cfi_offset 5, -8
	movl	%esp, %ebp
LCFI61:
	.cfi_def_cfa_register 5
	subl	$24, %esp
	.loc 5 320 0
	movl	__ZN4pugi4impl12_GLOBAL__N_138xml_memory_management_function_storageIiE10deallocateE, %eax
	movl	8(%ebp), %edx
	movl	4(%edx), %edx
	movl	%edx, (%esp)
	call	*%eax
	.loc 5 321 0
	leave
LCFI62:
	.cfi_restore 5
	.cfi_def_cfa 4, 4
	ret
	.cfi_endproc
LFE1163:
	.align 2
	.def	__ZN4pugi4impl12_GLOBAL__N_113xml_allocator15allocate_memoryEjRPNS1_15xml_memory_pageE;	.scl	3;	.type	32;	.endef
__ZN4pugi4impl12_GLOBAL__N_113xml_allocator15allocate_memoryEjRPNS1_15xml_memory_pageE:
LFB1164:
	.loc 5 325 0
	.cfi_startproc
	pushl	%ebp
LCFI63:
	.cfi_def_cfa_offset 8
	.cfi_offset 5, -8
	movl	%esp, %ebp
LCFI64:
	.cfi_def_cfa_register 5
	subl	$56, %esp
	movl	%ecx, -28(%ebp)
LBB15:
	.loc 5 327 0
	movl	-28(%ebp), %eax
	movl	4(%eax), %edx
	movl	8(%ebp), %eax
	addl	%edx, %eax
	cmpl	$32768, %eax
	jbe	L47
	.loc 5 327 0 is_stmt 0 discriminator 1
	movl	-28(%ebp), %eax
	movl	12(%ebp), %edx
	movl	%edx, 4(%esp)
	movl	8(%ebp), %edx
	movl	%edx, (%esp)
	movl	%eax, %ecx
	call	__ZN4pugi4impl12_GLOBAL__N_113xml_allocator19allocate_memory_oobEjRPNS1_15xml_memory_pageE
	subl	$8, %esp
	jmp	L48
L47:
	.loc 5 329 0 is_stmt 1
	movl	-28(%ebp), %eax
	movl	(%eax), %edx
	movl	-28(%ebp), %eax
	movl	4(%eax), %eax
	addl	$16, %eax
	addl	%edx, %eax
	addl	$8, %eax
	movl	%eax, -12(%ebp)
	.loc 5 331 0
	movl	-28(%ebp), %eax
	movl	4(%eax), %edx
	movl	8(%ebp), %eax
	addl	%eax, %edx
	movl	-28(%ebp), %eax
	movl	%edx, 4(%eax)
	.loc 5 333 0
	movl	-28(%ebp), %eax
	movl	(%eax), %edx
	movl	12(%ebp), %eax
	movl	%edx, (%eax)
	.loc 5 335 0
	movl	-12(%ebp), %eax
L48:
LBE15:
	.loc 5 336 0
	leave
LCFI65:
	.cfi_restore 5
	.cfi_def_cfa 4, 4
	ret	$8
	.cfi_endproc
LFE1164:
	.section .rdata,"dr"
	.align 4
LC3:
	.ascii "ptr >= page->data && ptr < page->data + page->busy_size\0"
	.align 4
LC4:
	.ascii "page->freed_size <= page->busy_size\0"
LC5:
	.ascii "_root == page\0"
LC6:
	.ascii "_root != page\0"
LC7:
	.ascii "page->prev\0"
	.text
	.align 2
	.def	__ZN4pugi4impl12_GLOBAL__N_113xml_allocator17deallocate_memoryEPvjPNS1_15xml_memory_pageE;	.scl	3;	.type	32;	.endef
__ZN4pugi4impl12_GLOBAL__N_113xml_allocator17deallocate_memoryEPvjPNS1_15xml_memory_pageE:
LFB1165:
	.loc 5 338 0
	.cfi_startproc
	pushl	%ebp
LCFI66:
	.cfi_def_cfa_offset 8
	.cfi_offset 5, -8
	movl	%esp, %ebp
LCFI67:
	.cfi_def_cfa_register 5
	subl	$40, %esp
	movl	%ecx, -12(%ebp)
	.loc 5 340 0
	movl	-12(%ebp), %eax
	movl	(%eax), %eax
	cmpl	16(%ebp), %eax
	jne	L50
	.loc 5 340 0 is_stmt 0 discriminator 1
	movl	-12(%ebp), %eax
	movl	4(%eax), %edx
	movl	16(%ebp), %eax
	movl	%edx, 16(%eax)
L50:
	.loc 5 342 0 is_stmt 1
	movl	16(%ebp), %eax
	addl	$24, %eax
	cmpl	8(%ebp), %eax
	ja	L51
	.loc 5 342 0 is_stmt 0 discriminator 2
	movl	16(%ebp), %eax
	movl	16(%eax), %eax
	leal	16(%eax), %edx
	movl	16(%ebp), %eax
	addl	%edx, %eax
	addl	$8, %eax
	cmpl	8(%ebp), %eax
	ja	L52
L51:
	.loc 5 342 0 discriminator 1
	movl	$342, 8(%esp)
	movl	$LC0, 4(%esp)
	movl	$LC3, (%esp)
	call	__assert
L52:
	.loc 5 345 0 is_stmt 1
	movl	16(%ebp), %eax
	movl	20(%eax), %edx
	movl	12(%ebp), %eax
	addl	%eax, %edx
	movl	16(%ebp), %eax
	movl	%edx, 20(%eax)
	.loc 5 346 0
	movl	16(%ebp), %eax
	movl	20(%eax), %edx
	movl	16(%ebp), %eax
	movl	16(%eax), %eax
	cmpl	%eax, %edx
	jbe	L53
	.loc 5 346 0 is_stmt 0 discriminator 1
	movl	$346, 8(%esp)
	movl	$LC0, 4(%esp)
	movl	$LC4, (%esp)
	call	__assert
L53:
	.loc 5 348 0 is_stmt 1
	movl	16(%ebp), %eax
	movl	20(%eax), %edx
	movl	16(%ebp), %eax
	movl	16(%eax), %eax
	cmpl	%eax, %edx
	jne	L49
	.loc 5 350 0
	movl	16(%ebp), %eax
	movl	12(%eax), %eax
	testl	%eax, %eax
	jne	L55
	.loc 5 352 0
	movl	-12(%ebp), %eax
	movl	(%eax), %eax
	cmpl	16(%ebp), %eax
	je	L56
	.loc 5 352 0 is_stmt 0 discriminator 1
	movl	$352, 8(%esp)
	movl	$LC0, 4(%esp)
	movl	$LC5, (%esp)
	call	__assert
L56:
	.loc 5 355 0 is_stmt 1
	movl	16(%ebp), %eax
	movl	$0, 20(%eax)
	movl	16(%ebp), %eax
	movl	20(%eax), %edx
	movl	16(%ebp), %eax
	movl	%edx, 16(%eax)
	.loc 5 356 0
	movl	-12(%ebp), %eax
	movl	$0, 4(%eax)
	jmp	L49
L55:
	.loc 5 360 0
	movl	-12(%ebp), %eax
	movl	(%eax), %eax
	cmpl	16(%ebp), %eax
	jne	L57
	.loc 5 360 0 is_stmt 0 discriminator 1
	movl	$360, 8(%esp)
	movl	$LC0, 4(%esp)
	movl	$LC6, (%esp)
	call	__assert
L57:
	.loc 5 361 0 is_stmt 1
	movl	16(%ebp), %eax
	movl	8(%eax), %eax
	testl	%eax, %eax
	jne	L58
	.loc 5 361 0 is_stmt 0 discriminator 1
	movl	$361, 8(%esp)
	movl	$LC0, 4(%esp)
	movl	$LC7, (%esp)
	call	__assert
L58:
	.loc 5 364 0 is_stmt 1
	movl	16(%ebp), %eax
	movl	8(%eax), %eax
	movl	16(%ebp), %edx
	movl	12(%edx), %edx
	movl	%edx, 12(%eax)
	.loc 5 365 0
	movl	16(%ebp), %eax
	movl	12(%eax), %eax
	movl	16(%ebp), %edx
	movl	8(%edx), %edx
	movl	%edx, 8(%eax)
	.loc 5 368 0
	movl	16(%ebp), %eax
	movl	%eax, (%esp)
	call	__ZN4pugi4impl12_GLOBAL__N_113xml_allocator15deallocate_pageEPNS1_15xml_memory_pageE
L49:
	.loc 5 371 0
	leave
LCFI68:
	.cfi_restore 5
	.cfi_def_cfa 4, 4
	ret	$12
	.cfi_endproc
LFE1165:
	.section .rdata,"dr"
	.align 4
LC8:
	.ascii "page_offset >= 0 && page_offset < (1 << 16)\0"
	.align 4
LC9:
	.ascii "full_size < (1 << 16) || (page->busy_size == full_size && page_offset == 0)\0"
	.text
	.align 2
	.def	__ZN4pugi4impl12_GLOBAL__N_113xml_allocator15allocate_stringEj;	.scl	3;	.type	32;	.endef
__ZN4pugi4impl12_GLOBAL__N_113xml_allocator15allocate_stringEj:
LFB1166:
	.loc 5 373 0
	.cfi_startproc
	.cfi_personality 0,___gxx_personality_v0
	.cfi_lsda 0,LLSDA1166
	pushl	%ebp
LCFI69:
	.cfi_def_cfa_offset 8
	.cfi_offset 5, -8
	movl	%esp, %ebp
LCFI70:
	.cfi_def_cfa_register 5
	subl	$72, %esp
	movl	%ecx, -44(%ebp)
LBB16:
	.loc 5 376 0
	movl	8(%ebp), %eax
	addl	$4, %eax
	movl	%eax, -12(%ebp)
	.loc 5 379 0
	movl	-12(%ebp), %eax
	addl	$3, %eax
	andl	$-4, %eax
	movl	%eax, -16(%ebp)
	.loc 5 382 0
	movl	-44(%ebp), %eax
	leal	-28(%ebp), %edx
	movl	%edx, 4(%esp)
	movl	-16(%ebp), %edx
	movl	%edx, (%esp)
	movl	%eax, %ecx
LEHB0:
	call	__ZN4pugi4impl12_GLOBAL__N_113xml_allocator15allocate_memoryEjRPNS1_15xml_memory_pageE
LEHE0:
	subl	$8, %esp
	movl	%eax, -20(%ebp)
	.loc 5 384 0
	cmpl	$0, -20(%ebp)
	jne	L60
	.loc 5 384 0 is_stmt 0 discriminator 1
	movl	$0, %eax
	jmp	L68
L60:
	.loc 5 387 0 is_stmt 1
	movl	-20(%ebp), %edx
	movl	-28(%ebp), %eax
	addl	$24, %eax
	movl	%edx, %ecx
	subl	%eax, %ecx
	movl	%ecx, %eax
	movl	%eax, -24(%ebp)
	.loc 5 389 0
	cmpl	$0, -24(%ebp)
	js	L62
	.loc 5 389 0 is_stmt 0 discriminator 2
	cmpl	$65535, -24(%ebp)
	jle	L63
L62:
	.loc 5 389 0 discriminator 1
	movl	$389, 8(%esp)
	movl	$LC0, 4(%esp)
	movl	$LC8, (%esp)
	call	__assert
L63:
	.loc 5 390 0 is_stmt 1
	movl	-24(%ebp), %eax
	movl	-20(%ebp), %edx
	movw	%ax, (%edx)
	.loc 5 393 0
	cmpl	$65535, -16(%ebp)
	jbe	L64
	.loc 5 393 0 is_stmt 0 discriminator 1
	movl	-28(%ebp), %eax
	movl	16(%eax), %eax
	cmpl	-16(%ebp), %eax
	jne	L65
	.loc 5 393 0 discriminator 3
	cmpl	$0, -24(%ebp)
	je	L64
L65:
	.loc 5 393 0 discriminator 2
	movl	$393, 8(%esp)
	movl	$LC0, 4(%esp)
	movl	$LC9, (%esp)
	call	__assert
L64:
	.loc 5 394 0 is_stmt 1
	cmpl	$65535, -16(%ebp)
	ja	L66
	.loc 5 394 0 is_stmt 0 discriminator 1
	movl	-16(%ebp), %eax
	jmp	L67
L66:
	.loc 5 394 0 discriminator 2
	movl	$0, %eax
L67:
	.loc 5 394 0 discriminator 3
	movl	-20(%ebp), %edx
	movw	%ax, 2(%edx)
	.loc 5 398 0 is_stmt 1 discriminator 3
	movl	-20(%ebp), %eax
	addl	$4, %eax
L68:
	jmp	L71
L70:
	movl	%eax, (%esp)
LEHB1:
	call	__Unwind_Resume
LEHE1:
L71:
LBE16:
	.loc 5 399 0
	leave
LCFI71:
	.cfi_restore 5
	.cfi_def_cfa 4, 4
	ret	$4
	.cfi_endproc
LFE1166:
	.def	___gxx_personality_v0;	.scl	2;	.type	32;	.endef
	.section	.gcc_except_table,"w"
LLSDA1166:
	.byte	0xff
	.byte	0xff
	.byte	0x1
	.uleb128 LLSDACSE1166-LLSDACSB1166
LLSDACSB1166:
	.uleb128 LEHB0-LFB1166
	.uleb128 LEHE0-LEHB0
	.uleb128 L70-LFB1166
	.uleb128 0
	.uleb128 LEHB1-LFB1166
	.uleb128 LEHE1-LEHB1
	.uleb128 0
	.uleb128 0
LLSDACSE1166:
	.text
	.align 2
	.def	__ZN4pugi4impl12_GLOBAL__N_113xml_allocator17deallocate_stringEPc;	.scl	3;	.type	32;	.endef
__ZN4pugi4impl12_GLOBAL__N_113xml_allocator17deallocate_stringEPc:
LFB1167:
	.loc 5 401 0
	.cfi_startproc
	pushl	%ebp
LCFI72:
	.cfi_def_cfa_offset 8
	.cfi_offset 5, -8
	movl	%esp, %ebp
LCFI73:
	.cfi_def_cfa_register 5
	subl	$56, %esp
	movl	%ecx, -28(%ebp)
LBB17:
	.loc 5 407 0
	movl	8(%ebp), %eax
	subl	$4, %eax
	movl	%eax, -12(%ebp)
	.loc 5 410 0
	movl	-12(%ebp), %eax
	movw	(%eax), %ax
	movzwl	%ax, %eax
	addl	$24, %eax
	movl	%eax, -16(%ebp)
	.loc 5 411 0
	movl	-16(%ebp), %eax
	movl	%eax, %edx
	negl	%edx
	movl	-12(%ebp), %eax
	addl	%edx, %eax
	movl	%eax, -20(%ebp)
	.loc 5 414 0
	movl	-12(%ebp), %eax
	movw	2(%eax), %ax
	testw	%ax, %ax
	jne	L73
	.loc 5 414 0 is_stmt 0 discriminator 1
	movl	-20(%ebp), %eax
	movl	16(%eax), %eax
	jmp	L74
L73:
	.loc 5 414 0 discriminator 2
	movl	-12(%ebp), %eax
	movw	2(%eax), %ax
	movzwl	%ax, %eax
L74:
	.loc 5 414 0 discriminator 3
	movl	%eax, -24(%ebp)
	.loc 5 416 0 is_stmt 1 discriminator 3
	movl	-28(%ebp), %eax
	movl	-20(%ebp), %edx
	movl	%edx, 8(%esp)
	movl	-24(%ebp), %edx
	movl	%edx, 4(%esp)
	movl	-12(%ebp), %edx
	movl	%edx, (%esp)
	movl	%eax, %ecx
	call	__ZN4pugi4impl12_GLOBAL__N_113xml_allocator17deallocate_memoryEPvjPNS1_15xml_memory_pageE
	subl	$12, %esp
LBE17:
	.loc 5 417 0 discriminator 3
	leave
LCFI74:
	.cfi_restore 5
	.cfi_def_cfa 4, 4
	ret	$4
	.cfi_endproc
LFE1167:
	.section .rdata,"dr"
LC10:
	.ascii "_root->prev\0"
	.text
	.align 2
	.def	__ZN4pugi4impl12_GLOBAL__N_113xml_allocator19allocate_memory_oobEjRPNS1_15xml_memory_pageE;	.scl	3;	.type	32;	.endef
__ZN4pugi4impl12_GLOBAL__N_113xml_allocator19allocate_memory_oobEjRPNS1_15xml_memory_pageE:
LFB1168:
	.loc 5 424 0
	.cfi_startproc
	pushl	%ebp
LCFI75:
	.cfi_def_cfa_offset 8
	.cfi_offset 5, -8
	movl	%esp, %ebp
LCFI76:
	.cfi_def_cfa_register 5
	subl	$56, %esp
	movl	%ecx, -28(%ebp)
LBB18:
	.loc 5 425 0
	movl	$8192, -12(%ebp)
	.loc 5 427 0
	cmpl	$8192, 8(%ebp)
	jbe	L76
	.loc 5 427 0 is_stmt 0 discriminator 1
	movl	8(%ebp), %eax
	jmp	L77
L76:
	.loc 5 427 0 discriminator 2
	movl	$32768, %eax
L77:
	.loc 5 427 0 discriminator 3
	movl	-28(%ebp), %edx
	movl	%eax, (%esp)
	movl	%edx, %ecx
	call	__ZN4pugi4impl12_GLOBAL__N_113xml_allocator13allocate_pageEj
	subl	$4, %esp
	movl	%eax, -16(%ebp)
	.loc 5 428 0 is_stmt 1 discriminator 3
	movl	12(%ebp), %eax
	movl	-16(%ebp), %edx
	movl	%edx, (%eax)
	.loc 5 430 0 discriminator 3
	cmpl	$0, -16(%ebp)
	jne	L78
	.loc 5 430 0 is_stmt 0 discriminator 1
	movl	$0, %eax
	jmp	L79
L78:
	.loc 5 432 0 is_stmt 1
	cmpl	$8192, 8(%ebp)
	ja	L80
	.loc 5 434 0
	movl	-28(%ebp), %eax
	movl	(%eax), %eax
	movl	-28(%ebp), %edx
	movl	4(%edx), %edx
	movl	%edx, 16(%eax)
	.loc 5 437 0
	movl	-28(%ebp), %eax
	movl	(%eax), %edx
	movl	-16(%ebp), %eax
	movl	%edx, 8(%eax)
	.loc 5 438 0
	movl	-28(%ebp), %eax
	movl	(%eax), %eax
	movl	-16(%ebp), %edx
	movl	%edx, 12(%eax)
	.loc 5 439 0
	movl	-28(%ebp), %eax
	movl	-16(%ebp), %edx
	movl	%edx, (%eax)
	.loc 5 441 0
	movl	-28(%ebp), %eax
	movl	8(%ebp), %edx
	movl	%edx, 4(%eax)
	jmp	L81
L80:
	.loc 5 447 0
	movl	-28(%ebp), %eax
	movl	(%eax), %eax
	movl	8(%eax), %eax
	testl	%eax, %eax
	jne	L82
	.loc 5 447 0 is_stmt 0 discriminator 1
	movl	$447, 8(%esp)
	movl	$LC0, 4(%esp)
	movl	$LC10, (%esp)
	call	__assert
L82:
	.loc 5 449 0 is_stmt 1
	movl	-28(%ebp), %eax
	movl	(%eax), %eax
	movl	8(%eax), %edx
	movl	-16(%ebp), %eax
	movl	%edx, 8(%eax)
	.loc 5 450 0
	movl	-28(%ebp), %eax
	movl	(%eax), %edx
	movl	-16(%ebp), %eax
	movl	%edx, 12(%eax)
	.loc 5 452 0
	movl	-28(%ebp), %eax
	movl	(%eax), %eax
	movl	8(%eax), %eax
	movl	-16(%ebp), %edx
	movl	%edx, 12(%eax)
	.loc 5 453 0
	movl	-28(%ebp), %eax
	movl	(%eax), %eax
	movl	-16(%ebp), %edx
	movl	%edx, 8(%eax)
L81:
	.loc 5 457 0
	movl	-16(%ebp), %eax
	movl	8(%ebp), %edx
	movl	%edx, 16(%eax)
	.loc 5 459 0
	movl	-16(%ebp), %eax
	addl	$24, %eax
L79:
LBE18:
	.loc 5 460 0
	leave
LCFI77:
	.cfi_restore 5
	.cfi_def_cfa 4, 4
	ret	$8
	.cfi_endproc
LFE1168:
	.align 2
	.def	__ZN4pugi20xml_attribute_structC2EPNS_4impl12_GLOBAL__N_115xml_memory_pageE;	.scl	3;	.type	32;	.endef
__ZN4pugi20xml_attribute_structC2EPNS_4impl12_GLOBAL__N_115xml_memory_pageE:
LFB1170:
	.loc 5 469 0
	.cfi_startproc
	pushl	%ebp
LCFI78:
	.cfi_def_cfa_offset 8
	.cfi_offset 5, -8
	movl	%esp, %ebp
LCFI79:
	.cfi_def_cfa_register 5
	subl	$4, %esp
	movl	%ecx, -4(%ebp)
LBB19:
	.loc 5 469 0
	movl	8(%ebp), %edx
	movl	-4(%ebp), %eax
	movl	%edx, (%eax)
	movl	-4(%ebp), %eax
	movl	$0, 4(%eax)
	movl	-4(%ebp), %eax
	movl	$0, 8(%eax)
	movl	-4(%ebp), %eax
	movl	$0, 12(%eax)
	movl	-4(%ebp), %eax
	movl	$0, 16(%eax)
LBE19:
	.loc 5 471 0
	leave
LCFI80:
	.cfi_restore 5
	.cfi_def_cfa 4, 4
	ret	$4
	.cfi_endproc
LFE1170:
	.def	__ZN4pugi20xml_attribute_structC1EPNS_4impl12_GLOBAL__N_115xml_memory_pageE;	.scl	3;	.type	32;	.endef
	.set	__ZN4pugi20xml_attribute_structC1EPNS_4impl12_GLOBAL__N_115xml_memory_pageE,__ZN4pugi20xml_attribute_structC2EPNS_4impl12_GLOBAL__N_115xml_memory_pageE
	.align 2
	.def	__ZN4pugi15xml_node_structC2EPNS_4impl12_GLOBAL__N_115xml_memory_pageENS_13xml_node_typeE;	.scl	3;	.type	32;	.endef
__ZN4pugi15xml_node_structC2EPNS_4impl12_GLOBAL__N_115xml_memory_pageENS_13xml_node_typeE:
LFB1173:
	.loc 5 487 0
	.cfi_startproc
	pushl	%ebp
LCFI81:
	.cfi_def_cfa_offset 8
	.cfi_offset 5, -8
	movl	%esp, %ebp
LCFI82:
	.cfi_def_cfa_register 5
	subl	$4, %esp
	movl	%ecx, -4(%ebp)
LBB20:
	.loc 5 487 0
	movl	12(%ebp), %eax
	decl	%eax
	movl	%eax, %edx
	movl	8(%ebp), %eax
	orl	%eax, %edx
	movl	-4(%ebp), %eax
	movl	%edx, (%eax)
	movl	-4(%ebp), %eax
	movl	$0, 4(%eax)
	movl	-4(%ebp), %eax
	movl	$0, 8(%eax)
	movl	-4(%ebp), %eax
	movl	$0, 12(%eax)
	movl	-4(%ebp), %eax
	movl	$0, 16(%eax)
	movl	-4(%ebp), %eax
	movl	$0, 20(%eax)
	movl	-4(%ebp), %eax
	movl	$0, 24(%eax)
	movl	-4(%ebp), %eax
	movl	$0, 28(%eax)
LBE20:
	.loc 5 489 0
	leave
LCFI83:
	.cfi_restore 5
	.cfi_def_cfa 4, 4
	ret	$8
	.cfi_endproc
LFE1173:
	.def	__ZN4pugi15xml_node_structC1EPNS_4impl12_GLOBAL__N_115xml_memory_pageENS_13xml_node_typeE;	.scl	3;	.type	32;	.endef
	.set	__ZN4pugi15xml_node_structC1EPNS_4impl12_GLOBAL__N_115xml_memory_pageENS_13xml_node_typeE,__ZN4pugi15xml_node_structC2EPNS_4impl12_GLOBAL__N_115xml_memory_pageENS_13xml_node_typeE
	.align 2
	.def	__ZN4pugi4impl12_GLOBAL__N_119xml_document_structC2EPNS1_15xml_memory_pageE;	.scl	3;	.type	32;	.endef
__ZN4pugi4impl12_GLOBAL__N_119xml_document_structC2EPNS1_15xml_memory_pageE:
LFB1176:
	.loc 5 510 0
	.cfi_startproc
	pushl	%ebp
LCFI84:
	.cfi_def_cfa_offset 8
	.cfi_offset 5, -8
	movl	%esp, %ebp
LCFI85:
	.cfi_def_cfa_register 5
	subl	$12, %esp
	movl	%ecx, -4(%ebp)
LBB21:
	.loc 5 510 0
	movl	-4(%ebp), %eax
	movl	$1, 4(%esp)
	movl	8(%ebp), %edx
	movl	%edx, (%esp)
	movl	%eax, %ecx
	call	__ZN4pugi15xml_node_structC2EPNS_4impl12_GLOBAL__N_115xml_memory_pageENS_13xml_node_typeE
	subl	$8, %esp
	movl	-4(%ebp), %eax
	leal	32(%eax), %edx
	movl	8(%ebp), %eax
	movl	%eax, (%esp)
	movl	%edx, %ecx
	call	__ZN4pugi4impl12_GLOBAL__N_113xml_allocatorC2EPNS1_15xml_memory_pageE
	subl	$4, %esp
	movl	-4(%ebp), %eax
	movl	$0, 40(%eax)
LBE21:
	.loc 5 512 0
	leave
LCFI86:
	.cfi_restore 5
	.cfi_def_cfa 4, 4
	ret	$4
	.cfi_endproc
LFE1176:
	.def	__ZN4pugi4impl12_GLOBAL__N_119xml_document_structC1EPNS1_15xml_memory_pageE;	.scl	3;	.type	32;	.endef
	.set	__ZN4pugi4impl12_GLOBAL__N_119xml_document_structC1EPNS1_15xml_memory_pageE,__ZN4pugi4impl12_GLOBAL__N_119xml_document_structC2EPNS1_15xml_memory_pageE
	.section .rdata,"dr"
LC11:
	.ascii "node\0"
	.text
	.def	__ZN4pugi4impl12_GLOBAL__N_113get_allocatorEPKNS_15xml_node_structE;	.scl	3;	.type	32;	.endef
__ZN4pugi4impl12_GLOBAL__N_113get_allocatorEPKNS_15xml_node_structE:
LFB1178:
	.loc 5 518 0
	.cfi_startproc
	pushl	%ebp
LCFI87:
	.cfi_def_cfa_offset 8
	.cfi_offset 5, -8
	movl	%esp, %ebp
LCFI88:
	.cfi_def_cfa_register 5
	subl	$24, %esp
	.loc 5 519 0
	cmpl	$0, 8(%ebp)
	jne	L87
	.loc 5 519 0 is_stmt 0 discriminator 1
	movl	$519, 8(%esp)
	movl	$LC0, 4(%esp)
	movl	$LC11, (%esp)
	call	__assert
L87:
	.loc 5 521 0 is_stmt 1
	movl	8(%ebp), %eax
	movl	(%eax), %eax
	andl	$-32, %eax
	movl	(%eax), %eax
	.loc 5 522 0
	leave
LCFI89:
	.cfi_restore 5
	.cfi_def_cfa 4, 4
	ret
	.cfi_endproc
LFE1178:
	.def	__ZN4pugi4impl12_GLOBAL__N_118allocate_attributeERNS1_13xml_allocatorE;	.scl	3;	.type	32;	.endef
__ZN4pugi4impl12_GLOBAL__N_118allocate_attributeERNS1_13xml_allocatorE:
LFB1179:
	.loc 5 528 0
	.cfi_startproc
	.cfi_personality 0,___gxx_personality_v0
	.cfi_lsda 0,LLSDA1179
	pushl	%ebp
LCFI90:
	.cfi_def_cfa_offset 8
	.cfi_offset 5, -8
	movl	%esp, %ebp
LCFI91:
	.cfi_def_cfa_register 5
	pushl	%ebx
	subl	$36, %esp
	.cfi_offset 3, -12
LBB22:
	.loc 5 530 0
	leal	-16(%ebp), %eax
	movl	%eax, 4(%esp)
	movl	$20, (%esp)
	movl	8(%ebp), %ecx
LEHB2:
	call	__ZN4pugi4impl12_GLOBAL__N_113xml_allocator15allocate_memoryEjRPNS1_15xml_memory_pageE
LEHE2:
	subl	$8, %esp
	movl	%eax, -12(%ebp)
	.loc 5 532 0
	movl	-12(%ebp), %eax
	movl	%eax, 4(%esp)
	movl	$20, (%esp)
	call	__ZnwjPv
	movl	%eax, %ebx
	testl	%ebx, %ebx
	je	L90
	.loc 5 532 0 is_stmt 0 discriminator 1
	movl	-16(%ebp), %eax
	movl	%eax, (%esp)
	movl	%ebx, %ecx
	call	__ZN4pugi20xml_attribute_structC1EPNS_4impl12_GLOBAL__N_115xml_memory_pageE
	subl	$4, %esp
	movl	%ebx, %eax
	jmp	L91
L90:
	.loc 5 532 0 discriminator 2
	movl	%ebx, %eax
L91:
	jmp	L95
L94:
	movl	%eax, (%esp)
LEHB3:
	call	__Unwind_Resume
LEHE3:
L95:
LBE22:
	.loc 5 533 0 is_stmt 1
	movl	-4(%ebp), %ebx
	leave
LCFI92:
	.cfi_restore 5
	.cfi_restore 3
	.cfi_def_cfa 4, 4
	ret
	.cfi_endproc
LFE1179:
	.section	.gcc_except_table,"w"
LLSDA1179:
	.byte	0xff
	.byte	0xff
	.byte	0x1
	.uleb128 LLSDACSE1179-LLSDACSB1179
LLSDACSB1179:
	.uleb128 LEHB2-LFB1179
	.uleb128 LEHE2-LEHB2
	.uleb128 L94-LFB1179
	.uleb128 0
	.uleb128 LEHB3-LFB1179
	.uleb128 LEHE3-LEHB3
	.uleb128 0
	.uleb128 0
LLSDACSE1179:
	.text
	.def	__ZN4pugi4impl12_GLOBAL__N_113allocate_nodeERNS1_13xml_allocatorENS_13xml_node_typeE;	.scl	3;	.type	32;	.endef
__ZN4pugi4impl12_GLOBAL__N_113allocate_nodeERNS1_13xml_allocatorENS_13xml_node_typeE:
LFB1180:
	.loc 5 536 0
	.cfi_startproc
	.cfi_personality 0,___gxx_personality_v0
	.cfi_lsda 0,LLSDA1180
	pushl	%ebp
LCFI93:
	.cfi_def_cfa_offset 8
	.cfi_offset 5, -8
	movl	%esp, %ebp
LCFI94:
	.cfi_def_cfa_register 5
	pushl	%ebx
	subl	$36, %esp
	.cfi_offset 3, -12
LBB23:
	.loc 5 538 0
	leal	-16(%ebp), %eax
	movl	%eax, 4(%esp)
	movl	$32, (%esp)
	movl	8(%ebp), %ecx
LEHB4:
	call	__ZN4pugi4impl12_GLOBAL__N_113xml_allocator15allocate_memoryEjRPNS1_15xml_memory_pageE
LEHE4:
	subl	$8, %esp
	movl	%eax, -12(%ebp)
	.loc 5 540 0
	movl	-12(%ebp), %eax
	movl	%eax, 4(%esp)
	movl	$32, (%esp)
	call	__ZnwjPv
	movl	%eax, %ebx
	testl	%ebx, %ebx
	je	L97
	.loc 5 540 0 is_stmt 0 discriminator 1
	movl	-16(%ebp), %eax
	movl	12(%ebp), %edx
	movl	%edx, 4(%esp)
	movl	%eax, (%esp)
	movl	%ebx, %ecx
	call	__ZN4pugi15xml_node_structC1EPNS_4impl12_GLOBAL__N_115xml_memory_pageENS_13xml_node_typeE
	subl	$8, %esp
	movl	%ebx, %eax
	jmp	L98
L97:
	.loc 5 540 0 discriminator 2
	movl	%ebx, %eax
L98:
	jmp	L102
L101:
	movl	%eax, (%esp)
LEHB5:
	call	__Unwind_Resume
LEHE5:
L102:
LBE23:
	.loc 5 541 0 is_stmt 1
	movl	-4(%ebp), %ebx
	leave
LCFI95:
	.cfi_restore 5
	.cfi_restore 3
	.cfi_def_cfa 4, 4
	ret
	.cfi_endproc
LFE1180:
	.section	.gcc_except_table,"w"
LLSDA1180:
	.byte	0xff
	.byte	0xff
	.byte	0x1
	.uleb128 LLSDACSE1180-LLSDACSB1180
LLSDACSB1180:
	.uleb128 LEHB4-LFB1180
	.uleb128 LEHE4-LEHB4
	.uleb128 L101-LFB1180
	.uleb128 0
	.uleb128 LEHB5-LFB1180
	.uleb128 LEHE5-LEHB5
	.uleb128 0
	.uleb128 0
LLSDACSE1180:
	.text
	.def	__ZN4pugi4impl12_GLOBAL__N_117destroy_attributeEPNS_20xml_attribute_structERNS1_13xml_allocatorE;	.scl	3;	.type	32;	.endef
__ZN4pugi4impl12_GLOBAL__N_117destroy_attributeEPNS_20xml_attribute_structERNS1_13xml_allocatorE:
LFB1181:
	.loc 5 544 0
	.cfi_startproc
	pushl	%ebp
LCFI96:
	.cfi_def_cfa_offset 8
	.cfi_offset 5, -8
	movl	%esp, %ebp
LCFI97:
	.cfi_def_cfa_register 5
	subl	$40, %esp
LBB24:
	.loc 5 545 0
	movl	8(%ebp), %eax
	movl	(%eax), %eax
	movl	%eax, -12(%ebp)
	.loc 5 547 0
	movl	-12(%ebp), %eax
	andl	$16, %eax
	testl	%eax, %eax
	je	L104
	.loc 5 547 0 is_stmt 0 discriminator 1
	movl	8(%ebp), %eax
	movl	4(%eax), %edx
	movl	12(%ebp), %eax
	movl	%edx, (%esp)
	movl	%eax, %ecx
	call	__ZN4pugi4impl12_GLOBAL__N_113xml_allocator17deallocate_stringEPc
	subl	$4, %esp
L104:
	.loc 5 548 0 is_stmt 1
	movl	-12(%ebp), %eax
	andl	$8, %eax
	testl	%eax, %eax
	je	L105
	.loc 5 548 0 is_stmt 0 discriminator 1
	movl	8(%ebp), %eax
	movl	8(%eax), %edx
	movl	12(%ebp), %eax
	movl	%edx, (%esp)
	movl	%eax, %ecx
	call	__ZN4pugi4impl12_GLOBAL__N_113xml_allocator17deallocate_stringEPc
	subl	$4, %esp
L105:
	.loc 5 550 0 is_stmt 1
	movl	-12(%ebp), %eax
	andl	$-32, %eax
	movl	%eax, %edx
	movl	12(%ebp), %eax
	movl	%edx, 8(%esp)
	movl	$20, 4(%esp)
	movl	8(%ebp), %edx
	movl	%edx, (%esp)
	movl	%eax, %ecx
	call	__ZN4pugi4impl12_GLOBAL__N_113xml_allocator17deallocate_memoryEPvjPNS1_15xml_memory_pageE
	subl	$12, %esp
LBE24:
	.loc 5 551 0
	leave
LCFI98:
	.cfi_restore 5
	.cfi_def_cfa 4, 4
	ret
	.cfi_endproc
LFE1181:
	.def	__ZN4pugi4impl12_GLOBAL__N_112destroy_nodeEPNS_15xml_node_structERNS1_13xml_allocatorE;	.scl	3;	.type	32;	.endef
__ZN4pugi4impl12_GLOBAL__N_112destroy_nodeEPNS_15xml_node_structERNS1_13xml_allocatorE:
LFB1182:
	.loc 5 554 0
	.cfi_startproc
	pushl	%ebp
LCFI99:
	.cfi_def_cfa_offset 8
	.cfi_offset 5, -8
	movl	%esp, %ebp
LCFI100:
	.cfi_def_cfa_register 5
	subl	$56, %esp
LBB25:
	.loc 5 555 0
	movl	8(%ebp), %eax
	movl	(%eax), %eax
	movl	%eax, -20(%ebp)
	.loc 5 557 0
	movl	-20(%ebp), %eax
	andl	$16, %eax
	testl	%eax, %eax
	je	L107
	.loc 5 557 0 is_stmt 0 discriminator 1
	movl	8(%ebp), %eax
	movl	8(%eax), %edx
	movl	12(%ebp), %eax
	movl	%edx, (%esp)
	movl	%eax, %ecx
	call	__ZN4pugi4impl12_GLOBAL__N_113xml_allocator17deallocate_stringEPc
	subl	$4, %esp
L107:
	.loc 5 558 0 is_stmt 1
	movl	-20(%ebp), %eax
	andl	$8, %eax
	testl	%eax, %eax
	je	L108
	.loc 5 558 0 is_stmt 0 discriminator 1
	movl	8(%ebp), %eax
	movl	12(%eax), %edx
	movl	12(%ebp), %eax
	movl	%edx, (%esp)
	movl	%eax, %ecx
	call	__ZN4pugi4impl12_GLOBAL__N_113xml_allocator17deallocate_stringEPc
	subl	$4, %esp
L108:
LBB26:
	.loc 5 560 0 is_stmt 1
	movl	8(%ebp), %eax
	movl	28(%eax), %eax
	movl	%eax, -12(%ebp)
	jmp	L109
L110:
LBB27:
	.loc 5 562 0
	movl	-12(%ebp), %eax
	movl	16(%eax), %eax
	movl	%eax, -24(%ebp)
	.loc 5 564 0
	movl	12(%ebp), %eax
	movl	%eax, 4(%esp)
	movl	-12(%ebp), %eax
	movl	%eax, (%esp)
	call	__ZN4pugi4impl12_GLOBAL__N_117destroy_attributeEPNS_20xml_attribute_structERNS1_13xml_allocatorE
	.loc 5 566 0
	movl	-24(%ebp), %eax
	movl	%eax, -12(%ebp)
L109:
LBE27:
	.loc 5 560 0 discriminator 1
	cmpl	$0, -12(%ebp)
	setne	%al
	testb	%al, %al
	jne	L110
LBE26:
LBB28:
	.loc 5 569 0
	movl	8(%ebp), %eax
	movl	16(%eax), %eax
	movl	%eax, -16(%ebp)
	jmp	L111
L112:
LBB29:
	.loc 5 571 0
	movl	-16(%ebp), %eax
	movl	24(%eax), %eax
	movl	%eax, -28(%ebp)
	.loc 5 573 0
	movl	12(%ebp), %eax
	movl	%eax, 4(%esp)
	movl	-16(%ebp), %eax
	movl	%eax, (%esp)
	call	__ZN4pugi4impl12_GLOBAL__N_112destroy_nodeEPNS_15xml_node_structERNS1_13xml_allocatorE
	.loc 5 575 0
	movl	-28(%ebp), %eax
	movl	%eax, -16(%ebp)
L111:
LBE29:
	.loc 5 569 0 discriminator 1
	cmpl	$0, -16(%ebp)
	setne	%al
	testb	%al, %al
	jne	L112
LBE28:
	.loc 5 578 0
	movl	-20(%ebp), %eax
	andl	$-32, %eax
	movl	%eax, %edx
	movl	12(%ebp), %eax
	movl	%edx, 8(%esp)
	movl	$32, 4(%esp)
	movl	8(%ebp), %edx
	movl	%edx, (%esp)
	movl	%eax, %ecx
	call	__ZN4pugi4impl12_GLOBAL__N_113xml_allocator17deallocate_memoryEPvjPNS1_15xml_memory_pageE
	subl	$12, %esp
LBE25:
	.loc 5 579 0
	leave
LCFI101:
	.cfi_restore 5
	.cfi_def_cfa 4, 4
	ret
	.cfi_endproc
LFE1182:
	.def	__ZN4pugi4impl12_GLOBAL__N_111append_nodeEPNS_15xml_node_structERNS1_13xml_allocatorENS_13xml_node_typeE;	.scl	3;	.type	32;	.endef
__ZN4pugi4impl12_GLOBAL__N_111append_nodeEPNS_15xml_node_structERNS1_13xml_allocatorENS_13xml_node_typeE:
LFB1183:
	.loc 5 582 0
	.cfi_startproc
	pushl	%ebp
LCFI102:
	.cfi_def_cfa_offset 8
	.cfi_offset 5, -8
	movl	%esp, %ebp
LCFI103:
	.cfi_def_cfa_register 5
	subl	$40, %esp
LBB30:
	.loc 5 583 0
	movl	16(%ebp), %eax
	movl	%eax, 4(%esp)
	movl	12(%ebp), %eax
	movl	%eax, (%esp)
	call	__ZN4pugi4impl12_GLOBAL__N_113allocate_nodeERNS1_13xml_allocatorENS_13xml_node_typeE
	movl	%eax, -12(%ebp)
	.loc 5 584 0
	cmpl	$0, -12(%ebp)
	jne	L114
	.loc 5 584 0 is_stmt 0 discriminator 1
	movl	$0, %eax
	jmp	L115
L114:
	.loc 5 586 0 is_stmt 1
	movl	-12(%ebp), %eax
	movl	8(%ebp), %edx
	movl	%edx, 4(%eax)
	.loc 5 588 0
	movl	8(%ebp), %eax
	movl	16(%eax), %eax
	movl	%eax, -16(%ebp)
LBB31:
	.loc 5 590 0
	cmpl	$0, -16(%ebp)
	je	L116
LBB32:
	.loc 5 592 0
	movl	-16(%ebp), %eax
	movl	20(%eax), %eax
	movl	%eax, -20(%ebp)
	.loc 5 594 0
	movl	-20(%ebp), %eax
	movl	-12(%ebp), %edx
	movl	%edx, 24(%eax)
	.loc 5 595 0
	movl	-12(%ebp), %eax
	movl	-20(%ebp), %edx
	movl	%edx, 20(%eax)
	.loc 5 596 0
	movl	-16(%ebp), %eax
	movl	-12(%ebp), %edx
	movl	%edx, 20(%eax)
	jmp	L117
L116:
LBE32:
	.loc 5 600 0
	movl	8(%ebp), %eax
	movl	-12(%ebp), %edx
	movl	%edx, 16(%eax)
	.loc 5 601 0
	movl	-12(%ebp), %eax
	movl	-12(%ebp), %edx
	movl	%edx, 20(%eax)
L117:
LBE31:
	.loc 5 604 0
	movl	-12(%ebp), %eax
L115:
LBE30:
	.loc 5 605 0
	leave
LCFI104:
	.cfi_restore 5
	.cfi_def_cfa 4, 4
	ret
	.cfi_endproc
LFE1183:
	.def	__ZN4pugi4impl12_GLOBAL__N_119append_attribute_llEPNS_15xml_node_structERNS1_13xml_allocatorE;	.scl	3;	.type	32;	.endef
__ZN4pugi4impl12_GLOBAL__N_119append_attribute_llEPNS_15xml_node_structERNS1_13xml_allocatorE:
LFB1184:
	.loc 5 608 0
	.cfi_startproc
	pushl	%ebp
LCFI105:
	.cfi_def_cfa_offset 8
	.cfi_offset 5, -8
	movl	%esp, %ebp
LCFI106:
	.cfi_def_cfa_register 5
	subl	$40, %esp
LBB33:
	.loc 5 609 0
	movl	12(%ebp), %eax
	movl	%eax, (%esp)
	call	__ZN4pugi4impl12_GLOBAL__N_118allocate_attributeERNS1_13xml_allocatorE
	movl	%eax, -12(%ebp)
	.loc 5 610 0
	cmpl	$0, -12(%ebp)
	jne	L119
	.loc 5 610 0 is_stmt 0 discriminator 1
	movl	$0, %eax
	jmp	L120
L119:
	.loc 5 612 0 is_stmt 1
	movl	8(%ebp), %eax
	movl	28(%eax), %eax
	movl	%eax, -16(%ebp)
LBB34:
	.loc 5 614 0
	cmpl	$0, -16(%ebp)
	je	L121
LBB35:
	.loc 5 616 0
	movl	-16(%ebp), %eax
	movl	12(%eax), %eax
	movl	%eax, -20(%ebp)
	.loc 5 618 0
	movl	-20(%ebp), %eax
	movl	-12(%ebp), %edx
	movl	%edx, 16(%eax)
	.loc 5 619 0
	movl	-12(%ebp), %eax
	movl	-20(%ebp), %edx
	movl	%edx, 12(%eax)
	.loc 5 620 0
	movl	-16(%ebp), %eax
	movl	-12(%ebp), %edx
	movl	%edx, 12(%eax)
	jmp	L122
L121:
LBE35:
	.loc 5 624 0
	movl	8(%ebp), %eax
	movl	-12(%ebp), %edx
	movl	%edx, 28(%eax)
	.loc 5 625 0
	movl	-12(%ebp), %eax
	movl	-12(%ebp), %edx
	movl	%edx, 12(%eax)
L122:
LBE34:
	.loc 5 628 0
	movl	-12(%ebp), %eax
L120:
LBE33:
	.loc 5 629 0
	leave
LCFI107:
	.cfi_restore 5
	.cfi_def_cfa 4, 4
	ret
	.cfi_endproc
LFE1184:
	.def	__ZN4pugi4impl12_GLOBAL__N_111endian_swapEt;	.scl	3;	.type	32;	.endef
__ZN4pugi4impl12_GLOBAL__N_111endian_swapEt:
LFB1185:
	.loc 5 648 0
	.cfi_startproc
	pushl	%ebp
LCFI108:
	.cfi_def_cfa_offset 8
	.cfi_offset 5, -8
	movl	%esp, %ebp
LCFI109:
	.cfi_def_cfa_register 5
	subl	$4, %esp
	movl	8(%ebp), %eax
	movw	%ax, -4(%ebp)
	.loc 5 649 0
	movzwl	-4(%ebp), %eax
	sall	$8, %eax
	movl	%eax, %edx
	movzwl	-4(%ebp), %eax
	sarl	$8, %eax
	orl	%edx, %eax
	.loc 5 650 0
	leave
LCFI110:
	.cfi_restore 5
	.cfi_def_cfa 4, 4
	ret
	.cfi_endproc
LFE1185:
	.def	__ZN4pugi4impl12_GLOBAL__N_111endian_swapEj;	.scl	3;	.type	32;	.endef
__ZN4pugi4impl12_GLOBAL__N_111endian_swapEj:
LFB1186:
	.loc 5 653 0
	.cfi_startproc
	pushl	%ebp
LCFI111:
	.cfi_def_cfa_offset 8
	.cfi_offset 5, -8
	movl	%esp, %ebp
LCFI112:
	.cfi_def_cfa_register 5
	.loc 5 654 0
	movl	8(%ebp), %eax
	movl	%eax, %edx
	sall	$24, %edx
	movl	8(%ebp), %eax
	andl	$65280, %eax
	sall	$8, %eax
	orl	%eax, %edx
	movl	8(%ebp), %eax
	andl	$16711680, %eax
	shrl	$8, %eax
	orl	%eax, %edx
	movl	8(%ebp), %eax
	shrl	$24, %eax
	orl	%edx, %eax
	.loc 5 655 0
	popl	%ebp
LCFI113:
	.cfi_restore 5
	.cfi_def_cfa 4, 4
	ret
	.cfi_endproc
LFE1186:
	.def	__ZN4pugi4impl12_GLOBAL__N_112utf8_counter3lowEjj;	.scl	3;	.type	32;	.endef
__ZN4pugi4impl12_GLOBAL__N_112utf8_counter3lowEjj:
LFB1187:
	.loc 5 661 0
	.cfi_startproc
	pushl	%ebp
LCFI114:
	.cfi_def_cfa_offset 8
	.cfi_offset 5, -8
	movl	%esp, %ebp
LCFI115:
	.cfi_def_cfa_register 5
	.loc 5 664 0
	cmpl	$127, 12(%ebp)
	ja	L128
	.loc 5 664 0 is_stmt 0 discriminator 1
	movl	8(%ebp), %eax
	incl	%eax
	jmp	L129
L128:
	.loc 5 666 0 is_stmt 1
	cmpl	$2047, 12(%ebp)
	ja	L130
	.loc 5 666 0 is_stmt 0 discriminator 1
	movl	8(%ebp), %eax
	addl	$2, %eax
	jmp	L129
L130:
	.loc 5 668 0 is_stmt 1
	movl	8(%ebp), %eax
	addl	$3, %eax
L129:
	.loc 5 669 0
	popl	%ebp
LCFI116:
	.cfi_restore 5
	.cfi_def_cfa 4, 4
	ret
	.cfi_endproc
LFE1187:
	.def	__ZN4pugi4impl12_GLOBAL__N_112utf8_counter4highEjj;	.scl	3;	.type	32;	.endef
__ZN4pugi4impl12_GLOBAL__N_112utf8_counter4highEjj:
LFB1188:
	.loc 5 671 0
	.cfi_startproc
	pushl	%ebp
LCFI117:
	.cfi_def_cfa_offset 8
	.cfi_offset 5, -8
	movl	%esp, %ebp
LCFI118:
	.cfi_def_cfa_register 5
	.loc 5 674 0
	movl	8(%ebp), %eax
	addl	$4, %eax
	.loc 5 675 0
	popl	%ebp
LCFI119:
	.cfi_restore 5
	.cfi_def_cfa 4, 4
	ret
	.cfi_endproc
LFE1188:
	.def	__ZN4pugi4impl12_GLOBAL__N_111utf8_writer3lowEPhj;	.scl	3;	.type	32;	.endef
__ZN4pugi4impl12_GLOBAL__N_111utf8_writer3lowEPhj:
LFB1189:
	.loc 5 682 0
	.cfi_startproc
	pushl	%ebp
LCFI120:
	.cfi_def_cfa_offset 8
	.cfi_offset 5, -8
	movl	%esp, %ebp
LCFI121:
	.cfi_def_cfa_register 5
	.loc 5 685 0
	cmpl	$127, 12(%ebp)
	ja	L134
	.loc 5 687 0
	movl	12(%ebp), %eax
	movb	%al, %dl
	movl	8(%ebp), %eax
	movb	%dl, (%eax)
	.loc 5 688 0
	movl	8(%ebp), %eax
	incl	%eax
	jmp	L135
L134:
	.loc 5 691 0
	cmpl	$2047, 12(%ebp)
	ja	L136
	.loc 5 693 0
	movl	12(%ebp), %eax
	shrl	$6, %eax
	movb	%al, %dl
	orl	$-64, %edx
	movl	8(%ebp), %eax
	movb	%dl, (%eax)
	.loc 5 694 0
	movl	8(%ebp), %eax
	leal	1(%eax), %edx
	movl	12(%ebp), %eax
	andl	$63, %eax
	orl	$-128, %eax
	movb	%al, (%edx)
	.loc 5 695 0
	movl	8(%ebp), %eax
	addl	$2, %eax
	jmp	L135
L136:
	.loc 5 700 0
	movl	12(%ebp), %eax
	shrl	$12, %eax
	movb	%al, %dl
	orl	$-32, %edx
	movl	8(%ebp), %eax
	movb	%dl, (%eax)
	.loc 5 701 0
	movl	8(%ebp), %eax
	leal	1(%eax), %edx
	movl	12(%ebp), %eax
	shrl	$6, %eax
	andl	$63, %eax
	orl	$-128, %eax
	movb	%al, (%edx)
	.loc 5 702 0
	movl	8(%ebp), %eax
	leal	2(%eax), %edx
	movl	12(%ebp), %eax
	andl	$63, %eax
	orl	$-128, %eax
	movb	%al, (%edx)
	.loc 5 703 0
	movl	8(%ebp), %eax
	addl	$3, %eax
L135:
	.loc 5 705 0
	popl	%ebp
LCFI122:
	.cfi_restore 5
	.cfi_def_cfa 4, 4
	ret
	.cfi_endproc
LFE1189:
	.def	__ZN4pugi4impl12_GLOBAL__N_111utf8_writer4highEPhj;	.scl	3;	.type	32;	.endef
__ZN4pugi4impl12_GLOBAL__N_111utf8_writer4highEPhj:
LFB1190:
	.loc 5 707 0
	.cfi_startproc
	pushl	%ebp
LCFI123:
	.cfi_def_cfa_offset 8
	.cfi_offset 5, -8
	movl	%esp, %ebp
LCFI124:
	.cfi_def_cfa_register 5
	.loc 5 710 0
	movl	12(%ebp), %eax
	shrl	$18, %eax
	movb	%al, %dl
	orl	$-16, %edx
	movl	8(%ebp), %eax
	movb	%dl, (%eax)
	.loc 5 711 0
	movl	8(%ebp), %eax
	leal	1(%eax), %edx
	movl	12(%ebp), %eax
	shrl	$12, %eax
	andl	$63, %eax
	orl	$-128, %eax
	movb	%al, (%edx)
	.loc 5 712 0
	movl	8(%ebp), %eax
	leal	2(%eax), %edx
	movl	12(%ebp), %eax
	shrl	$6, %eax
	andl	$63, %eax
	orl	$-128, %eax
	movb	%al, (%edx)
	.loc 5 713 0
	movl	8(%ebp), %eax
	leal	3(%eax), %edx
	movl	12(%ebp), %eax
	andl	$63, %eax
	orl	$-128, %eax
	movb	%al, (%edx)
	.loc 5 714 0
	movl	8(%ebp), %eax
	addl	$4, %eax
	.loc 5 715 0
	popl	%ebp
LCFI125:
	.cfi_restore 5
	.cfi_def_cfa 4, 4
	ret
	.cfi_endproc
LFE1190:
	.def	__ZN4pugi4impl12_GLOBAL__N_111utf8_writer3anyEPhj;	.scl	3;	.type	32;	.endef
__ZN4pugi4impl12_GLOBAL__N_111utf8_writer3anyEPhj:
LFB1191:
	.loc 5 717 0
	.cfi_startproc
	pushl	%ebp
LCFI126:
	.cfi_def_cfa_offset 8
	.cfi_offset 5, -8
	movl	%esp, %ebp
LCFI127:
	.cfi_def_cfa_register 5
	subl	$8, %esp
	.loc 5 719 0
	cmpl	$65535, 12(%ebp)
	ja	L140
	.loc 5 719 0 is_stmt 0 discriminator 1
	movl	12(%ebp), %eax
	movl	%eax, 4(%esp)
	movl	8(%ebp), %eax
	movl	%eax, (%esp)
	call	__ZN4pugi4impl12_GLOBAL__N_111utf8_writer3lowEPhj
	jmp	L141
L140:
	.loc 5 719 0 discriminator 2
	movl	12(%ebp), %eax
	movl	%eax, 4(%esp)
	movl	8(%ebp), %eax
	movl	%eax, (%esp)
	call	__ZN4pugi4impl12_GLOBAL__N_111utf8_writer4highEPhj
L141:
	.loc 5 720 0 is_stmt 1 discriminator 3
	leave
LCFI128:
	.cfi_restore 5
	.cfi_def_cfa 4, 4
	ret
	.cfi_endproc
LFE1191:
	.def	__ZN4pugi4impl12_GLOBAL__N_113utf16_counter3lowEjj;	.scl	3;	.type	32;	.endef
__ZN4pugi4impl12_GLOBAL__N_113utf16_counter3lowEjj:
LFB1192:
	.loc 5 727 0
	.cfi_startproc
	pushl	%ebp
LCFI129:
	.cfi_def_cfa_offset 8
	.cfi_offset 5, -8
	movl	%esp, %ebp
LCFI130:
	.cfi_def_cfa_register 5
	.loc 5 729 0
	movl	8(%ebp), %eax
	incl	%eax
	.loc 5 730 0
	popl	%ebp
LCFI131:
	.cfi_restore 5
	.cfi_def_cfa 4, 4
	ret
	.cfi_endproc
LFE1192:
	.def	__ZN4pugi4impl12_GLOBAL__N_113utf16_counter4highEjj;	.scl	3;	.type	32;	.endef
__ZN4pugi4impl12_GLOBAL__N_113utf16_counter4highEjj:
LFB1193:
	.loc 5 732 0
	.cfi_startproc
	pushl	%ebp
LCFI132:
	.cfi_def_cfa_offset 8
	.cfi_offset 5, -8
	movl	%esp, %ebp
LCFI133:
	.cfi_def_cfa_register 5
	.loc 5 734 0
	movl	8(%ebp), %eax
	addl	$2, %eax
	.loc 5 735 0
	popl	%ebp
LCFI134:
	.cfi_restore 5
	.cfi_def_cfa 4, 4
	ret
	.cfi_endproc
LFE1193:
	.def	__ZN4pugi4impl12_GLOBAL__N_112utf16_writer3lowEPtj;	.scl	3;	.type	32;	.endef
__ZN4pugi4impl12_GLOBAL__N_112utf16_writer3lowEPtj:
LFB1194:
	.loc 5 742 0
	.cfi_startproc
	pushl	%ebp
LCFI135:
	.cfi_def_cfa_offset 8
	.cfi_offset 5, -8
	movl	%esp, %ebp
LCFI136:
	.cfi_def_cfa_register 5
	.loc 5 744 0
	movl	12(%ebp), %eax
	movl	8(%ebp), %edx
	movw	%ax, (%edx)
	.loc 5 746 0
	movl	8(%ebp), %eax
	addl	$2, %eax
	.loc 5 747 0
	popl	%ebp
LCFI137:
	.cfi_restore 5
	.cfi_def_cfa 4, 4
	ret
	.cfi_endproc
LFE1194:
	.def	__ZN4pugi4impl12_GLOBAL__N_112utf16_writer4highEPtj;	.scl	3;	.type	32;	.endef
__ZN4pugi4impl12_GLOBAL__N_112utf16_writer4highEPtj:
LFB1195:
	.loc 5 749 0
	.cfi_startproc
	pushl	%ebp
LCFI138:
	.cfi_def_cfa_offset 8
	.cfi_offset 5, -8
	movl	%esp, %ebp
LCFI139:
	.cfi_def_cfa_register 5
	subl	$16, %esp
LBB36:
	.loc 5 751 0
	movl	12(%ebp), %eax
	subl	$65536, %eax
	shrl	$10, %eax
	movl	%eax, -4(%ebp)
	.loc 5 752 0
	movl	12(%ebp), %eax
	andl	$1023, %eax
	movl	%eax, -8(%ebp)
	.loc 5 754 0
	movl	-4(%ebp), %eax
	subl	$10240, %eax
	movl	8(%ebp), %edx
	movw	%ax, (%edx)
	.loc 5 755 0
	movl	8(%ebp), %eax
	leal	2(%eax), %edx
	movl	-8(%ebp), %eax
	subl	$9216, %eax
	movw	%ax, (%edx)
	.loc 5 757 0
	movl	8(%ebp), %eax
	addl	$4, %eax
LBE36:
	.loc 5 758 0
	leave
LCFI140:
	.cfi_restore 5
	.cfi_def_cfa 4, 4
	ret
	.cfi_endproc
LFE1195:
	.def	__ZN4pugi4impl12_GLOBAL__N_112utf32_writer3lowEPjj;	.scl	3;	.type	32;	.endef
__ZN4pugi4impl12_GLOBAL__N_112utf32_writer3lowEPjj:
LFB1199:
	.loc 5 785 0
	.cfi_startproc
	pushl	%ebp
LCFI141:
	.cfi_def_cfa_offset 8
	.cfi_offset 5, -8
	movl	%esp, %ebp
LCFI142:
	.cfi_def_cfa_register 5
	.loc 5 787 0
	movl	8(%ebp), %eax
	movl	12(%ebp), %edx
	movl	%edx, (%eax)
	.loc 5 789 0
	movl	8(%ebp), %eax
	addl	$4, %eax
	.loc 5 790 0
	popl	%ebp
LCFI143:
	.cfi_restore 5
	.cfi_def_cfa 4, 4
	ret
	.cfi_endproc
LFE1199:
	.def	__ZN4pugi4impl12_GLOBAL__N_112utf32_writer4highEPjj;	.scl	3;	.type	32;	.endef
__ZN4pugi4impl12_GLOBAL__N_112utf32_writer4highEPjj:
LFB1200:
	.loc 5 792 0
	.cfi_startproc
	pushl	%ebp
LCFI144:
	.cfi_def_cfa_offset 8
	.cfi_offset 5, -8
	movl	%esp, %ebp
LCFI145:
	.cfi_def_cfa_register 5
	.loc 5 794 0
	movl	8(%ebp), %eax
	movl	12(%ebp), %edx
	movl	%edx, (%eax)
	.loc 5 796 0
	movl	8(%ebp), %eax
	addl	$4, %eax
	.loc 5 797 0
	popl	%ebp
LCFI146:
	.cfi_restore 5
	.cfi_def_cfa 4, 4
	ret
	.cfi_endproc
LFE1200:
	.def	__ZN4pugi4impl12_GLOBAL__N_113latin1_writer3lowEPhj;	.scl	3;	.type	32;	.endef
__ZN4pugi4impl12_GLOBAL__N_113latin1_writer3lowEPhj:
LFB1202:
	.loc 5 811 0
	.cfi_startproc
	pushl	%ebp
LCFI147:
	.cfi_def_cfa_offset 8
	.cfi_offset 5, -8
	movl	%esp, %ebp
LCFI148:
	.cfi_def_cfa_register 5
	.loc 5 813 0
	cmpl	$255, 12(%ebp)
	ja	L156
	.loc 5 813 0 is_stmt 0 discriminator 1
	movl	12(%ebp), %eax
	jmp	L157
L156:
	.loc 5 813 0 discriminator 2
	movb	$63, %al
L157:
	.loc 5 813 0 discriminator 3
	movl	8(%ebp), %edx
	movb	%al, (%edx)
	.loc 5 815 0 is_stmt 1 discriminator 3
	movl	8(%ebp), %eax
	incl	%eax
	.loc 5 816 0 discriminator 3
	popl	%ebp
LCFI149:
	.cfi_restore 5
	.cfi_def_cfa 4, 4
	ret
	.cfi_endproc
LFE1202:
	.def	__ZN4pugi4impl12_GLOBAL__N_113latin1_writer4highEPhj;	.scl	3;	.type	32;	.endef
__ZN4pugi4impl12_GLOBAL__N_113latin1_writer4highEPhj:
LFB1203:
	.loc 5 818 0
	.cfi_startproc
	pushl	%ebp
LCFI150:
	.cfi_def_cfa_offset 8
	.cfi_offset 5, -8
	movl	%esp, %ebp
LCFI151:
	.cfi_def_cfa_register 5
	.loc 5 822 0
	movl	8(%ebp), %eax
	movb	$63, (%eax)
	.loc 5 824 0
	movl	8(%ebp), %eax
	incl	%eax
	.loc 5 825 0
	popl	%ebp
LCFI152:
	.cfi_restore 5
	.cfi_def_cfa 4, 4
	ret
	.cfi_endproc
LFE1203:
	.def	__ZN4pugi4impl12_GLOBAL__N_116is_little_endianEv;	.scl	3;	.type	32;	.endef
__ZN4pugi4impl12_GLOBAL__N_116is_little_endianEv:
LFB1212:
	.loc 5 1094 0
	.cfi_startproc
	pushl	%ebp
LCFI153:
	.cfi_def_cfa_offset 8
	.cfi_offset 5, -8
	movl	%esp, %ebp
LCFI154:
	.cfi_def_cfa_register 5
	subl	$16, %esp
LBB37:
	.loc 5 1095 0
	movl	$1, -4(%ebp)
	.loc 5 1097 0
	leal	-4(%ebp), %eax
	movb	(%eax), %al
	cmpb	$1, %al
	sete	%al
LBE37:
	.loc 5 1098 0
	leave
LCFI155:
	.cfi_restore 5
	.cfi_def_cfa 4, 4
	ret
	.cfi_endproc
LFE1212:
	.def	__ZN4pugi4impl12_GLOBAL__N_118get_wchar_encodingEv;	.scl	3;	.type	32;	.endef
__ZN4pugi4impl12_GLOBAL__N_118get_wchar_encodingEv:
LFB1213:
	.loc 5 1101 0
	.cfi_startproc
	pushl	%ebp
LCFI156:
	.cfi_def_cfa_offset 8
	.cfi_offset 5, -8
	movl	%esp, %ebp
LCFI157:
	.cfi_def_cfa_register 5
LBB38:
	.loc 5 1105 0
	call	__ZN4pugi4impl12_GLOBAL__N_116is_little_endianEv
	testb	%al, %al
	je	L164
	.loc 5 1105 0 is_stmt 0 discriminator 1
	movl	$2, %eax
	jmp	L165
L164:
	.loc 5 1105 0 discriminator 2
	movl	$3, %eax
L165:
LBE38:
	.loc 5 1108 0 is_stmt 1 discriminator 3
	popl	%ebp
LCFI158:
	.cfi_restore 5
	.cfi_def_cfa 4, 4
	ret
	.cfi_endproc
LFE1213:
	.def	__ZN4pugi4impl12_GLOBAL__N_121guess_buffer_encodingEhhhh;	.scl	3;	.type	32;	.endef
__ZN4pugi4impl12_GLOBAL__N_121guess_buffer_encodingEhhhh:
LFB1214:
	.loc 5 1111 0
	.cfi_startproc
	pushl	%ebp
LCFI159:
	.cfi_def_cfa_offset 8
	.cfi_offset 5, -8
	movl	%esp, %ebp
LCFI160:
	.cfi_def_cfa_register 5
	pushl	%ebx
	subl	$16, %esp
	.cfi_offset 3, -12
	movl	8(%ebp), %ebx
	movl	12(%ebp), %ecx
	movl	16(%ebp), %edx
	movl	20(%ebp), %eax
	movb	%bl, -8(%ebp)
	movb	%cl, -12(%ebp)
	movb	%dl, -16(%ebp)
	movb	%al, -20(%ebp)
	.loc 5 1113 0
	cmpb	$0, -8(%ebp)
	jne	L168
	.loc 5 1113 0 is_stmt 0 discriminator 1
	cmpb	$0, -12(%ebp)
	jne	L168
	.loc 5 1113 0 discriminator 2
	cmpb	$-2, -16(%ebp)
	jne	L168
	.loc 5 1113 0 discriminator 3
	cmpb	$-1, -20(%ebp)
	jne	L168
	.loc 5 1113 0 discriminator 4
	movl	$6, %eax
	jmp	L169
L168:
	.loc 5 1114 0 is_stmt 1
	cmpb	$-1, -8(%ebp)
	jne	L170
	.loc 5 1114 0 is_stmt 0 discriminator 1
	cmpb	$-2, -12(%ebp)
	jne	L170
	.loc 5 1114 0 discriminator 2
	cmpb	$0, -16(%ebp)
	jne	L170
	.loc 5 1114 0 discriminator 3
	cmpb	$0, -20(%ebp)
	jne	L170
	.loc 5 1114 0 discriminator 4
	movl	$5, %eax
	jmp	L169
L170:
	.loc 5 1115 0 is_stmt 1
	cmpb	$-2, -8(%ebp)
	jne	L171
	.loc 5 1115 0 is_stmt 0 discriminator 1
	cmpb	$-1, -12(%ebp)
	jne	L171
	.loc 5 1115 0 discriminator 2
	movl	$3, %eax
	jmp	L169
L171:
	.loc 5 1116 0 is_stmt 1
	cmpb	$-1, -8(%ebp)
	jne	L172
	.loc 5 1116 0 is_stmt 0 discriminator 1
	cmpb	$-2, -12(%ebp)
	jne	L172
	.loc 5 1116 0 discriminator 2
	movl	$2, %eax
	jmp	L169
L172:
	.loc 5 1117 0 is_stmt 1
	cmpb	$-17, -8(%ebp)
	jne	L173
	.loc 5 1117 0 is_stmt 0 discriminator 1
	cmpb	$-69, -12(%ebp)
	jne	L173
	.loc 5 1117 0 discriminator 2
	cmpb	$-65, -16(%ebp)
	jne	L173
	.loc 5 1117 0 discriminator 3
	movl	$1, %eax
	jmp	L169
L173:
	.loc 5 1120 0 is_stmt 1
	cmpb	$0, -8(%ebp)
	jne	L174
	.loc 5 1120 0 is_stmt 0 discriminator 1
	cmpb	$0, -12(%ebp)
	jne	L174
	.loc 5 1120 0 discriminator 2
	cmpb	$0, -16(%ebp)
	jne	L174
	.loc 5 1120 0 discriminator 3
	cmpb	$60, -20(%ebp)
	jne	L174
	.loc 5 1120 0 discriminator 4
	movl	$6, %eax
	jmp	L169
L174:
	.loc 5 1121 0 is_stmt 1
	cmpb	$60, -8(%ebp)
	jne	L175
	.loc 5 1121 0 is_stmt 0 discriminator 1
	cmpb	$0, -12(%ebp)
	jne	L175
	.loc 5 1121 0 discriminator 2
	cmpb	$0, -16(%ebp)
	jne	L175
	.loc 5 1121 0 discriminator 3
	cmpb	$0, -20(%ebp)
	jne	L175
	.loc 5 1121 0 discriminator 4
	movl	$5, %eax
	jmp	L169
L175:
	.loc 5 1122 0 is_stmt 1
	cmpb	$0, -8(%ebp)
	jne	L176
	.loc 5 1122 0 is_stmt 0 discriminator 1
	cmpb	$60, -12(%ebp)
	jne	L176
	.loc 5 1122 0 discriminator 2
	cmpb	$0, -16(%ebp)
	jne	L176
	.loc 5 1122 0 discriminator 3
	cmpb	$63, -20(%ebp)
	jne	L176
	.loc 5 1122 0 discriminator 4
	movl	$3, %eax
	jmp	L169
L176:
	.loc 5 1123 0 is_stmt 1
	cmpb	$60, -8(%ebp)
	jne	L177
	.loc 5 1123 0 is_stmt 0 discriminator 1
	cmpb	$0, -12(%ebp)
	jne	L177
	.loc 5 1123 0 discriminator 2
	cmpb	$63, -16(%ebp)
	jne	L177
	.loc 5 1123 0 discriminator 3
	cmpb	$0, -20(%ebp)
	jne	L177
	.loc 5 1123 0 discriminator 4
	movl	$2, %eax
	jmp	L169
L177:
	.loc 5 1124 0 is_stmt 1
	cmpb	$60, -8(%ebp)
	jne	L178
	.loc 5 1124 0 is_stmt 0 discriminator 1
	cmpb	$63, -12(%ebp)
	jne	L178
	.loc 5 1124 0 discriminator 2
	cmpb	$120, -16(%ebp)
	jne	L178
	.loc 5 1124 0 discriminator 3
	cmpb	$109, -20(%ebp)
	jne	L178
	.loc 5 1124 0 discriminator 4
	movl	$1, %eax
	jmp	L169
L178:
	.loc 5 1127 0 is_stmt 1
	cmpb	$0, -8(%ebp)
	jne	L179
	.loc 5 1127 0 is_stmt 0 discriminator 1
	cmpb	$60, -12(%ebp)
	jne	L179
	.loc 5 1127 0 discriminator 2
	movl	$3, %eax
	jmp	L169
L179:
	.loc 5 1128 0 is_stmt 1
	cmpb	$60, -8(%ebp)
	jne	L180
	.loc 5 1128 0 is_stmt 0 discriminator 1
	cmpb	$0, -12(%ebp)
	jne	L180
	.loc 5 1128 0 discriminator 2
	movl	$2, %eax
	jmp	L169
L180:
	.loc 5 1131 0 is_stmt 1
	movl	$1, %eax
L169:
	.loc 5 1132 0
	addl	$16, %esp
	popl	%ebx
	.cfi_restore 3
	popl	%ebp
LCFI161:
	.cfi_restore 5
	.cfi_def_cfa 4, 4
	ret
	.cfi_endproc
LFE1214:
	.def	__ZN4pugi4impl12_GLOBAL__N_119get_buffer_encodingENS_12xml_encodingEPKvj;	.scl	3;	.type	32;	.endef
__ZN4pugi4impl12_GLOBAL__N_119get_buffer_encodingENS_12xml_encodingEPKvj:
LFB1215:
	.loc 5 1135 0
	.cfi_startproc
	pushl	%ebp
LCFI162:
	.cfi_def_cfa_offset 8
	.cfi_offset 5, -8
	movl	%esp, %ebp
LCFI163:
	.cfi_def_cfa_register 5
	pushl	%ebx
	subl	$32, %esp
	.cfi_offset 3, -12
LBB39:
	.loc 5 1137 0
	cmpl	$8, 8(%ebp)
	jne	L182
	.loc 5 1137 0 is_stmt 0 discriminator 1
	call	__ZN4pugi4impl12_GLOBAL__N_118get_wchar_encodingEv
	jmp	L183
L182:
	.loc 5 1140 0 is_stmt 1
	cmpl	$4, 8(%ebp)
	jne	L184
	.loc 5 1140 0 is_stmt 0 discriminator 1
	call	__ZN4pugi4impl12_GLOBAL__N_116is_little_endianEv
	testb	%al, %al
	je	L185
	movl	$2, %eax
	jmp	L186
L185:
	.loc 5 1140 0 discriminator 2
	movl	$3, %eax
L186:
	.loc 5 1140 0 discriminator 3
	jmp	L183
L184:
	.loc 5 1143 0 is_stmt 1
	cmpl	$7, 8(%ebp)
	jne	L187
	.loc 5 1143 0 is_stmt 0 discriminator 1
	call	__ZN4pugi4impl12_GLOBAL__N_116is_little_endianEv
	testb	%al, %al
	je	L188
	movl	$5, %eax
	jmp	L189
L188:
	.loc 5 1143 0 discriminator 2
	movl	$6, %eax
L189:
	.loc 5 1143 0 discriminator 3
	jmp	L183
L187:
	.loc 5 1146 0 is_stmt 1
	cmpl	$0, 8(%ebp)
	je	L190
	.loc 5 1146 0 is_stmt 0 discriminator 1
	movl	8(%ebp), %eax
	jmp	L183
L190:
	.loc 5 1149 0 is_stmt 1
	cmpl	$3, 16(%ebp)
	ja	L191
	.loc 5 1149 0 is_stmt 0 discriminator 1
	movl	$1, %eax
	jmp	L183
L191:
	.loc 5 1152 0 is_stmt 1
	movl	12(%ebp), %eax
	movl	%eax, -8(%ebp)
	.loc 5 1154 0
	movl	-8(%ebp), %eax
	movb	(%eax), %al
	movb	%al, -9(%ebp)
	movl	-8(%ebp), %eax
	incl	%eax
	movb	(%eax), %al
	movb	%al, -10(%ebp)
	movl	-8(%ebp), %eax
	addl	$2, %eax
	movb	(%eax), %al
	movb	%al, -11(%ebp)
	movl	-8(%ebp), %eax
	addl	$3, %eax
	movb	(%eax), %al
	movb	%al, -12(%ebp)
	.loc 5 1156 0
	movzbl	-12(%ebp), %ebx
	movzbl	-11(%ebp), %ecx
	movzbl	-10(%ebp), %edx
	movzbl	-9(%ebp), %eax
	movl	%ebx, 12(%esp)
	movl	%ecx, 8(%esp)
	movl	%edx, 4(%esp)
	movl	%eax, (%esp)
	call	__ZN4pugi4impl12_GLOBAL__N_121guess_buffer_encodingEhhhh
L183:
LBE39:
	.loc 5 1157 0
	addl	$32, %esp
	popl	%ebx
	.cfi_restore 3
	popl	%ebp
LCFI164:
	.cfi_restore 5
	.cfi_def_cfa 4, 4
	ret
	.cfi_endproc
LFE1215:
	.def	__ZN4pugi4impl12_GLOBAL__N_118get_mutable_bufferERPcRjPKvjb;	.scl	3;	.type	32;	.endef
__ZN4pugi4impl12_GLOBAL__N_118get_mutable_bufferERPcRjPKvjb:
LFB1216:
	.loc 5 1160 0
	.cfi_startproc
	pushl	%ebp
LCFI165:
	.cfi_def_cfa_offset 8
	.cfi_offset 5, -8
	movl	%esp, %ebp
LCFI166:
	.cfi_def_cfa_register 5
	subl	$56, %esp
	movl	24(%ebp), %eax
	movb	%al, -28(%ebp)
LBB40:
LBB41:
	.loc 5 1161 0
	cmpb	$0, -28(%ebp)
	je	L193
	.loc 5 1163 0
	movl	8(%ebp), %eax
	movl	16(%ebp), %edx
	movl	%edx, (%eax)
	jmp	L194
L193:
LBB42:
	.loc 5 1167 0
	movl	__ZN4pugi4impl12_GLOBAL__N_138xml_memory_management_function_storageIiE8allocateE, %edx
	cmpl	$0, 20(%ebp)
	je	L195
	.loc 5 1167 0 is_stmt 0 discriminator 1
	movl	20(%ebp), %eax
	jmp	L196
L195:
	.loc 5 1167 0 discriminator 2
	movl	$1, %eax
L196:
	.loc 5 1167 0 discriminator 3
	movl	%eax, (%esp)
	call	*%edx
	movl	%eax, -12(%ebp)
	.loc 5 1168 0 is_stmt 1 discriminator 3
	cmpl	$0, -12(%ebp)
	jne	L197
	.loc 5 1168 0 is_stmt 0 discriminator 1
	movb	$0, %al
	jmp	L198
L197:
	.loc 5 1170 0 is_stmt 1
	movl	20(%ebp), %eax
	movl	%eax, 8(%esp)
	movl	16(%ebp), %eax
	movl	%eax, 4(%esp)
	movl	-12(%ebp), %eax
	movl	%eax, (%esp)
	call	_memcpy
	.loc 5 1172 0
	movl	8(%ebp), %eax
	movl	-12(%ebp), %edx
	movl	%edx, (%eax)
L194:
LBE42:
LBE41:
	.loc 5 1175 0
	movl	12(%ebp), %eax
	movl	20(%ebp), %edx
	movl	%edx, (%eax)
	.loc 5 1177 0
	movb	$1, %al
L198:
LBE40:
	.loc 5 1178 0
	leave
LCFI167:
	.cfi_restore 5
	.cfi_def_cfa 4, 4
	ret
	.cfi_endproc
LFE1216:
	.def	__ZN4pugi4impl12_GLOBAL__N_129get_latin1_7bit_prefix_lengthEPKhj;	.scl	3;	.type	32;	.endef
__ZN4pugi4impl12_GLOBAL__N_129get_latin1_7bit_prefix_lengthEPKhj:
LFB1219:
	.loc 5 1380 0
	.cfi_startproc
	pushl	%ebp
LCFI168:
	.cfi_def_cfa_offset 8
	.cfi_offset 5, -8
	movl	%esp, %ebp
LCFI169:
	.cfi_def_cfa_register 5
	subl	$16, %esp
LBB43:
LBB44:
	.loc 5 1381 0
	movl	$0, -4(%ebp)
	jmp	L200
L203:
	.loc 5 1382 0
	movl	-4(%ebp), %eax
	movl	8(%ebp), %edx
	addl	%edx, %eax
	movb	(%eax), %al
	testb	%al, %al
	jns	L201
	.loc 5 1383 0
	movl	-4(%ebp), %eax
	jmp	L202
L201:
	.loc 5 1381 0
	incl	-4(%ebp)
L200:
	.loc 5 1381 0 is_stmt 0 discriminator 1
	movl	-4(%ebp), %eax
	cmpl	12(%ebp), %eax
	setb	%al
	testb	%al, %al
	jne	L203
LBE44:
	.loc 5 1385 0 is_stmt 1
	movl	12(%ebp), %eax
L202:
LBE43:
	.loc 5 1386 0
	leave
LCFI170:
	.cfi_restore 5
	.cfi_def_cfa 4, 4
	ret
	.cfi_endproc
LFE1219:
	.section .rdata,"dr"
LC12:
	.ascii "prefix_length <= size\0"
	.align 4
LC13:
	.ascii "out_end == out_begin + out_length\0"
	.text
	.def	__ZN4pugi4impl12_GLOBAL__N_121convert_buffer_latin1ERPcRjPKvjb;	.scl	3;	.type	32;	.endef
__ZN4pugi4impl12_GLOBAL__N_121convert_buffer_latin1ERPcRjPKvjb:
LFB1220:
	.loc 5 1389 0
	.cfi_startproc
	pushl	%ebp
LCFI171:
	.cfi_def_cfa_offset 8
	.cfi_offset 5, -8
	movl	%esp, %ebp
LCFI172:
	.cfi_def_cfa_register 5
	subl	$88, %esp
	movl	24(%ebp), %eax
	movb	%al, -44(%ebp)
LBB45:
	.loc 5 1390 0
	movl	16(%ebp), %eax
	movl	%eax, -12(%ebp)
	.loc 5 1393 0
	movl	20(%ebp), %eax
	movl	%eax, 4(%esp)
	movl	-12(%ebp), %eax
	movl	%eax, (%esp)
	call	__ZN4pugi4impl12_GLOBAL__N_129get_latin1_7bit_prefix_lengthEPKhj
	movl	%eax, -16(%ebp)
	.loc 5 1394 0
	movl	-16(%ebp), %eax
	cmpl	20(%ebp), %eax
	jbe	L205
	.loc 5 1394 0 is_stmt 0 discriminator 1
	movl	$1394, 8(%esp)
	movl	$LC0, 4(%esp)
	movl	$LC12, (%esp)
	call	__assert
L205:
	.loc 5 1396 0 is_stmt 1
	movl	-16(%ebp), %eax
	movl	-12(%ebp), %edx
	addl	%edx, %eax
	movl	%eax, -20(%ebp)
	.loc 5 1397 0
	movl	-16(%ebp), %eax
	movl	20(%ebp), %edx
	movl	%edx, %ecx
	subl	%eax, %ecx
	movl	%ecx, %eax
	movl	%eax, -24(%ebp)
	.loc 5 1400 0
	cmpl	$0, -24(%ebp)
	jne	L206
	.loc 5 1400 0 is_stmt 0 discriminator 1
	movzbl	-44(%ebp), %eax
	movl	%eax, 16(%esp)
	movl	20(%ebp), %eax
	movl	%eax, 12(%esp)
	movl	16(%ebp), %eax
	movl	%eax, 8(%esp)
	movl	12(%ebp), %eax
	movl	%eax, 4(%esp)
	movl	8(%ebp), %eax
	movl	%eax, (%esp)
	call	__ZN4pugi4impl12_GLOBAL__N_118get_mutable_bufferERPcRjPKvjb
	jmp	L207
L206:
	.loc 5 1403 0 is_stmt 1
	movl	$0, 8(%esp)
	movl	-24(%ebp), %eax
	movl	%eax, 4(%esp)
	movl	-20(%ebp), %eax
	movl	%eax, (%esp)
	call	__ZN4pugi4impl12_GLOBAL__N_111utf_decoderINS1_12utf8_counterENS1_9opt_falseEE19decode_latin1_blockEPKhjj
	movl	-16(%ebp), %edx
	addl	%eax, %edx
	movl	12(%ebp), %eax
	movl	%edx, (%eax)
	.loc 5 1406 0
	movl	__ZN4pugi4impl12_GLOBAL__N_138xml_memory_management_function_storageIiE8allocateE, %edx
	movl	12(%ebp), %eax
	movl	(%eax), %eax
	testl	%eax, %eax
	je	L208
	.loc 5 1406 0 is_stmt 0 discriminator 1
	movl	12(%ebp), %eax
	movl	(%eax), %eax
	jmp	L209
L208:
	.loc 5 1406 0 discriminator 2
	movl	$1, %eax
L209:
	.loc 5 1406 0 discriminator 3
	movl	%eax, (%esp)
	call	*%edx
	movl	%eax, %edx
	movl	8(%ebp), %eax
	movl	%edx, (%eax)
	.loc 5 1407 0 is_stmt 1 discriminator 3
	movl	8(%ebp), %eax
	movl	(%eax), %eax
	testl	%eax, %eax
	jne	L210
	.loc 5 1407 0 is_stmt 0 discriminator 1
	movb	$0, %al
	jmp	L207
L210:
	.loc 5 1410 0 is_stmt 1
	movl	8(%ebp), %eax
	movl	(%eax), %eax
	movl	-16(%ebp), %edx
	movl	%edx, 8(%esp)
	movl	-12(%ebp), %edx
	movl	%edx, 4(%esp)
	movl	%eax, (%esp)
	call	_memcpy
	.loc 5 1412 0
	movl	8(%ebp), %eax
	movl	(%eax), %eax
	movl	%eax, -28(%ebp)
	.loc 5 1413 0
	movl	-16(%ebp), %eax
	movl	-28(%ebp), %edx
	addl	%edx, %eax
	movl	%eax, 8(%esp)
	movl	-24(%ebp), %eax
	movl	%eax, 4(%esp)
	movl	-20(%ebp), %eax
	movl	%eax, (%esp)
	call	__ZN4pugi4impl12_GLOBAL__N_111utf_decoderINS1_11utf8_writerENS1_9opt_falseEE19decode_latin1_blockEPKhjPh
	movl	%eax, -32(%ebp)
	.loc 5 1415 0
	movl	12(%ebp), %eax
	movl	(%eax), %edx
	movl	-28(%ebp), %eax
	addl	%edx, %eax
	cmpl	-32(%ebp), %eax
	je	L211
	.loc 5 1415 0 is_stmt 0 discriminator 1
	movl	$1415, 8(%esp)
	movl	$LC0, 4(%esp)
	movl	$LC13, (%esp)
	call	__assert
L211:
	.loc 5 1418 0 is_stmt 1
	movb	$1, %al
L207:
LBE45:
	.loc 5 1419 0
	leave
LCFI173:
	.cfi_restore 5
	.cfi_def_cfa 4, 4
	ret
	.cfi_endproc
LFE1220:
	.section .rdata,"dr"
LC14:
	.ascii "!\"Invalid encoding\"\0"
	.text
	.def	__ZN4pugi4impl12_GLOBAL__N_114convert_bufferERPcRjNS_12xml_encodingEPKvjb;	.scl	3;	.type	32;	.endef
__ZN4pugi4impl12_GLOBAL__N_114convert_bufferERPcRjNS_12xml_encodingEPKvjb:
LFB1221:
	.loc 5 1422 0
	.cfi_startproc
	.cfi_personality 0,___gxx_personality_v0
	.cfi_lsda 0,LLSDA1221
	pushl	%ebp
LCFI174:
	.cfi_def_cfa_offset 8
	.cfi_offset 5, -8
	movl	%esp, %ebp
LCFI175:
	.cfi_def_cfa_register 5
	pushl	%edi
	pushl	%esi
	pushl	%ebx
	subl	$76, %esp
	.cfi_offset 7, -12
	.cfi_offset 6, -16
	.cfi_offset 3, -20
	movl	28(%ebp), %eax
	movb	%al, -44(%ebp)
LBB46:
	.loc 5 1424 0
	cmpl	$1, 16(%ebp)
	jne	L213
	.loc 5 1424 0 is_stmt 0 discriminator 1
	movzbl	-44(%ebp), %eax
	movl	%eax, 16(%esp)
	movl	24(%ebp), %eax
	movl	%eax, 12(%esp)
	movl	20(%ebp), %eax
	movl	%eax, 8(%esp)
	movl	12(%ebp), %eax
	movl	%eax, 4(%esp)
	movl	8(%ebp), %eax
	movl	%eax, (%esp)
LEHB6:
	call	__ZN4pugi4impl12_GLOBAL__N_118get_mutable_bufferERPcRjPKvjb
LEHE6:
	jmp	L214
L213:
LBB47:
	.loc 5 1427 0 is_stmt 1
	cmpl	$3, 16(%ebp)
	je	L215
	.loc 5 1427 0 is_stmt 0 discriminator 1
	cmpl	$2, 16(%ebp)
	jne	L216
L215:
LBB48:
	.loc 5 1429 0 is_stmt 1
	call	__ZN4pugi4impl12_GLOBAL__N_116is_little_endianEv
	testb	%al, %al
	je	L217
	.loc 5 1429 0 is_stmt 0 discriminator 1
	movl	$2, %eax
	jmp	L218
L217:
	.loc 5 1429 0 discriminator 2
	movl	$3, %eax
L218:
	.loc 5 1429 0 discriminator 3
	movl	%eax, -32(%ebp)
	.loc 5 1433 0 is_stmt 1 discriminator 3
	movb	$0, %bl
	movl	$0, %esi
	movl	-32(%ebp), %eax
	cmpl	16(%ebp), %eax
	jne	L219
	.loc 5 1432 0 discriminator 1
	movb	$1, %bl
	.loc 5 1433 0 discriminator 1
	movb	-43(%ebp), %al
	movb	%al, 16(%esp)
	movl	24(%ebp), %eax
	movl	%eax, 12(%esp)
	movl	20(%ebp), %eax
	movl	%eax, 8(%esp)
	movl	12(%ebp), %eax
	movl	%eax, 4(%esp)
	movl	8(%ebp), %eax
	movl	%eax, (%esp)
LEHB7:
	call	__ZN4pugi4impl12_GLOBAL__N_120convert_buffer_utf16INS1_9opt_falseEEEbRPcRjPKvjT_
	jmp	L220
L219:
	.loc 5 1433 0 is_stmt 0 discriminator 2
	movl	$1, %esi
	movb	-42(%ebp), %dl
	movb	%dl, 16(%esp)
	movl	24(%ebp), %eax
	movl	%eax, 12(%esp)
	movl	20(%ebp), %eax
	movl	%eax, 8(%esp)
	movl	12(%ebp), %eax
	movl	%eax, 4(%esp)
	movl	8(%ebp), %eax
	movl	%eax, (%esp)
	call	__ZN4pugi4impl12_GLOBAL__N_120convert_buffer_utf16INS1_8opt_trueEEEbRPcRjPKvjT_
LEHE7:
L220:
	.loc 5 1433 0 discriminator 5
	movl	%esi, %edx
	testb	%dl, %dl
	.loc 5 1432 0 is_stmt 1 discriminator 5
	testb	%bl, %bl
	jmp	L214
L216:
LBE48:
LBE47:
LBB50:
	.loc 5 1437 0
	cmpl	$6, 16(%ebp)
	je	L222
	.loc 5 1437 0 is_stmt 0 discriminator 1
	cmpl	$5, 16(%ebp)
	jne	L223
L222:
LBB51:
	.loc 5 1439 0 is_stmt 1
	call	__ZN4pugi4impl12_GLOBAL__N_116is_little_endianEv
	testb	%al, %al
	je	L224
	.loc 5 1439 0 is_stmt 0 discriminator 1
	movl	$5, %eax
	jmp	L225
L224:
	.loc 5 1439 0 discriminator 2
	movl	$6, %eax
L225:
	.loc 5 1439 0 discriminator 3
	movl	%eax, -28(%ebp)
	.loc 5 1443 0 is_stmt 1 discriminator 3
	movb	$0, %bl
	movl	$0, %esi
	movl	-28(%ebp), %eax
	cmpl	16(%ebp), %eax
	jne	L226
	.loc 5 1442 0 discriminator 1
	movb	$1, %bl
	.loc 5 1443 0 discriminator 1
	movb	-41(%ebp), %al
	movb	%al, 16(%esp)
	movl	24(%ebp), %eax
	movl	%eax, 12(%esp)
	movl	20(%ebp), %eax
	movl	%eax, 8(%esp)
	movl	12(%ebp), %eax
	movl	%eax, 4(%esp)
	movl	8(%ebp), %eax
	movl	%eax, (%esp)
LEHB8:
	call	__ZN4pugi4impl12_GLOBAL__N_120convert_buffer_utf32INS1_9opt_falseEEEbRPcRjPKvjT_
	jmp	L227
L226:
	.loc 5 1443 0 is_stmt 0 discriminator 2
	movl	$1, %esi
	movl	%edi, %edx
	movb	%dl, 16(%esp)
	movl	24(%ebp), %eax
	movl	%eax, 12(%esp)
	movl	20(%ebp), %eax
	movl	%eax, 8(%esp)
	movl	12(%ebp), %eax
	movl	%eax, 4(%esp)
	movl	8(%ebp), %eax
	movl	%eax, (%esp)
	call	__ZN4pugi4impl12_GLOBAL__N_120convert_buffer_utf32INS1_8opt_trueEEEbRPcRjPKvjT_
LEHE8:
L227:
	.loc 5 1443 0 discriminator 5
	movl	%esi, %edx
	testb	%dl, %dl
	.loc 5 1442 0 is_stmt 1 discriminator 5
	testb	%bl, %bl
	jmp	L214
L223:
LBE51:
LBE50:
	.loc 5 1447 0
	cmpl	$9, 16(%ebp)
	jne	L229
	.loc 5 1447 0 is_stmt 0 discriminator 1
	movzbl	-44(%ebp), %eax
	movl	%eax, 16(%esp)
	movl	24(%ebp), %eax
	movl	%eax, 12(%esp)
	movl	20(%ebp), %eax
	movl	%eax, 8(%esp)
	movl	12(%ebp), %eax
	movl	%eax, 4(%esp)
	movl	8(%ebp), %eax
	movl	%eax, (%esp)
LEHB9:
	call	__ZN4pugi4impl12_GLOBAL__N_121convert_buffer_latin1ERPcRjPKvjb
	jmp	L214
L229:
	.loc 5 1449 0 is_stmt 1
	movl	$1449, 8(%esp)
	movl	$LC0, 4(%esp)
	movl	$LC14, (%esp)
	call	__assert
L214:
	jmp	L238
L236:
LBB53:
LBB49:
	.loc 5 1433 0
	movl	%esi, %edx
	testb	%dl, %dl
	.loc 5 1432 0
	testb	%bl, %bl
	movl	%eax, (%esp)
	call	__Unwind_Resume
L237:
LBE49:
LBE53:
LBB54:
LBB52:
	.loc 5 1443 0
	movl	%esi, %edx
	testb	%dl, %dl
	.loc 5 1442 0
	testb	%bl, %bl
	movl	%eax, (%esp)
	call	__Unwind_Resume
LEHE9:
L238:
LBE52:
LBE54:
LBE46:
	.loc 5 1451 0
	addl	$76, %esp
	popl	%ebx
	.cfi_restore 3
	popl	%esi
	.cfi_restore 6
	popl	%edi
	.cfi_restore 7
	popl	%ebp
LCFI176:
	.cfi_restore 5
	.cfi_def_cfa 4, 4
	ret
	.cfi_endproc
LFE1221:
	.section	.gcc_except_table,"w"
LLSDA1221:
	.byte	0xff
	.byte	0xff
	.byte	0x1
	.uleb128 LLSDACSE1221-LLSDACSB1221
LLSDACSB1221:
	.uleb128 LEHB6-LFB1221
	.uleb128 LEHE6-LEHB6
	.uleb128 0
	.uleb128 0
	.uleb128 LEHB7-LFB1221
	.uleb128 LEHE7-LEHB7
	.uleb128 L236-LFB1221
	.uleb128 0
	.uleb128 LEHB8-LFB1221
	.uleb128 LEHE8-LEHB8
	.uleb128 L237-LFB1221
	.uleb128 0
	.uleb128 LEHB9-LFB1221
	.uleb128 LEHE9-LEHB9
	.uleb128 0
	.uleb128 0
LLSDACSE1221:
	.text
	.def	__ZN4pugi4impl12_GLOBAL__N_113as_utf8_beginEPKwj;	.scl	3;	.type	32;	.endef
__ZN4pugi4impl12_GLOBAL__N_113as_utf8_beginEPKwj:
LFB1222:
	.loc 5 1455 0
	.cfi_startproc
	pushl	%ebp
LCFI177:
	.cfi_def_cfa_offset 8
	.cfi_offset 5, -8
	movl	%esp, %ebp
LCFI178:
	.cfi_def_cfa_register 5
	subl	$24, %esp
	.loc 5 1457 0
	movl	$0, 8(%esp)
	movl	12(%ebp), %eax
	movl	%eax, 4(%esp)
	movl	8(%ebp), %eax
	movl	%eax, (%esp)
	call	__ZN4pugi4impl12_GLOBAL__N_111utf_decoderINS1_12utf8_counterENS1_9opt_falseEE18decode_wchar_blockEPKwjj
	.loc 5 1458 0
	leave
LCFI179:
	.cfi_restore 5
	.cfi_def_cfa 4, 4
	ret
	.cfi_endproc
LFE1222:
	.section .rdata,"dr"
LC15:
	.ascii "begin + size == end\0"
	.text
	.def	__ZN4pugi4impl12_GLOBAL__N_111as_utf8_endEPcjPKwj;	.scl	3;	.type	32;	.endef
__ZN4pugi4impl12_GLOBAL__N_111as_utf8_endEPcjPKwj:
LFB1223:
	.loc 5 1461 0
	.cfi_startproc
	pushl	%ebp
LCFI180:
	.cfi_def_cfa_offset 8
	.cfi_offset 5, -8
	movl	%esp, %ebp
LCFI181:
	.cfi_def_cfa_register 5
	subl	$40, %esp
LBB55:
	.loc 5 1463 0
	movl	8(%ebp), %eax
	movl	%eax, -12(%ebp)
	.loc 5 1464 0
	movl	-12(%ebp), %eax
	movl	%eax, 8(%esp)
	movl	20(%ebp), %eax
	movl	%eax, 4(%esp)
	movl	16(%ebp), %eax
	movl	%eax, (%esp)
	call	__ZN4pugi4impl12_GLOBAL__N_111utf_decoderINS1_11utf8_writerENS1_9opt_falseEE18decode_wchar_blockEPKwjPh
	movl	%eax, -16(%ebp)
	.loc 5 1466 0
	movl	12(%ebp), %eax
	movl	-12(%ebp), %edx
	addl	%edx, %eax
	cmpl	-16(%ebp), %eax
	je	L242
	.loc 5 1466 0 is_stmt 0 discriminator 1
	movl	$1466, 8(%esp)
	movl	$LC0, 4(%esp)
	movl	$LC15, (%esp)
	call	__assert
L242:
	.loc 5 1470 0 is_stmt 1
	movl	12(%ebp), %eax
	movl	8(%ebp), %edx
	addl	%edx, %eax
	movb	$0, (%eax)
LBE55:
	.loc 5 1471 0
	leave
LCFI182:
	.cfi_restore 5
	.cfi_def_cfa 4, 4
	ret
	.cfi_endproc
LFE1223:
	.def	__ZN4pugi4impl12_GLOBAL__N_112as_utf8_implEPKwj;	.scl	3;	.type	32;	.endef
__ZN4pugi4impl12_GLOBAL__N_112as_utf8_implEPKwj:
LFB1224:
	.loc 5 1475 0
	.cfi_startproc
	.cfi_personality 0,___gxx_personality_v0
	.cfi_lsda 0,LLSDA1224
	pushl	%ebp
LCFI183:
	.cfi_def_cfa_offset 8
	.cfi_offset 5, -8
	movl	%esp, %ebp
LCFI184:
	.cfi_def_cfa_register 5
	pushl	%ebx
	subl	$36, %esp
	.cfi_offset 3, -12
LBB56:
	.loc 5 1477 0
	movl	16(%ebp), %eax
	movl	%eax, 4(%esp)
	movl	12(%ebp), %eax
	movl	%eax, (%esp)
LEHB10:
	call	__ZN4pugi4impl12_GLOBAL__N_113as_utf8_beginEPKwj
	movl	%eax, -12(%ebp)
	.loc 5 1480 0
	movl	8(%ebp), %ecx
	call	__ZNSsC1Ev
LEHE10:
	.loc 5 1481 0
	movl	-12(%ebp), %eax
	movl	%eax, (%esp)
	movl	8(%ebp), %ecx
LEHB11:
	call	__ZNSs6resizeEj
	subl	$4, %esp
	.loc 5 1484 0
	cmpl	$0, -12(%ebp)
	je	L248
	.loc 5 1484 0 is_stmt 0 discriminator 1
	movl	$0, (%esp)
	movl	8(%ebp), %ecx
	call	__ZNSsixEj
	subl	$4, %esp
	movl	16(%ebp), %edx
	movl	%edx, 12(%esp)
	movl	12(%ebp), %edx
	movl	%edx, 8(%esp)
	movl	-12(%ebp), %edx
	movl	%edx, 4(%esp)
	movl	%eax, (%esp)
	call	__ZN4pugi4impl12_GLOBAL__N_111as_utf8_endEPcjPKwj
LEHE11:
	.loc 5 1486 0 is_stmt 1
	jmp	L248
L247:
	movl	%eax, %ebx
	movl	8(%ebp), %ecx
	call	__ZNSsD1Ev
	movl	%ebx, %eax
	movl	%eax, (%esp)
LEHB12:
	call	__Unwind_Resume
LEHE12:
L248:
	nop
L243:
LBE56:
	.loc 5 1487 0
	movl	8(%ebp), %eax
	movl	-4(%ebp), %ebx
	leave
LCFI185:
	.cfi_restore 5
	.cfi_restore 3
	.cfi_def_cfa 4, 4
	ret
	.cfi_endproc
LFE1224:
	.section	.gcc_except_table,"w"
LLSDA1224:
	.byte	0xff
	.byte	0xff
	.byte	0x1
	.uleb128 LLSDACSE1224-LLSDACSB1224
LLSDACSB1224:
	.uleb128 LEHB10-LFB1224
	.uleb128 LEHE10-LEHB10
	.uleb128 0
	.uleb128 0
	.uleb128 LEHB11-LFB1224
	.uleb128 LEHE11-LEHB11
	.uleb128 L247-LFB1224
	.uleb128 0
	.uleb128 LEHB12-LFB1224
	.uleb128 LEHE12-LEHB12
	.uleb128 0
	.uleb128 0
LLSDACSE1224:
	.text
	.section .rdata,"dr"
LC16:
	.ascii "begin + length == end\0"
	.text
	.def	__ZN4pugi4impl12_GLOBAL__N_112as_wide_implEPKcj;	.scl	3;	.type	32;	.endef
__ZN4pugi4impl12_GLOBAL__N_112as_wide_implEPKcj:
LFB1225:
	.loc 5 1490 0
	.cfi_startproc
	.cfi_personality 0,___gxx_personality_v0
	.cfi_lsda 0,LLSDA1225
	pushl	%ebp
LCFI186:
	.cfi_def_cfa_offset 8
	.cfi_offset 5, -8
	movl	%esp, %ebp
LCFI187:
	.cfi_def_cfa_register 5
	pushl	%ebx
	subl	$36, %esp
	.cfi_offset 3, -12
LBB57:
	.loc 5 1491 0
	movl	12(%ebp), %eax
	movl	%eax, -12(%ebp)
	.loc 5 1494 0
	movl	$0, 8(%esp)
	movl	16(%ebp), %eax
	movl	%eax, 4(%esp)
	movl	-12(%ebp), %eax
	movl	%eax, (%esp)
	call	__ZN4pugi4impl12_GLOBAL__N_111utf_decoderINS1_13utf16_counterENS1_9opt_falseEE17decode_utf8_blockEPKhjj
	movl	%eax, -16(%ebp)
	.loc 5 1497 0
	movl	8(%ebp), %ecx
LEHB13:
	call	__ZNSbIwSt11char_traitsIwESaIwEEC1Ev
LEHE13:
	.loc 5 1498 0
	movl	-16(%ebp), %eax
	movl	%eax, (%esp)
	movl	8(%ebp), %ecx
LEHB14:
	call	__ZNSbIwSt11char_traitsIwESaIwEE6resizeEj
	subl	$4, %esp
LBB58:
	.loc 5 1501 0
	cmpl	$0, -16(%ebp)
	je	L254
LBB59:
	.loc 5 1503 0
	movl	$0, (%esp)
	movl	8(%ebp), %ecx
	call	__ZNSbIwSt11char_traitsIwESaIwEEixEj
LEHE14:
	subl	$4, %esp
	movl	%eax, -20(%ebp)
	.loc 5 1504 0
	movl	-20(%ebp), %eax
	movl	%eax, 8(%esp)
	movl	16(%ebp), %eax
	movl	%eax, 4(%esp)
	movl	-12(%ebp), %eax
	movl	%eax, (%esp)
	call	__ZN4pugi4impl12_GLOBAL__N_111utf_decoderINS1_12utf16_writerENS1_9opt_falseEE17decode_utf8_blockEPKhjPt
	movl	%eax, -24(%ebp)
	.loc 5 1506 0
	movl	-16(%ebp), %eax
	leal	(%eax,%eax), %edx
	movl	-20(%ebp), %eax
	addl	%edx, %eax
	cmpl	-24(%ebp), %eax
	je	L254
	.loc 5 1506 0 is_stmt 0 discriminator 1
	movl	$1506, 8(%esp)
	movl	$LC0, 4(%esp)
	movl	$LC16, (%esp)
	call	__assert
L253:
	movl	%eax, %ebx
LBE59:
LBE58:
	.loc 5 1510 0 is_stmt 1
	movl	8(%ebp), %ecx
	call	__ZNSbIwSt11char_traitsIwESaIwEED1Ev
	movl	%ebx, %eax
	movl	%eax, (%esp)
LEHB15:
	call	__Unwind_Resume
LEHE15:
L254:
	nop
L249:
LBE57:
	.loc 5 1511 0
	movl	8(%ebp), %eax
	movl	-4(%ebp), %ebx
	leave
LCFI188:
	.cfi_restore 5
	.cfi_restore 3
	.cfi_def_cfa 4, 4
	ret
	.cfi_endproc
LFE1225:
	.section	.gcc_except_table,"w"
LLSDA1225:
	.byte	0xff
	.byte	0xff
	.byte	0x1
	.uleb128 LLSDACSE1225-LLSDACSB1225
LLSDACSB1225:
	.uleb128 LEHB13-LFB1225
	.uleb128 LEHE13-LEHB13
	.uleb128 0
	.uleb128 0
	.uleb128 LEHB14-LFB1225
	.uleb128 LEHE14-LEHB14
	.uleb128 L253-LFB1225
	.uleb128 0
	.uleb128 LEHB15-LFB1225
	.uleb128 LEHE15-LEHB15
	.uleb128 0
	.uleb128 0
LLSDACSE1225:
	.text
	.section .rdata,"dr"
LC17:
	.ascii "target\0"
	.text
	.def	__ZN4pugi4impl12_GLOBAL__N_119strcpy_insitu_allowEjjPc;	.scl	3;	.type	32;	.endef
__ZN4pugi4impl12_GLOBAL__N_119strcpy_insitu_allowEjjPc:
LFB1226:
	.loc 5 1515 0
	.cfi_startproc
	pushl	%ebp
LCFI189:
	.cfi_def_cfa_offset 8
	.cfi_offset 5, -8
	movl	%esp, %ebp
LCFI190:
	.cfi_def_cfa_register 5
	subl	$40, %esp
LBB60:
	.loc 5 1516 0
	cmpl	$0, 16(%ebp)
	jne	L256
	.loc 5 1516 0 is_stmt 0 discriminator 1
	movl	$1516, 8(%esp)
	movl	$LC0, 4(%esp)
	movl	$LC17, (%esp)
	call	__assert
L256:
	.loc 5 1517 0 is_stmt 1
	movl	16(%ebp), %eax
	movl	%eax, (%esp)
	call	__ZN4pugi4impl12_GLOBAL__N_19strlengthEPKc
	movl	%eax, -12(%ebp)
	.loc 5 1520 0
	cmpl	$0, 12(%ebp)
	jne	L257
	.loc 5 1520 0 is_stmt 0 discriminator 1
	movl	-12(%ebp), %eax
	cmpl	8(%ebp), %eax
	setae	%al
	jmp	L258
L257:
	.loc 5 1523 0 is_stmt 1
	movl	$32, -16(%ebp)
	.loc 5 1525 0
	movl	-12(%ebp), %eax
	cmpl	8(%ebp), %eax
	jb	L259
	.loc 5 1525 0 is_stmt 0 discriminator 1
	cmpl	$31, -12(%ebp)
	jbe	L260
	.loc 5 1525 0 discriminator 4
	movl	8(%ebp), %eax
	movl	-12(%ebp), %edx
	subl	%eax, %edx
	movl	-12(%ebp), %eax
	shrl	%eax
	cmpl	%eax, %edx
	jae	L259
L260:
	.loc 5 1525 0 discriminator 3
	movb	$1, %al
	jmp	L261
L259:
	.loc 5 1525 0 discriminator 2
	movb	$0, %al
L261:
L258:
LBE60:
	.loc 5 1526 0 is_stmt 1
	leave
LCFI191:
	.cfi_restore 5
	.cfi_def_cfa 4, 4
	ret
	.cfi_endproc
LFE1226:
	.def	__ZN4pugi4impl12_GLOBAL__N_113strcpy_insituERPcRjjPKc;	.scl	3;	.type	32;	.endef
__ZN4pugi4impl12_GLOBAL__N_113strcpy_insituERPcRjjPKc:
LFB1227:
	.loc 5 1529 0
	.cfi_startproc
	pushl	%ebp
LCFI192:
	.cfi_def_cfa_offset 8
	.cfi_offset 5, -8
	movl	%esp, %ebp
LCFI193:
	.cfi_def_cfa_register 5
	subl	$40, %esp
LBB61:
	.loc 5 1530 0
	movl	20(%ebp), %eax
	movl	%eax, (%esp)
	call	__ZN4pugi4impl12_GLOBAL__N_19strlengthEPKc
	movl	%eax, -12(%ebp)
LBB62:
	.loc 5 1532 0
	cmpl	$0, -12(%ebp)
	jne	L263
LBB63:
	.loc 5 1535 0
	movl	12(%ebp), %eax
	movl	(%eax), %eax
	andl	$-32, %eax
	movl	(%eax), %eax
	movl	%eax, -16(%ebp)
	.loc 5 1537 0
	movl	12(%ebp), %eax
	movl	(%eax), %eax
	andl	16(%ebp), %eax
	testl	%eax, %eax
	je	L264
	.loc 5 1537 0 is_stmt 0 discriminator 1
	movl	8(%ebp), %eax
	movl	(%eax), %edx
	movl	-16(%ebp), %eax
	movl	%edx, (%esp)
	movl	%eax, %ecx
	call	__ZN4pugi4impl12_GLOBAL__N_113xml_allocator17deallocate_stringEPc
	subl	$4, %esp
L264:
	.loc 5 1540 0 is_stmt 1
	movl	8(%ebp), %eax
	movl	$0, (%eax)
	.loc 5 1541 0
	movl	12(%ebp), %eax
	movl	(%eax), %eax
	movl	16(%ebp), %edx
	notl	%edx
	andl	%eax, %edx
	movl	12(%ebp), %eax
	movl	%edx, (%eax)
	.loc 5 1543 0
	movb	$1, %al
	jmp	L265
L263:
LBE63:
LBB64:
LBB65:
	.loc 5 1545 0
	movl	8(%ebp), %eax
	movl	(%eax), %eax
	testl	%eax, %eax
	je	L266
	.loc 5 1545 0 is_stmt 0 discriminator 1
	movl	8(%ebp), %eax
	movl	(%eax), %edx
	movl	12(%ebp), %eax
	movl	(%eax), %eax
	andl	16(%ebp), %eax
	movl	%edx, 8(%esp)
	movl	%eax, 4(%esp)
	movl	-12(%ebp), %eax
	movl	%eax, (%esp)
	call	__ZN4pugi4impl12_GLOBAL__N_119strcpy_insitu_allowEjjPc
	testb	%al, %al
	je	L266
	.loc 5 1545 0 discriminator 3
	movb	$1, %al
	jmp	L267
L266:
	.loc 5 1545 0 discriminator 2
	movb	$0, %al
L267:
	.loc 5 1545 0 discriminator 4
	testb	%al, %al
	je	L268
	.loc 5 1548 0 is_stmt 1
	movl	-12(%ebp), %eax
	leal	1(%eax), %edx
	movl	8(%ebp), %eax
	movl	(%eax), %eax
	movl	%edx, 8(%esp)
	movl	20(%ebp), %edx
	movl	%edx, 4(%esp)
	movl	%eax, (%esp)
	call	_memcpy
	.loc 5 1550 0
	movb	$1, %al
	jmp	L265
L268:
LBB66:
	.loc 5 1554 0
	movl	12(%ebp), %eax
	movl	(%eax), %eax
	andl	$-32, %eax
	movl	(%eax), %eax
	movl	%eax, -20(%ebp)
	.loc 5 1557 0
	movl	-12(%ebp), %eax
	leal	1(%eax), %edx
	movl	-20(%ebp), %eax
	movl	%edx, (%esp)
	movl	%eax, %ecx
	call	__ZN4pugi4impl12_GLOBAL__N_113xml_allocator15allocate_stringEj
	subl	$4, %esp
	movl	%eax, -24(%ebp)
	.loc 5 1558 0
	cmpl	$0, -24(%ebp)
	jne	L269
	.loc 5 1558 0 is_stmt 0 discriminator 1
	movb	$0, %al
	jmp	L265
L269:
	.loc 5 1561 0 is_stmt 1
	movl	-12(%ebp), %eax
	incl	%eax
	movl	%eax, 8(%esp)
	movl	20(%ebp), %eax
	movl	%eax, 4(%esp)
	movl	-24(%ebp), %eax
	movl	%eax, (%esp)
	call	_memcpy
	.loc 5 1564 0
	movl	12(%ebp), %eax
	movl	(%eax), %eax
	andl	16(%ebp), %eax
	testl	%eax, %eax
	je	L270
	.loc 5 1564 0 is_stmt 0 discriminator 1
	movl	8(%ebp), %eax
	movl	(%eax), %edx
	movl	-20(%ebp), %eax
	movl	%edx, (%esp)
	movl	%eax, %ecx
	call	__ZN4pugi4impl12_GLOBAL__N_113xml_allocator17deallocate_stringEPc
	subl	$4, %esp
L270:
	.loc 5 1567 0 is_stmt 1
	movl	8(%ebp), %eax
	movl	-24(%ebp), %edx
	movl	%edx, (%eax)
	.loc 5 1568 0
	movl	12(%ebp), %eax
	movl	(%eax), %eax
	movl	%eax, %edx
	orl	16(%ebp), %edx
	movl	12(%ebp), %eax
	movl	%edx, (%eax)
	.loc 5 1570 0
	movb	$1, %al
L265:
LBE66:
LBE65:
LBE64:
LBE62:
LBE61:
	.loc 5 1572 0
	leave
LCFI194:
	.cfi_restore 5
	.cfi_def_cfa 4, 4
	ret
	.cfi_endproc
LFE1227:
	.align 2
	.def	__ZN4pugi4impl12_GLOBAL__N_13gapC2Ev;	.scl	3;	.type	32;	.endef
__ZN4pugi4impl12_GLOBAL__N_13gapC2Ev:
LFB1229:
	.loc 5 1579 0
	.cfi_startproc
	pushl	%ebp
LCFI195:
	.cfi_def_cfa_offset 8
	.cfi_offset 5, -8
	movl	%esp, %ebp
LCFI196:
	.cfi_def_cfa_register 5
	subl	$4, %esp
	movl	%ecx, -4(%ebp)
LBB67:
	.loc 5 1579 0
	movl	-4(%ebp), %eax
	movl	$0, (%eax)
	movl	-4(%ebp), %eax
	movl	$0, 4(%eax)
LBE67:
	.loc 5 1581 0
	leave
LCFI197:
	.cfi_restore 5
	.cfi_def_cfa 4, 4
	ret
	.cfi_endproc
LFE1229:
	.def	__ZN4pugi4impl12_GLOBAL__N_13gapC1Ev;	.scl	3;	.type	32;	.endef
	.set	__ZN4pugi4impl12_GLOBAL__N_13gapC1Ev,__ZN4pugi4impl12_GLOBAL__N_13gapC2Ev
	.section .rdata,"dr"
LC18:
	.ascii "s >= end\0"
	.text
	.align 2
	.def	__ZN4pugi4impl12_GLOBAL__N_13gap4pushERPcj;	.scl	3;	.type	32;	.endef
__ZN4pugi4impl12_GLOBAL__N_13gap4pushERPcj:
LFB1231:
	.loc 5 1585 0
	.cfi_startproc
	pushl	%ebp
LCFI198:
	.cfi_def_cfa_offset 8
	.cfi_offset 5, -8
	movl	%esp, %ebp
LCFI199:
	.cfi_def_cfa_register 5
	pushl	%ebx
	subl	$36, %esp
	.cfi_offset 3, -12
	movl	%ecx, -12(%ebp)
	.loc 5 1587 0
	movl	-12(%ebp), %eax
	movl	(%eax), %eax
	testl	%eax, %eax
	je	L273
	.loc 5 1590 0
	movl	8(%ebp), %eax
	movl	(%eax), %edx
	movl	-12(%ebp), %eax
	movl	(%eax), %eax
	cmpl	%eax, %edx
	jae	L274
	.loc 5 1590 0 is_stmt 0 discriminator 1
	movl	$1590, 8(%esp)
	movl	$LC0, 4(%esp)
	movl	$LC18, (%esp)
	call	__assert
L274:
	.loc 5 1591 0 is_stmt 1
	movl	8(%ebp), %eax
	movl	(%eax), %eax
	movl	%eax, %edx
	movl	-12(%ebp), %eax
	movl	(%eax), %eax
	movl	%edx, %ecx
	subl	%eax, %ecx
	movl	%ecx, %eax
	movl	%eax, %edx
	movl	-12(%ebp), %eax
	movl	(%eax), %eax
	movl	-12(%ebp), %ecx
	movl	(%ecx), %ebx
	movl	-12(%ebp), %ecx
	movl	4(%ecx), %ecx
	negl	%ecx
	addl	%ebx, %ecx
	movl	%edx, 8(%esp)
	movl	%eax, 4(%esp)
	movl	%ecx, (%esp)
	call	_memmove
L273:
	.loc 5 1594 0
	movl	8(%ebp), %eax
	movl	(%eax), %edx
	movl	12(%ebp), %eax
	addl	%eax, %edx
	movl	8(%ebp), %eax
	movl	%edx, (%eax)
	.loc 5 1597 0
	movl	8(%ebp), %eax
	movl	(%eax), %edx
	movl	-12(%ebp), %eax
	movl	%edx, (%eax)
	.loc 5 1598 0
	movl	-12(%ebp), %eax
	movl	4(%eax), %edx
	movl	12(%ebp), %eax
	addl	%eax, %edx
	movl	-12(%ebp), %eax
	movl	%edx, 4(%eax)
	.loc 5 1599 0
	addl	$36, %esp
	popl	%ebx
	.cfi_restore 3
	popl	%ebp
LCFI200:
	.cfi_restore 5
	.cfi_def_cfa 4, 4
	ret	$8
	.cfi_endproc
LFE1231:
	.align 2
	.def	__ZN4pugi4impl12_GLOBAL__N_13gap5flushEPc;	.scl	3;	.type	32;	.endef
__ZN4pugi4impl12_GLOBAL__N_13gap5flushEPc:
LFB1232:
	.loc 5 1602 0
	.cfi_startproc
	pushl	%ebp
LCFI201:
	.cfi_def_cfa_offset 8
	.cfi_offset 5, -8
	movl	%esp, %ebp
LCFI202:
	.cfi_def_cfa_register 5
	pushl	%ebx
	subl	$36, %esp
	.cfi_offset 3, -12
	movl	%ecx, -12(%ebp)
	.loc 5 1604 0
	movl	-12(%ebp), %eax
	movl	(%eax), %eax
	testl	%eax, %eax
	je	L276
	.loc 5 1607 0
	movl	-12(%ebp), %eax
	movl	(%eax), %eax
	cmpl	8(%ebp), %eax
	jbe	L277
	.loc 5 1607 0 is_stmt 0 discriminator 1
	movl	$1607, 8(%esp)
	movl	$LC0, 4(%esp)
	movl	$LC18, (%esp)
	call	__assert
L277:
	.loc 5 1608 0 is_stmt 1
	movl	8(%ebp), %edx
	movl	-12(%ebp), %eax
	movl	(%eax), %eax
	movl	%edx, %ecx
	subl	%eax, %ecx
	movl	%ecx, %eax
	movl	%eax, %edx
	movl	-12(%ebp), %eax
	movl	(%eax), %eax
	movl	-12(%ebp), %ecx
	movl	(%ecx), %ebx
	movl	-12(%ebp), %ecx
	movl	4(%ecx), %ecx
	negl	%ecx
	addl	%ebx, %ecx
	movl	%edx, 8(%esp)
	movl	%eax, 4(%esp)
	movl	%ecx, (%esp)
	call	_memmove
	.loc 5 1610 0
	movl	-12(%ebp), %eax
	movl	4(%eax), %eax
	movl	%eax, %edx
	negl	%edx
	movl	8(%ebp), %eax
	addl	%edx, %eax
	jmp	L278
L276:
	.loc 5 1612 0
	movl	8(%ebp), %eax
L278:
	.loc 5 1613 0
	addl	$36, %esp
	popl	%ebx
	.cfi_restore 3
	popl	%ebp
LCFI203:
	.cfi_restore 5
	.cfi_def_cfa 4, 4
	ret	$4
	.cfi_endproc
LFE1232:
	.def	__ZN4pugi4impl12_GLOBAL__N_114strconv_escapeEPcRNS1_3gapE;	.scl	3;	.type	32;	.endef
__ZN4pugi4impl12_GLOBAL__N_114strconv_escapeEPcRNS1_3gapE:
LFB1233:
	.loc 5 1617 0
	.cfi_startproc
	pushl	%ebp
LCFI204:
	.cfi_def_cfa_offset 8
	.cfi_offset 5, -8
	movl	%esp, %ebp
LCFI205:
	.cfi_def_cfa_register 5
	subl	$40, %esp
LBB68:
	.loc 5 1618 0
	movl	8(%ebp), %eax
	incl	%eax
	movl	%eax, -12(%ebp)
LBB69:
	.loc 5 1620 0
	movl	-12(%ebp), %eax
	movb	(%eax), %al
	movsbl	%al, %eax
	cmpl	$103, %eax
	je	L283
	cmpl	$103, %eax
	jg	L286
	cmpl	$35, %eax
	je	L281
	cmpl	$97, %eax
	je	L282
	jmp	L280
L286:
	cmpl	$108, %eax
	je	L284
	cmpl	$113, %eax
	je	L285
	jmp	L280
L281:
LBB70:
LBB71:
	.loc 5 1624 0
	movl	$0, -16(%ebp)
LBB72:
	.loc 5 1626 0
	movl	-12(%ebp), %eax
	incl	%eax
	movb	(%eax), %al
	cmpb	$120, %al
	jne	L287
LBB73:
	.loc 5 1628 0
	addl	$2, -12(%ebp)
	.loc 5 1630 0
	movl	-12(%ebp), %eax
	movb	(%eax), %al
	movb	%al, -17(%ebp)
	.loc 5 1632 0
	cmpb	$59, -17(%ebp)
	jne	L288
	.loc 5 1632 0 is_stmt 0 discriminator 1
	movl	-12(%ebp), %eax
	jmp	L289
L288:
	.loc 5 1636 0 is_stmt 1
	movsbl	-17(%ebp), %eax
	subl	$48, %eax
	cmpl	$9, %eax
	ja	L290
	.loc 5 1637 0
	movl	-16(%ebp), %eax
	movl	%eax, %edx
	sall	$4, %edx
	movsbl	-17(%ebp), %eax
	addl	%edx, %eax
	subl	$48, %eax
	movl	%eax, -16(%ebp)
	jmp	L291
L290:
	.loc 5 1638 0
	movb	-17(%ebp), %al
	orl	$32, %eax
	movsbl	%al, %eax
	subl	$97, %eax
	cmpl	$5, %eax
	ja	L292
	.loc 5 1639 0
	movl	-16(%ebp), %eax
	movl	%eax, %edx
	sall	$4, %edx
	movb	-17(%ebp), %al
	orl	$32, %eax
	movsbl	%al, %eax
	addl	%edx, %eax
	subl	$87, %eax
	movl	%eax, -16(%ebp)
	jmp	L291
L292:
	.loc 5 1640 0
	cmpb	$59, -17(%ebp)
	je	L318
L293:
	.loc 5 1643 0
	movl	-12(%ebp), %eax
	jmp	L289
L291:
	.loc 5 1645 0
	incl	-12(%ebp)
	movl	-12(%ebp), %eax
	movb	(%eax), %al
	movb	%al, -17(%ebp)
	.loc 5 1634 0
	jmp	L288
L318:
	.loc 5 1641 0
	nop
L316:
	.loc 5 1648 0
	incl	-12(%ebp)
	jmp	L295
L287:
LBE73:
LBB74:
	.loc 5 1652 0
	incl	-12(%ebp)
	movl	-12(%ebp), %eax
	movb	(%eax), %al
	movb	%al, -18(%ebp)
	.loc 5 1654 0
	cmpb	$59, -18(%ebp)
	jne	L296
	.loc 5 1654 0 is_stmt 0 discriminator 1
	movl	-12(%ebp), %eax
	jmp	L289
L296:
	.loc 5 1658 0 is_stmt 1
	movsbl	-18(%ebp), %eax
	subl	$48, %eax
	cmpl	$9, %eax
	ja	L297
	.loc 5 1659 0
	movl	-16(%ebp), %edx
	movl	%edx, %eax
	sall	$2, %eax
	addl	%edx, %eax
	sall	%eax
	movl	%eax, %edx
	movsbl	-18(%ebp), %eax
	addl	%edx, %eax
	subl	$48, %eax
	movl	%eax, -16(%ebp)
	.loc 5 1665 0
	incl	-12(%ebp)
	movl	-12(%ebp), %eax
	movb	(%eax), %al
	movb	%al, -18(%ebp)
	.loc 5 1656 0
	jmp	L296
L297:
	.loc 5 1660 0
	cmpb	$59, -18(%ebp)
	je	L319
L298:
	.loc 5 1663 0
	movl	-12(%ebp), %eax
	jmp	L289
L319:
	.loc 5 1661 0
	nop
L317:
	.loc 5 1668 0
	incl	-12(%ebp)
L295:
LBE74:
LBE72:
	.loc 5 1674 0
	movl	8(%ebp), %eax
	movl	-16(%ebp), %edx
	movl	%edx, 4(%esp)
	movl	%eax, (%esp)
	call	__ZN4pugi4impl12_GLOBAL__N_111utf8_writer3anyEPhj
	movl	%eax, 8(%ebp)
	.loc 5 1677 0
	movl	-12(%ebp), %edx
	movl	8(%ebp), %eax
	movl	%edx, %ecx
	subl	%eax, %ecx
	movl	%ecx, %eax
	movl	%eax, %edx
	movl	12(%ebp), %eax
	movl	%edx, 4(%esp)
	leal	8(%ebp), %edx
	movl	%edx, (%esp)
	movl	%eax, %ecx
	call	__ZN4pugi4impl12_GLOBAL__N_13gap4pushERPcj
	subl	$8, %esp
	.loc 5 1678 0
	movl	-12(%ebp), %eax
	jmp	L289
L282:
LBE71:
	.loc 5 1683 0
	incl	-12(%ebp)
	.loc 5 1685 0
	movl	-12(%ebp), %eax
	movb	(%eax), %al
	cmpb	$109, %al
	jne	L300
	.loc 5 1687 0
	incl	-12(%ebp)
	movl	-12(%ebp), %eax
	movb	(%eax), %al
	cmpb	$112, %al
	jne	L301
	.loc 5 1687 0 is_stmt 0 discriminator 1
	incl	-12(%ebp)
	movl	-12(%ebp), %eax
	movb	(%eax), %al
	cmpb	$59, %al
	jne	L301
	.loc 5 1687 0 discriminator 3
	movb	$1, %al
	jmp	L302
L301:
	.loc 5 1687 0 discriminator 2
	movb	$0, %al
L302:
	.loc 5 1687 0 discriminator 4
	testb	%al, %al
	je	L320
	.loc 5 1689 0 is_stmt 1
	movl	8(%ebp), %eax
	movb	$38, (%eax)
	incl	%eax
	movl	%eax, 8(%ebp)
	.loc 5 1690 0
	incl	-12(%ebp)
	.loc 5 1692 0
	movl	-12(%ebp), %edx
	movl	8(%ebp), %eax
	movl	%edx, %ecx
	subl	%eax, %ecx
	movl	%ecx, %eax
	movl	%eax, %edx
	movl	12(%ebp), %eax
	movl	%edx, 4(%esp)
	leal	8(%ebp), %edx
	movl	%edx, (%esp)
	movl	%eax, %ecx
	call	__ZN4pugi4impl12_GLOBAL__N_13gap4pushERPcj
	subl	$8, %esp
	.loc 5 1693 0
	movl	-12(%ebp), %eax
	jmp	L289
L300:
	.loc 5 1696 0
	movl	-12(%ebp), %eax
	movb	(%eax), %al
	cmpb	$112, %al
	jne	L320
	.loc 5 1698 0
	incl	-12(%ebp)
	movl	-12(%ebp), %eax
	movb	(%eax), %al
	cmpb	$111, %al
	jne	L304
	.loc 5 1698 0 is_stmt 0 discriminator 1
	incl	-12(%ebp)
	movl	-12(%ebp), %eax
	movb	(%eax), %al
	cmpb	$115, %al
	jne	L304
	.loc 5 1698 0 discriminator 3
	incl	-12(%ebp)
	movl	-12(%ebp), %eax
	movb	(%eax), %al
	cmpb	$59, %al
	jne	L304
	.loc 5 1698 0 discriminator 4
	movb	$1, %al
	jmp	L305
L304:
	.loc 5 1698 0 discriminator 2
	movb	$0, %al
L305:
	.loc 5 1698 0 discriminator 5
	testb	%al, %al
	je	L320
	.loc 5 1700 0 is_stmt 1
	movl	8(%ebp), %eax
	movb	$39, (%eax)
	incl	%eax
	movl	%eax, 8(%ebp)
	.loc 5 1701 0
	incl	-12(%ebp)
	.loc 5 1703 0
	movl	-12(%ebp), %edx
	movl	8(%ebp), %eax
	movl	%edx, %ecx
	subl	%eax, %ecx
	movl	%ecx, %eax
	movl	%eax, %edx
	movl	12(%ebp), %eax
	movl	%edx, 4(%esp)
	leal	8(%ebp), %edx
	movl	%edx, (%esp)
	movl	%eax, %ecx
	call	__ZN4pugi4impl12_GLOBAL__N_13gap4pushERPcj
	subl	$8, %esp
	.loc 5 1704 0
	movl	-12(%ebp), %eax
	jmp	L289
L283:
	.loc 5 1712 0
	incl	-12(%ebp)
	movl	-12(%ebp), %eax
	movb	(%eax), %al
	cmpb	$116, %al
	jne	L307
	.loc 5 1712 0 is_stmt 0 discriminator 1
	incl	-12(%ebp)
	movl	-12(%ebp), %eax
	movb	(%eax), %al
	cmpb	$59, %al
	jne	L307
	.loc 5 1712 0 discriminator 3
	movb	$1, %al
	jmp	L308
L307:
	.loc 5 1712 0 discriminator 2
	movb	$0, %al
L308:
	.loc 5 1712 0 discriminator 4
	testb	%al, %al
	je	L321
	.loc 5 1714 0 is_stmt 1
	movl	8(%ebp), %eax
	movb	$62, (%eax)
	incl	%eax
	movl	%eax, 8(%ebp)
	.loc 5 1715 0
	incl	-12(%ebp)
	.loc 5 1717 0
	movl	-12(%ebp), %edx
	movl	8(%ebp), %eax
	movl	%edx, %ecx
	subl	%eax, %ecx
	movl	%ecx, %eax
	movl	%eax, %edx
	movl	12(%ebp), %eax
	movl	%edx, 4(%esp)
	leal	8(%ebp), %edx
	movl	%edx, (%esp)
	movl	%eax, %ecx
	call	__ZN4pugi4impl12_GLOBAL__N_13gap4pushERPcj
	subl	$8, %esp
	.loc 5 1718 0
	movl	-12(%ebp), %eax
	jmp	L289
L284:
	.loc 5 1725 0
	incl	-12(%ebp)
	movl	-12(%ebp), %eax
	movb	(%eax), %al
	cmpb	$116, %al
	jne	L310
	.loc 5 1725 0 is_stmt 0 discriminator 1
	incl	-12(%ebp)
	movl	-12(%ebp), %eax
	movb	(%eax), %al
	cmpb	$59, %al
	jne	L310
	.loc 5 1725 0 discriminator 3
	movb	$1, %al
	jmp	L311
L310:
	.loc 5 1725 0 discriminator 2
	movb	$0, %al
L311:
	.loc 5 1725 0 discriminator 4
	testb	%al, %al
	je	L322
	.loc 5 1727 0 is_stmt 1
	movl	8(%ebp), %eax
	movb	$60, (%eax)
	incl	%eax
	movl	%eax, 8(%ebp)
	.loc 5 1728 0
	incl	-12(%ebp)
	.loc 5 1730 0
	movl	-12(%ebp), %edx
	movl	8(%ebp), %eax
	movl	%edx, %ecx
	subl	%eax, %ecx
	movl	%ecx, %eax
	movl	%eax, %edx
	movl	12(%ebp), %eax
	movl	%edx, 4(%esp)
	leal	8(%ebp), %edx
	movl	%edx, (%esp)
	movl	%eax, %ecx
	call	__ZN4pugi4impl12_GLOBAL__N_13gap4pushERPcj
	subl	$8, %esp
	.loc 5 1731 0
	movl	-12(%ebp), %eax
	jmp	L289
L285:
	.loc 5 1738 0
	incl	-12(%ebp)
	movl	-12(%ebp), %eax
	movb	(%eax), %al
	cmpb	$117, %al
	jne	L313
	.loc 5 1738 0 is_stmt 0 discriminator 1
	incl	-12(%ebp)
	movl	-12(%ebp), %eax
	movb	(%eax), %al
	cmpb	$111, %al
	jne	L313
	.loc 5 1738 0 discriminator 3
	incl	-12(%ebp)
	movl	-12(%ebp), %eax
	movb	(%eax), %al
	cmpb	$116, %al
	jne	L313
	.loc 5 1738 0 discriminator 4
	incl	-12(%ebp)
	movl	-12(%ebp), %eax
	movb	(%eax), %al
	cmpb	$59, %al
	jne	L313
	.loc 5 1738 0 discriminator 5
	movb	$1, %al
	jmp	L314
L313:
	.loc 5 1738 0 discriminator 2
	movb	$0, %al
L314:
	.loc 5 1738 0 discriminator 6
	testb	%al, %al
	je	L323
	.loc 5 1740 0 is_stmt 1
	movl	8(%ebp), %eax
	movb	$34, (%eax)
	incl	%eax
	movl	%eax, 8(%ebp)
	.loc 5 1741 0
	incl	-12(%ebp)
	.loc 5 1743 0
	movl	-12(%ebp), %edx
	movl	8(%ebp), %eax
	movl	%edx, %ecx
	subl	%eax, %ecx
	movl	%ecx, %eax
	movl	%eax, %edx
	movl	12(%ebp), %eax
	movl	%edx, 4(%esp)
	leal	8(%ebp), %edx
	movl	%edx, (%esp)
	movl	%eax, %ecx
	call	__ZN4pugi4impl12_GLOBAL__N_13gap4pushERPcj
	subl	$8, %esp
	.loc 5 1744 0
	movl	-12(%ebp), %eax
	jmp	L289
L280:
	.loc 5 1750 0
	jmp	L306
L320:
	.loc 5 1707 0
	nop
	jmp	L306
L321:
	.loc 5 1720 0
	nop
	jmp	L306
L322:
	.loc 5 1733 0
	nop
	jmp	L306
L323:
	.loc 5 1746 0
	nop
L306:
LBE70:
LBE69:
	.loc 5 1753 0
	movl	-12(%ebp), %eax
L289:
LBE68:
	.loc 5 1754 0
	leave
LCFI206:
	.cfi_restore 5
	.cfi_def_cfa 4, 4
	ret
	.cfi_endproc
LFE1233:
	.def	__ZN4pugi4impl12_GLOBAL__N_115strconv_commentEPcc;	.scl	3;	.type	32;	.endef
__ZN4pugi4impl12_GLOBAL__N_115strconv_commentEPcc:
LFB1234:
	.loc 5 1760 0
	.cfi_startproc
	pushl	%ebp
LCFI207:
	.cfi_def_cfa_offset 8
	.cfi_offset 5, -8
	movl	%esp, %ebp
LCFI208:
	.cfi_def_cfa_register 5
	subl	$56, %esp
	movl	12(%ebp), %eax
	movb	%al, -28(%ebp)
LBB75:
	.loc 5 1761 0
	leal	-16(%ebp), %eax
	movl	%eax, %ecx
	call	__ZN4pugi4impl12_GLOBAL__N_13gapC1Ev
	.loc 5 1765 0
	jmp	L325
L337:
	.loc 5 1763 0
	nop
L335:
	.loc 5 1765 0
	jmp	L325
L326:
	.loc 5 1765 0 is_stmt 0 discriminator 2
	movl	8(%ebp), %eax
	incl	%eax
	movl	%eax, 8(%ebp)
L325:
	.loc 5 1765 0 discriminator 1
	movl	8(%ebp), %eax
	movb	(%eax), %al
	movzbl	%al, %eax
	movb	__ZN4pugi4impl12_GLOBAL__N_1L14chartype_tableE(%eax), %al
	movzbl	%al, %eax
	andl	$32, %eax
	testl	%eax, %eax
	sete	%al
	testb	%al, %al
	jne	L326
	.loc 5 1767 0 is_stmt 1
	movl	8(%ebp), %eax
	movb	(%eax), %al
	cmpb	$13, %al
	jne	L327
	.loc 5 1769 0
	movl	8(%ebp), %eax
	movb	$10, (%eax)
	incl	%eax
	movl	%eax, 8(%ebp)
	.loc 5 1771 0
	movl	8(%ebp), %eax
	movb	(%eax), %al
	cmpb	$10, %al
	jne	L337
	.loc 5 1771 0 is_stmt 0 discriminator 1
	leal	-16(%ebp), %eax
	movl	$1, 4(%esp)
	leal	8(%ebp), %edx
	movl	%edx, (%esp)
	movl	%eax, %ecx
	call	__ZN4pugi4impl12_GLOBAL__N_13gap4pushERPcj
	subl	$8, %esp
	.loc 5 1763 0 is_stmt 1 discriminator 1
	jmp	L337
L327:
	.loc 5 1773 0
	movl	8(%ebp), %eax
	movb	(%eax), %al
	cmpb	$45, %al
	jne	L329
	.loc 5 1773 0 is_stmt 0 discriminator 1
	movl	8(%ebp), %eax
	incl	%eax
	movb	(%eax), %al
	cmpb	$45, %al
	jne	L329
	.loc 5 1773 0 discriminator 2
	movl	8(%ebp), %eax
	addl	$2, %eax
	movb	(%eax), %al
	cmpb	$62, %al
	je	L330
	.loc 5 1773 0 discriminator 3
	movl	8(%ebp), %eax
	addl	$2, %eax
	movb	(%eax), %al
	testb	%al, %al
	jne	L329
	.loc 5 1773 0 discriminator 4
	cmpb	$62, -28(%ebp)
	jne	L329
L330:
	.loc 5 1775 0 is_stmt 1
	movl	8(%ebp), %edx
	leal	-16(%ebp), %eax
	movl	%edx, (%esp)
	movl	%eax, %ecx
	call	__ZN4pugi4impl12_GLOBAL__N_13gap5flushEPc
	subl	$4, %esp
	movb	$0, (%eax)
	.loc 5 1777 0
	movl	8(%ebp), %edx
	movl	8(%ebp), %eax
	addl	$2, %eax
	movb	(%eax), %al
	cmpb	$62, %al
	jne	L331
	.loc 5 1777 0 is_stmt 0 discriminator 1
	movl	$3, %eax
	jmp	L332
L331:
	.loc 5 1777 0 discriminator 2
	movl	$2, %eax
L332:
	.loc 5 1777 0 discriminator 3
	addl	%edx, %eax
	jmp	L336
L329:
	.loc 5 1779 0 is_stmt 1
	movl	8(%ebp), %eax
	movb	(%eax), %al
	testb	%al, %al
	jne	L334
	.loc 5 1781 0
	movl	$0, %eax
	jmp	L336
L334:
	.loc 5 1783 0
	movl	8(%ebp), %eax
	incl	%eax
	movl	%eax, 8(%ebp)
	.loc 5 1763 0
	jmp	L337
L336:
LBE75:
	.loc 5 1785 0
	leave
LCFI209:
	.cfi_restore 5
	.cfi_def_cfa 4, 4
	ret
	.cfi_endproc
LFE1234:
	.def	__ZN4pugi4impl12_GLOBAL__N_113strconv_cdataEPcc;	.scl	3;	.type	32;	.endef
__ZN4pugi4impl12_GLOBAL__N_113strconv_cdataEPcc:
LFB1235:
	.loc 5 1788 0
	.cfi_startproc
	pushl	%ebp
LCFI210:
	.cfi_def_cfa_offset 8
	.cfi_offset 5, -8
	movl	%esp, %ebp
LCFI211:
	.cfi_def_cfa_register 5
	subl	$56, %esp
	movl	12(%ebp), %eax
	movb	%al, -28(%ebp)
LBB76:
	.loc 5 1789 0
	leal	-16(%ebp), %eax
	movl	%eax, %ecx
	call	__ZN4pugi4impl12_GLOBAL__N_13gapC1Ev
	.loc 5 1793 0
	jmp	L339
L349:
	.loc 5 1791 0
	nop
L347:
	.loc 5 1793 0
	jmp	L339
L340:
	.loc 5 1793 0 is_stmt 0 discriminator 2
	movl	8(%ebp), %eax
	incl	%eax
	movl	%eax, 8(%ebp)
L339:
	.loc 5 1793 0 discriminator 1
	movl	8(%ebp), %eax
	movb	(%eax), %al
	movzbl	%al, %eax
	movb	__ZN4pugi4impl12_GLOBAL__N_1L14chartype_tableE(%eax), %al
	movzbl	%al, %eax
	andl	$16, %eax
	testl	%eax, %eax
	sete	%al
	testb	%al, %al
	jne	L340
	.loc 5 1795 0 is_stmt 1
	movl	8(%ebp), %eax
	movb	(%eax), %al
	cmpb	$13, %al
	jne	L341
	.loc 5 1797 0
	movl	8(%ebp), %eax
	movb	$10, (%eax)
	incl	%eax
	movl	%eax, 8(%ebp)
	.loc 5 1799 0
	movl	8(%ebp), %eax
	movb	(%eax), %al
	cmpb	$10, %al
	jne	L349
	.loc 5 1799 0 is_stmt 0 discriminator 1
	leal	-16(%ebp), %eax
	movl	$1, 4(%esp)
	leal	8(%ebp), %edx
	movl	%edx, (%esp)
	movl	%eax, %ecx
	call	__ZN4pugi4impl12_GLOBAL__N_13gap4pushERPcj
	subl	$8, %esp
	.loc 5 1791 0 is_stmt 1 discriminator 1
	jmp	L349
L341:
	.loc 5 1801 0
	movl	8(%ebp), %eax
	movb	(%eax), %al
	cmpb	$93, %al
	jne	L343
	.loc 5 1801 0 is_stmt 0 discriminator 1
	movl	8(%ebp), %eax
	incl	%eax
	movb	(%eax), %al
	cmpb	$93, %al
	jne	L343
	.loc 5 1801 0 discriminator 2
	movl	8(%ebp), %eax
	addl	$2, %eax
	movb	(%eax), %al
	cmpb	$62, %al
	je	L344
	.loc 5 1801 0 discriminator 3
	movl	8(%ebp), %eax
	addl	$2, %eax
	movb	(%eax), %al
	testb	%al, %al
	jne	L343
	.loc 5 1801 0 discriminator 4
	cmpb	$62, -28(%ebp)
	jne	L343
L344:
	.loc 5 1803 0 is_stmt 1
	movl	8(%ebp), %edx
	leal	-16(%ebp), %eax
	movl	%edx, (%esp)
	movl	%eax, %ecx
	call	__ZN4pugi4impl12_GLOBAL__N_13gap5flushEPc
	subl	$4, %esp
	movb	$0, (%eax)
	.loc 5 1805 0
	movl	8(%ebp), %eax
	incl	%eax
	jmp	L348
L343:
	.loc 5 1807 0
	movl	8(%ebp), %eax
	movb	(%eax), %al
	testb	%al, %al
	jne	L346
	.loc 5 1809 0
	movl	$0, %eax
	jmp	L348
L346:
	.loc 5 1811 0
	movl	8(%ebp), %eax
	incl	%eax
	movl	%eax, 8(%ebp)
	.loc 5 1791 0
	jmp	L349
L348:
LBE76:
	.loc 5 1813 0
	leave
LCFI212:
	.cfi_restore 5
	.cfi_def_cfa 4, 4
	ret
	.cfi_endproc
LFE1235:
	.def	__ZN4pugi4impl12_GLOBAL__N_118get_strconv_pcdataEj;	.scl	3;	.type	32;	.endef
__ZN4pugi4impl12_GLOBAL__N_118get_strconv_pcdataEj:
LFB1237:
	.loc 5 1853 0
	.cfi_startproc
	pushl	%ebp
LCFI213:
	.cfi_def_cfa_offset 8
	.cfi_offset 5, -8
	movl	%esp, %ebp
LCFI214:
	.cfi_def_cfa_register 5
LBB77:
	.loc 5 1856 0
	movl	8(%ebp), %eax
	shrl	$4, %eax
	andl	$3, %eax
	cmpl	$1, %eax
	je	L353
	cmpl	$1, %eax
	jb	L352
	cmpl	$2, %eax
	je	L354
	cmpl	$3, %eax
	je	L355
	jmp	L357
L352:
	.loc 5 1858 0
	movl	$__ZN4pugi4impl12_GLOBAL__N_119strconv_pcdata_implINS1_9opt_falseES3_E5parseEPc, %eax
	jmp	L356
L353:
	.loc 5 1859 0
	movl	$__ZN4pugi4impl12_GLOBAL__N_119strconv_pcdata_implINS1_9opt_falseENS1_8opt_trueEE5parseEPc, %eax
	jmp	L356
L354:
	.loc 5 1860 0
	movl	$__ZN4pugi4impl12_GLOBAL__N_119strconv_pcdata_implINS1_8opt_trueENS1_9opt_falseEE5parseEPc, %eax
	jmp	L356
L355:
	.loc 5 1861 0
	movl	$__ZN4pugi4impl12_GLOBAL__N_119strconv_pcdata_implINS1_8opt_trueES3_E5parseEPc, %eax
	jmp	L356
L357:
	.loc 5 1862 0
	movl	$0, %eax
L356:
LBE77:
	.loc 5 1864 0
	popl	%ebp
LCFI215:
	.cfi_restore 5
	.cfi_def_cfa 4, 4
	ret
	.cfi_endproc
LFE1237:
	.def	__ZN4pugi4impl12_GLOBAL__N_121get_strconv_attributeEj;	.scl	3;	.type	32;	.endef
__ZN4pugi4impl12_GLOBAL__N_121get_strconv_attributeEj:
LFB1242:
	.loc 5 2018 0
	.cfi_startproc
	pushl	%ebp
LCFI216:
	.cfi_def_cfa_offset 8
	.cfi_offset 5, -8
	movl	%esp, %ebp
LCFI217:
	.cfi_def_cfa_register 5
LBB78:
	.loc 5 2021 0
	movl	8(%ebp), %eax
	shrl	$4, %eax
	andl	$15, %eax
	cmpl	$15, %eax
	ja	L359
	movl	L376(,%eax,4), %eax
	jmp	*%eax
	.section .rdata,"dr"
	.align 4
L376:
	.long	L360
	.long	L361
	.long	L362
	.long	L363
	.long	L364
	.long	L365
	.long	L366
	.long	L367
	.long	L368
	.long	L369
	.long	L370
	.long	L371
	.long	L372
	.long	L373
	.long	L374
	.long	L375
	.text
L360:
	.loc 5 2023 0
	movl	$__ZN4pugi4impl12_GLOBAL__N_122strconv_attribute_implINS1_9opt_falseEE12parse_simpleEPcc, %eax
	jmp	L377
L361:
	.loc 5 2024 0
	movl	$__ZN4pugi4impl12_GLOBAL__N_122strconv_attribute_implINS1_8opt_trueEE12parse_simpleEPcc, %eax
	jmp	L377
L362:
	.loc 5 2025 0
	movl	$__ZN4pugi4impl12_GLOBAL__N_122strconv_attribute_implINS1_9opt_falseEE9parse_eolEPcc, %eax
	jmp	L377
L363:
	.loc 5 2026 0
	movl	$__ZN4pugi4impl12_GLOBAL__N_122strconv_attribute_implINS1_8opt_trueEE9parse_eolEPcc, %eax
	jmp	L377
L364:
	.loc 5 2027 0
	movl	$__ZN4pugi4impl12_GLOBAL__N_122strconv_attribute_implINS1_9opt_falseEE11parse_wconvEPcc, %eax
	jmp	L377
L365:
	.loc 5 2028 0
	movl	$__ZN4pugi4impl12_GLOBAL__N_122strconv_attribute_implINS1_8opt_trueEE11parse_wconvEPcc, %eax
	jmp	L377
L366:
	.loc 5 2029 0
	movl	$__ZN4pugi4impl12_GLOBAL__N_122strconv_attribute_implINS1_9opt_falseEE11parse_wconvEPcc, %eax
	jmp	L377
L367:
	.loc 5 2030 0
	movl	$__ZN4pugi4impl12_GLOBAL__N_122strconv_attribute_implINS1_8opt_trueEE11parse_wconvEPcc, %eax
	jmp	L377
L368:
	.loc 5 2031 0
	movl	$__ZN4pugi4impl12_GLOBAL__N_122strconv_attribute_implINS1_9opt_falseEE11parse_wnormEPcc, %eax
	jmp	L377
L369:
	.loc 5 2032 0
	movl	$__ZN4pugi4impl12_GLOBAL__N_122strconv_attribute_implINS1_8opt_trueEE11parse_wnormEPcc, %eax
	jmp	L377
L370:
	.loc 5 2033 0
	movl	$__ZN4pugi4impl12_GLOBAL__N_122strconv_attribute_implINS1_9opt_falseEE11parse_wnormEPcc, %eax
	jmp	L377
L371:
	.loc 5 2034 0
	movl	$__ZN4pugi4impl12_GLOBAL__N_122strconv_attribute_implINS1_8opt_trueEE11parse_wnormEPcc, %eax
	jmp	L377
L372:
	.loc 5 2035 0
	movl	$__ZN4pugi4impl12_GLOBAL__N_122strconv_attribute_implINS1_9opt_falseEE11parse_wnormEPcc, %eax
	jmp	L377
L373:
	.loc 5 2036 0
	movl	$__ZN4pugi4impl12_GLOBAL__N_122strconv_attribute_implINS1_8opt_trueEE11parse_wnormEPcc, %eax
	jmp	L377
L374:
	.loc 5 2037 0
	movl	$__ZN4pugi4impl12_GLOBAL__N_122strconv_attribute_implINS1_9opt_falseEE11parse_wnormEPcc, %eax
	jmp	L377
L375:
	.loc 5 2038 0
	movl	$__ZN4pugi4impl12_GLOBAL__N_122strconv_attribute_implINS1_8opt_trueEE11parse_wnormEPcc, %eax
	jmp	L377
L359:
	.loc 5 2039 0
	movl	$0, %eax
L377:
LBE78:
	.loc 5 2041 0
	popl	%ebp
LCFI218:
	.cfi_restore 5
	.cfi_def_cfa 4, 4
	ret
	.cfi_endproc
LFE1242:
	.def	__ZN4pugi4impl12_GLOBAL__N_117make_parse_resultENS_16xml_parse_statusEi;	.scl	3;	.type	32;	.endef
__ZN4pugi4impl12_GLOBAL__N_117make_parse_resultENS_16xml_parse_statusEi:
LFB1243:
	.loc 5 2044 0
	.cfi_startproc
	pushl	%ebp
LCFI219:
	.cfi_def_cfa_offset 8
	.cfi_offset 5, -8
	movl	%esp, %ebp
LCFI220:
	.cfi_def_cfa_register 5
	subl	$8, %esp
LBB79:
	.loc 5 2045 0
	movl	8(%ebp), %ecx
	call	__ZN4pugi16xml_parse_resultC1Ev
	.loc 5 2046 0
	movl	8(%ebp), %eax
	movl	12(%ebp), %edx
	movl	%edx, (%eax)
	.loc 5 2047 0
	movl	8(%ebp), %eax
	movl	16(%ebp), %edx
	movl	%edx, 4(%eax)
	.loc 5 2049 0
	nop
LBE79:
	.loc 5 2050 0
	movl	8(%ebp), %eax
	leave
LCFI221:
	.cfi_restore 5
	.cfi_def_cfa 4, 4
	ret
	.cfi_endproc
LFE1243:
	.align 2
	.def	__ZN4pugi4impl12_GLOBAL__N_110xml_parserC2ERKNS1_13xml_allocatorE;	.scl	3;	.type	32;	.endef
__ZN4pugi4impl12_GLOBAL__N_110xml_parserC2ERKNS1_13xml_allocatorE:
LFB1245:
	.loc 5 2069 0
	.cfi_startproc
	pushl	%ebp
LCFI222:
	.cfi_def_cfa_offset 8
	.cfi_offset 5, -8
	movl	%esp, %ebp
LCFI223:
	.cfi_def_cfa_register 5
	subl	$4, %esp
	movl	%ecx, -4(%ebp)
LBB80:
	.loc 5 2069 0
	movl	-4(%ebp), %ecx
	movl	8(%ebp), %eax
	movl	4(%eax), %edx
	movl	(%eax), %eax
	movl	%eax, (%ecx)
	movl	%edx, 4(%ecx)
	movl	-4(%ebp), %eax
	movl	$0, 8(%eax)
	movl	-4(%ebp), %eax
	movl	$0, 12(%eax)
LBE80:
	.loc 5 2071 0
	leave
LCFI224:
	.cfi_restore 5
	.cfi_def_cfa 4, 4
	ret	$4
	.cfi_endproc
LFE1245:
	.def	__ZN4pugi4impl12_GLOBAL__N_110xml_parserC1ERKNS1_13xml_allocatorE;	.scl	3;	.type	32;	.endef
	.set	__ZN4pugi4impl12_GLOBAL__N_110xml_parserC1ERKNS1_13xml_allocatorE,__ZN4pugi4impl12_GLOBAL__N_110xml_parserC2ERKNS1_13xml_allocatorE
	.align 2
	.def	__ZN4pugi4impl12_GLOBAL__N_110xml_parser23parse_doctype_primitiveEPc;	.scl	3;	.type	32;	.endef
__ZN4pugi4impl12_GLOBAL__N_110xml_parser23parse_doctype_primitiveEPc:
LFB1247:
	.loc 5 2080 0
	.cfi_startproc
	pushl	%ebp
LCFI225:
	.cfi_def_cfa_offset 8
	.cfi_offset 5, -8
	movl	%esp, %ebp
LCFI226:
	.cfi_def_cfa_register 5
	subl	$20, %esp
	movl	%ecx, -20(%ebp)
LBB81:
LBB82:
	.loc 5 2082 0
	movl	8(%ebp), %eax
	movb	(%eax), %al
	cmpb	$34, %al
	je	L382
	.loc 5 2082 0 is_stmt 0 discriminator 1
	movl	8(%ebp), %eax
	movb	(%eax), %al
	cmpb	$39, %al
	jne	L383
L382:
LBB83:
	.loc 5 2085 0 is_stmt 1
	movl	8(%ebp), %eax
	movb	(%eax), %al
	movb	%al, -1(%ebp)
	incl	8(%ebp)
	.loc 5 2086 0
	jmp	L384
L387:
	.loc 5 2086 0 is_stmt 0 discriminator 6
	incl	8(%ebp)
L384:
	.loc 5 2086 0 discriminator 1
	movl	8(%ebp), %eax
	movb	(%eax), %al
	testb	%al, %al
	je	L385
	.loc 5 2086 0 discriminator 2
	movl	8(%ebp), %eax
	movb	(%eax), %al
	cmpb	-1(%ebp), %al
	je	L385
	.loc 5 2086 0 discriminator 4
	movb	$1, %al
	jmp	L386
L385:
	.loc 5 2086 0 discriminator 3
	movb	$0, %al
L386:
	.loc 5 2086 0 discriminator 5
	testb	%al, %al
	jne	L387
	.loc 5 2087 0 is_stmt 1
	movl	8(%ebp), %eax
	movb	(%eax), %al
	testb	%al, %al
	jne	L388
	.loc 5 2087 0 is_stmt 0 discriminator 1
	movl	-20(%ebp), %eax
	movl	8(%ebp), %edx
	movl	%edx, 8(%eax)
	movl	-20(%ebp), %eax
	movl	$9, 12(%eax)
	movl	$0, %eax
	jmp	L389
L388:
	.loc 5 2089 0 is_stmt 1
	incl	8(%ebp)
LBE83:
	jmp	L390
L383:
	.loc 5 2091 0
	movl	8(%ebp), %eax
	movb	(%eax), %al
	cmpb	$60, %al
	jne	L391
	.loc 5 2091 0 is_stmt 0 discriminator 1
	movl	8(%ebp), %eax
	incl	%eax
	movb	(%eax), %al
	cmpb	$63, %al
	jne	L391
	.loc 5 2094 0 is_stmt 1
	addl	$2, 8(%ebp)
	.loc 5 2095 0
	jmp	L392
L396:
	.loc 5 2095 0 is_stmt 0 discriminator 7
	incl	8(%ebp)
L392:
	.loc 5 2095 0 discriminator 1
	movl	8(%ebp), %eax
	movb	(%eax), %al
	testb	%al, %al
	je	L393
	.loc 5 2095 0 discriminator 2
	movl	8(%ebp), %eax
	movb	(%eax), %al
	cmpb	$63, %al
	jne	L394
	.loc 5 2095 0 discriminator 5
	movl	8(%ebp), %eax
	incl	%eax
	movb	(%eax), %al
	cmpb	$62, %al
	je	L393
L394:
	.loc 5 2095 0 discriminator 4
	movb	$1, %al
	jmp	L395
L393:
	.loc 5 2095 0 discriminator 3
	movb	$0, %al
L395:
	.loc 5 2095 0 discriminator 6
	testb	%al, %al
	jne	L396
	.loc 5 2096 0 is_stmt 1
	movl	8(%ebp), %eax
	movb	(%eax), %al
	testb	%al, %al
	jne	L397
	.loc 5 2096 0 is_stmt 0 discriminator 1
	movl	-20(%ebp), %eax
	movl	8(%ebp), %edx
	movl	%edx, 8(%eax)
	movl	-20(%ebp), %eax
	movl	$9, 12(%eax)
	movl	$0, %eax
	jmp	L389
L397:
	.loc 5 2098 0 is_stmt 1
	addl	$2, 8(%ebp)
	jmp	L390
L391:
	.loc 5 2100 0
	movl	8(%ebp), %eax
	movb	(%eax), %al
	cmpb	$60, %al
	jne	L398
	.loc 5 2100 0 is_stmt 0 discriminator 1
	movl	8(%ebp), %eax
	incl	%eax
	movb	(%eax), %al
	cmpb	$33, %al
	jne	L398
	.loc 5 2100 0 discriminator 2
	movl	8(%ebp), %eax
	addl	$2, %eax
	movb	(%eax), %al
	cmpb	$45, %al
	jne	L398
	.loc 5 2100 0 discriminator 3
	movl	8(%ebp), %eax
	addl	$3, %eax
	movb	(%eax), %al
	cmpb	$45, %al
	jne	L398
	.loc 5 2102 0 is_stmt 1
	addl	$4, 8(%ebp)
	.loc 5 2103 0
	jmp	L399
L403:
	.loc 5 2103 0 is_stmt 0 discriminator 8
	incl	8(%ebp)
L399:
	.loc 5 2103 0 discriminator 1
	movl	8(%ebp), %eax
	movb	(%eax), %al
	testb	%al, %al
	je	L400
	.loc 5 2103 0 discriminator 2
	movl	8(%ebp), %eax
	movb	(%eax), %al
	cmpb	$45, %al
	jne	L401
	.loc 5 2103 0 discriminator 5
	movl	8(%ebp), %eax
	incl	%eax
	movb	(%eax), %al
	cmpb	$45, %al
	jne	L401
	.loc 5 2103 0 discriminator 6
	movl	8(%ebp), %eax
	addl	$2, %eax
	movb	(%eax), %al
	cmpb	$62, %al
	je	L400
L401:
	.loc 5 2103 0 discriminator 4
	movb	$1, %al
	jmp	L402
L400:
	.loc 5 2103 0 discriminator 3
	movb	$0, %al
L402:
	.loc 5 2103 0 discriminator 7
	testb	%al, %al
	jne	L403
	.loc 5 2104 0 is_stmt 1
	movl	8(%ebp), %eax
	movb	(%eax), %al
	testb	%al, %al
	jne	L404
	.loc 5 2104 0 is_stmt 0 discriminator 1
	movl	-20(%ebp), %eax
	movl	8(%ebp), %edx
	movl	%edx, 8(%eax)
	movl	-20(%ebp), %eax
	movl	$9, 12(%eax)
	movl	$0, %eax
	jmp	L389
L404:
	.loc 5 2106 0 is_stmt 1
	addl	$4, 8(%ebp)
	jmp	L390
L398:
	.loc 5 2108 0
	movl	-20(%ebp), %eax
	movl	8(%ebp), %edx
	movl	%edx, 8(%eax)
	movl	-20(%ebp), %eax
	movl	$9, 12(%eax)
	movl	$0, %eax
	jmp	L389
L390:
LBE82:
	.loc 5 2110 0
	movl	8(%ebp), %eax
L389:
LBE81:
	.loc 5 2111 0
	leave
LCFI227:
	.cfi_restore 5
	.cfi_def_cfa 4, 4
	ret	$4
	.cfi_endproc
LFE1247:
	.section .rdata,"dr"
	.align 4
LC19:
	.ascii "s[0] == '<' && s[1] == '!' && s[2] == '['\0"
	.text
	.align 2
	.def	__ZN4pugi4impl12_GLOBAL__N_110xml_parser20parse_doctype_ignoreEPc;	.scl	3;	.type	32;	.endef
__ZN4pugi4impl12_GLOBAL__N_110xml_parser20parse_doctype_ignoreEPc:
LFB1248:
	.loc 5 2113 0
	.cfi_startproc
	pushl	%ebp
LCFI228:
	.cfi_def_cfa_offset 8
	.cfi_offset 5, -8
	movl	%esp, %ebp
LCFI229:
	.cfi_def_cfa_register 5
	subl	$40, %esp
	movl	%ecx, -12(%ebp)
	.loc 5 2115 0
	movl	8(%ebp), %eax
	movb	(%eax), %al
	cmpb	$60, %al
	jne	L406
	.loc 5 2115 0 is_stmt 0 discriminator 2
	movl	8(%ebp), %eax
	incl	%eax
	movb	(%eax), %al
	cmpb	$33, %al
	jne	L406
	.loc 5 2115 0 discriminator 3
	movl	8(%ebp), %eax
	addl	$2, %eax
	movb	(%eax), %al
	cmpb	$91, %al
	je	L407
L406:
	.loc 5 2115 0 discriminator 1
	movl	$2115, 8(%esp)
	movl	$LC0, 4(%esp)
	movl	$LC19, (%esp)
	call	__assert
L407:
	.loc 5 2116 0 is_stmt 1
	incl	8(%ebp)
	.loc 5 2118 0
	jmp	L408
L413:
	.loc 5 2120 0
	movl	8(%ebp), %eax
	movb	(%eax), %al
	cmpb	$60, %al
	jne	L409
	.loc 5 2120 0 is_stmt 0 discriminator 1
	movl	8(%ebp), %eax
	incl	%eax
	movb	(%eax), %al
	cmpb	$33, %al
	jne	L409
	.loc 5 2120 0 discriminator 2
	movl	8(%ebp), %eax
	addl	$2, %eax
	movb	(%eax), %al
	cmpb	$91, %al
	jne	L409
	.loc 5 2123 0 is_stmt 1
	movl	-12(%ebp), %eax
	movl	8(%ebp), %edx
	movl	%edx, (%esp)
	movl	%eax, %ecx
	call	__ZN4pugi4impl12_GLOBAL__N_110xml_parser20parse_doctype_ignoreEPc
	subl	$4, %esp
	movl	%eax, 8(%ebp)
	.loc 5 2124 0
	cmpl	$0, 8(%ebp)
	jne	L408
	.loc 5 2124 0 is_stmt 0 discriminator 1
	movl	8(%ebp), %eax
	jmp	L411
L409:
	.loc 5 2126 0 is_stmt 1
	movl	8(%ebp), %eax
	movb	(%eax), %al
	cmpb	$93, %al
	jne	L412
	.loc 5 2126 0 is_stmt 0 discriminator 1
	movl	8(%ebp), %eax
	incl	%eax
	movb	(%eax), %al
	cmpb	$93, %al
	jne	L412
	.loc 5 2126 0 discriminator 2
	movl	8(%ebp), %eax
	addl	$2, %eax
	movb	(%eax), %al
	cmpb	$62, %al
	jne	L412
	.loc 5 2129 0 is_stmt 1
	addl	$3, 8(%ebp)
	.loc 5 2131 0
	movl	8(%ebp), %eax
	jmp	L411
L412:
	.loc 5 2133 0
	incl	8(%ebp)
L408:
	.loc 5 2118 0 discriminator 1
	movl	8(%ebp), %eax
	movb	(%eax), %al
	testb	%al, %al
	setne	%al
	testb	%al, %al
	jne	L413
	.loc 5 2136 0
	movl	-12(%ebp), %eax
	movl	8(%ebp), %edx
	movl	%edx, 8(%eax)
	movl	-12(%ebp), %eax
	movl	$9, 12(%eax)
	movl	$0, %eax
L411:
	.loc 5 2137 0
	leave
LCFI230:
	.cfi_restore 5
	.cfi_def_cfa 4, 4
	ret	$4
	.cfi_endproc
LFE1248:
	.section .rdata,"dr"
LC20:
	.ascii "s[0] == '<' && s[1] == '!'\0"
	.text
	.align 2
	.def	__ZN4pugi4impl12_GLOBAL__N_110xml_parser19parse_doctype_groupEPccb;	.scl	3;	.type	32;	.endef
__ZN4pugi4impl12_GLOBAL__N_110xml_parser19parse_doctype_groupEPccb:
LFB1249:
	.loc 5 2139 0
	.cfi_startproc
	pushl	%ebp
LCFI231:
	.cfi_def_cfa_offset 8
	.cfi_offset 5, -8
	movl	%esp, %ebp
LCFI232:
	.cfi_def_cfa_register 5
	subl	$40, %esp
	movl	%ecx, -12(%ebp)
	movl	12(%ebp), %edx
	movl	16(%ebp), %eax
	movb	%dl, -16(%ebp)
	movb	%al, -20(%ebp)
	.loc 5 2141 0
	movl	8(%ebp), %eax
	movb	(%eax), %al
	cmpb	$60, %al
	jne	L415
	.loc 5 2141 0 is_stmt 0 discriminator 2
	movl	8(%ebp), %eax
	incl	%eax
	movb	(%eax), %al
	cmpb	$33, %al
	je	L416
L415:
	.loc 5 2141 0 discriminator 1
	movl	$2141, 8(%esp)
	movl	$LC0, 4(%esp)
	movl	$LC20, (%esp)
	call	__assert
L416:
	.loc 5 2142 0 is_stmt 1
	incl	8(%ebp)
	.loc 5 2144 0
	jmp	L417
L426:
	.loc 5 2146 0
	movl	8(%ebp), %eax
	movb	(%eax), %al
	cmpb	$60, %al
	jne	L418
	.loc 5 2146 0 is_stmt 0 discriminator 1
	movl	8(%ebp), %eax
	incl	%eax
	movb	(%eax), %al
	cmpb	$33, %al
	jne	L418
	.loc 5 2146 0 discriminator 2
	movl	8(%ebp), %eax
	addl	$2, %eax
	movb	(%eax), %al
	cmpb	$45, %al
	je	L418
	.loc 5 2148 0 is_stmt 1
	movl	8(%ebp), %eax
	addl	$2, %eax
	movb	(%eax), %al
	cmpb	$91, %al
	jne	L419
	.loc 5 2151 0
	movl	-12(%ebp), %eax
	movl	8(%ebp), %edx
	movl	%edx, (%esp)
	movl	%eax, %ecx
	call	__ZN4pugi4impl12_GLOBAL__N_110xml_parser20parse_doctype_ignoreEPc
	subl	$4, %esp
	movl	%eax, 8(%ebp)
	.loc 5 2152 0
	cmpl	$0, 8(%ebp)
	jne	L429
	.loc 5 2152 0 is_stmt 0 discriminator 1
	movl	8(%ebp), %eax
	jmp	L421
L419:
	.loc 5 2157 0 is_stmt 1
	movsbl	-16(%ebp), %edx
	movl	-12(%ebp), %eax
	movl	$0, 8(%esp)
	movl	%edx, 4(%esp)
	movl	8(%ebp), %edx
	movl	%edx, (%esp)
	movl	%eax, %ecx
	call	__ZN4pugi4impl12_GLOBAL__N_110xml_parser19parse_doctype_groupEPccb
	subl	$12, %esp
	movl	%eax, 8(%ebp)
	.loc 5 2158 0
	cmpl	$0, 8(%ebp)
	jne	L429
	.loc 5 2158 0 is_stmt 0 discriminator 1
	movl	8(%ebp), %eax
	jmp	L421
L418:
	.loc 5 2161 0 is_stmt 1
	movl	8(%ebp), %eax
	movb	(%eax), %al
	cmpb	$60, %al
	je	L422
	.loc 5 2161 0 is_stmt 0 discriminator 1
	movl	8(%ebp), %eax
	movb	(%eax), %al
	cmpb	$34, %al
	je	L422
	.loc 5 2161 0 discriminator 2
	movl	8(%ebp), %eax
	movb	(%eax), %al
	cmpb	$39, %al
	jne	L423
L422:
	.loc 5 2164 0 is_stmt 1
	movl	-12(%ebp), %eax
	movl	8(%ebp), %edx
	movl	%edx, (%esp)
	movl	%eax, %ecx
	call	__ZN4pugi4impl12_GLOBAL__N_110xml_parser23parse_doctype_primitiveEPc
	subl	$4, %esp
	movl	%eax, 8(%ebp)
	.loc 5 2165 0
	cmpl	$0, 8(%ebp)
	jne	L417
	.loc 5 2165 0 is_stmt 0 discriminator 1
	movl	8(%ebp), %eax
	jmp	L421
L423:
	.loc 5 2167 0 is_stmt 1
	movl	8(%ebp), %eax
	movb	(%eax), %al
	cmpb	$62, %al
	jne	L425
	.loc 5 2169 0
	incl	8(%ebp)
	.loc 5 2171 0
	movl	8(%ebp), %eax
	jmp	L421
L425:
	.loc 5 2173 0
	incl	8(%ebp)
	jmp	L417
L429:
	.loc 5 2148 0
	nop
L417:
	.loc 5 2144 0 discriminator 1
	movl	8(%ebp), %eax
	movb	(%eax), %al
	testb	%al, %al
	setne	%al
	testb	%al, %al
	jne	L426
	.loc 5 2176 0
	movb	-20(%ebp), %al
	xorl	$1, %eax
	testb	%al, %al
	jne	L427
	.loc 5 2176 0 is_stmt 0 discriminator 2
	cmpb	$62, -16(%ebp)
	je	L428
L427:
	.loc 5 2176 0 discriminator 1
	movl	-12(%ebp), %eax
	movl	8(%ebp), %edx
	movl	%edx, 8(%eax)
	movl	-12(%ebp), %eax
	movl	$9, 12(%eax)
	movl	$0, %eax
	jmp	L421
L428:
	.loc 5 2178 0 is_stmt 1
	movl	8(%ebp), %eax
L421:
	.loc 5 2179 0
	leave
LCFI233:
	.cfi_restore 5
	.cfi_def_cfa 4, 4
	ret	$12
	.cfi_endproc
LFE1249:
	.section .rdata,"dr"
	.align 4
LC21:
	.ascii "(s[0] == 0 && endch == '>') || s[-1] == '>'\0"
	.text
	.align 2
	.def	__ZN4pugi4impl12_GLOBAL__N_110xml_parser17parse_exclamationEPcPNS_15xml_node_structEjc;	.scl	3;	.type	32;	.endef
__ZN4pugi4impl12_GLOBAL__N_110xml_parser17parse_exclamationEPcPNS_15xml_node_structEjc:
LFB1250:
	.loc 5 2181 0
	.cfi_startproc
	pushl	%ebp
LCFI234:
	.cfi_def_cfa_offset 8
	.cfi_offset 5, -8
	movl	%esp, %ebp
LCFI235:
	.cfi_def_cfa_register 5
	subl	$56, %esp
	movl	%ecx, -28(%ebp)
	movl	20(%ebp), %eax
	movb	%al, -32(%ebp)
LBB84:
	.loc 5 2184 0
	incl	8(%ebp)
LBB85:
	.loc 5 2186 0
	movl	8(%ebp), %eax
	movb	(%eax), %al
	cmpb	$45, %al
	jne	L431
	.loc 5 2188 0
	incl	8(%ebp)
	.loc 5 2190 0
	movl	8(%ebp), %eax
	movb	(%eax), %al
	cmpb	$45, %al
	jne	L432
	.loc 5 2192 0
	incl	8(%ebp)
	.loc 5 2194 0
	movl	16(%ebp), %eax
	andl	$2, %eax
	testl	%eax, %eax
	je	L433
	.loc 5 2196 0
	movl	-28(%ebp), %eax
	movl	$5, 8(%esp)
	movl	%eax, 4(%esp)
	movl	12(%ebp), %eax
	movl	%eax, (%esp)
	call	__ZN4pugi4impl12_GLOBAL__N_111append_nodeEPNS_15xml_node_structERNS1_13xml_allocatorENS_13xml_node_typeE
	movl	%eax, 12(%ebp)
	cmpl	$0, 12(%ebp)
	jne	L434
	.loc 5 2196 0 is_stmt 0 discriminator 1
	movl	-28(%ebp), %eax
	movl	8(%ebp), %edx
	movl	%edx, 8(%eax)
	movl	-28(%ebp), %eax
	movl	$3, 12(%eax)
	movl	$0, %eax
	jmp	L435
L434:
	.loc 5 2197 0 is_stmt 1
	movl	12(%ebp), %eax
	movl	8(%ebp), %edx
	movl	%edx, 12(%eax)
L433:
	.loc 5 2200 0
	movl	16(%ebp), %eax
	andl	$32, %eax
	testl	%eax, %eax
	je	L439
	.loc 5 2200 0 is_stmt 0 discriminator 1
	movl	16(%ebp), %eax
	andl	$2, %eax
	testl	%eax, %eax
	je	L439
	.loc 5 2202 0 is_stmt 1
	movsbl	-32(%ebp), %eax
	movl	%eax, 4(%esp)
	movl	8(%ebp), %eax
	movl	%eax, (%esp)
	call	__ZN4pugi4impl12_GLOBAL__N_115strconv_commentEPcc
	movl	%eax, 8(%ebp)
	.loc 5 2204 0
	cmpl	$0, 8(%ebp)
	jne	L448
	.loc 5 2204 0 is_stmt 0 discriminator 1
	movl	12(%ebp), %eax
	movl	12(%eax), %edx
	movl	-28(%ebp), %eax
	movl	%edx, 8(%eax)
	movl	-28(%ebp), %eax
	movl	$7, 12(%eax)
	movl	$0, %eax
	jmp	L435
L443:
	.loc 5 2209 0 is_stmt 1 discriminator 10
	incl	8(%ebp)
L439:
	.loc 5 2209 0 is_stmt 0 discriminator 1
	movl	8(%ebp), %eax
	movb	(%eax), %al
	testb	%al, %al
	je	L440
	.loc 5 2209 0 discriminator 2
	movl	8(%ebp), %eax
	movb	(%eax), %al
	cmpb	$45, %al
	jne	L441
	.loc 5 2209 0 discriminator 5
	movl	8(%ebp), %eax
	incl	%eax
	movb	(%eax), %al
	cmpb	$45, %al
	jne	L441
	.loc 5 2209 0 discriminator 6
	movl	8(%ebp), %eax
	addl	$2, %eax
	movb	(%eax), %al
	cmpb	$62, %al
	je	L440
	.loc 5 2209 0 discriminator 7
	movl	8(%ebp), %eax
	addl	$2, %eax
	movb	(%eax), %al
	testb	%al, %al
	jne	L441
	.loc 5 2209 0 discriminator 8
	cmpb	$62, -32(%ebp)
	je	L440
L441:
	.loc 5 2209 0 discriminator 4
	movb	$1, %al
	jmp	L442
L440:
	.loc 5 2209 0 discriminator 3
	movb	$0, %al
L442:
	.loc 5 2209 0 discriminator 9
	testb	%al, %al
	jne	L443
	.loc 5 2210 0 is_stmt 1
	movl	8(%ebp), %eax
	movb	(%eax), %al
	testb	%al, %al
	jne	L444
	.loc 5 2210 0 is_stmt 0 discriminator 1
	movl	-28(%ebp), %eax
	movl	8(%ebp), %edx
	movl	%edx, 8(%eax)
	movl	-28(%ebp), %eax
	movl	$7, 12(%eax)
	movl	$0, %eax
	jmp	L435
L444:
	.loc 5 2212 0 is_stmt 1
	movl	16(%ebp), %eax
	andl	$2, %eax
	testl	%eax, %eax
	je	L445
	.loc 5 2213 0
	movl	8(%ebp), %eax
	movb	$0, (%eax)
L445:
	.loc 5 2215 0
	movl	8(%ebp), %eax
	addl	$2, %eax
	movb	(%eax), %al
	cmpb	$62, %al
	jne	L446
	.loc 5 2215 0 is_stmt 0 discriminator 1
	movl	$3, %eax
	jmp	L447
L446:
	.loc 5 2215 0 discriminator 2
	movl	$2, %eax
L447:
	.loc 5 2215 0 discriminator 3
	addl	%eax, 8(%ebp)
	jmp	L448
L432:
	.loc 5 2218 0 is_stmt 1
	movl	-28(%ebp), %eax
	movl	8(%ebp), %edx
	movl	%edx, 8(%eax)
	movl	-28(%ebp), %eax
	movl	$7, 12(%eax)
	movl	$0, %eax
	jmp	L435
L431:
LBB86:
LBB87:
	.loc 5 2220 0
	movl	8(%ebp), %eax
	movb	(%eax), %al
	cmpb	$91, %al
	jne	L449
	.loc 5 2223 0
	incl	8(%ebp)
	movl	8(%ebp), %eax
	movb	(%eax), %al
	cmpb	$67, %al
	jne	L450
	.loc 5 2223 0 is_stmt 0 discriminator 1
	incl	8(%ebp)
	movl	8(%ebp), %eax
	movb	(%eax), %al
	cmpb	$68, %al
	jne	L450
	.loc 5 2223 0 discriminator 3
	incl	8(%ebp)
	movl	8(%ebp), %eax
	movb	(%eax), %al
	cmpb	$65, %al
	jne	L450
	.loc 5 2223 0 discriminator 4
	incl	8(%ebp)
	movl	8(%ebp), %eax
	movb	(%eax), %al
	cmpb	$84, %al
	jne	L450
	.loc 5 2223 0 discriminator 5
	incl	8(%ebp)
	movl	8(%ebp), %eax
	movb	(%eax), %al
	cmpb	$65, %al
	jne	L450
	.loc 5 2223 0 discriminator 6
	incl	8(%ebp)
	movl	8(%ebp), %eax
	movb	(%eax), %al
	cmpb	$91, %al
	jne	L450
	.loc 5 2223 0 discriminator 7
	movb	$1, %al
	jmp	L451
L450:
	.loc 5 2223 0 discriminator 2
	movb	$0, %al
L451:
	.loc 5 2223 0 discriminator 8
	testb	%al, %al
	je	L452
	.loc 5 2225 0 is_stmt 1
	incl	8(%ebp)
	.loc 5 2227 0
	movl	16(%ebp), %eax
	andl	$4, %eax
	testl	%eax, %eax
	je	L463
	.loc 5 2229 0
	movl	-28(%ebp), %eax
	movl	$4, 8(%esp)
	movl	%eax, 4(%esp)
	movl	12(%ebp), %eax
	movl	%eax, (%esp)
	call	__ZN4pugi4impl12_GLOBAL__N_111append_nodeEPNS_15xml_node_structERNS1_13xml_allocatorENS_13xml_node_typeE
	movl	%eax, 12(%ebp)
	cmpl	$0, 12(%ebp)
	jne	L454
	.loc 5 2229 0 is_stmt 0 discriminator 1
	movl	-28(%ebp), %eax
	movl	8(%ebp), %edx
	movl	%edx, 8(%eax)
	movl	-28(%ebp), %eax
	movl	$3, 12(%eax)
	movl	$0, %eax
	jmp	L435
L454:
	.loc 5 2230 0 is_stmt 1
	movl	12(%ebp), %eax
	movl	8(%ebp), %edx
	movl	%edx, 12(%eax)
	.loc 5 2232 0
	movl	16(%ebp), %eax
	andl	$32, %eax
	testl	%eax, %eax
	je	L457
	.loc 5 2234 0
	movsbl	-32(%ebp), %eax
	movl	%eax, 4(%esp)
	movl	8(%ebp), %eax
	movl	%eax, (%esp)
	call	__ZN4pugi4impl12_GLOBAL__N_113strconv_cdataEPcc
	movl	%eax, 8(%ebp)
	.loc 5 2236 0
	cmpl	$0, 8(%ebp)
	jne	L456
	.loc 5 2236 0 is_stmt 0 discriminator 1
	movl	12(%ebp), %eax
	movl	12(%eax), %edx
	movl	-28(%ebp), %eax
	movl	%edx, 8(%eax)
	movl	-28(%ebp), %eax
	movl	$8, 12(%eax)
	movl	$0, %eax
	jmp	L435
L461:
	.loc 5 2241 0 is_stmt 1 discriminator 10
	incl	8(%ebp)
L457:
	.loc 5 2241 0 is_stmt 0 discriminator 1
	movl	8(%ebp), %eax
	movb	(%eax), %al
	testb	%al, %al
	je	L458
	.loc 5 2241 0 discriminator 2
	movl	8(%ebp), %eax
	movb	(%eax), %al
	cmpb	$93, %al
	jne	L459
	.loc 5 2241 0 discriminator 5
	movl	8(%ebp), %eax
	incl	%eax
	movb	(%eax), %al
	cmpb	$93, %al
	jne	L459
	.loc 5 2241 0 discriminator 6
	movl	8(%ebp), %eax
	addl	$2, %eax
	movb	(%eax), %al
	cmpb	$62, %al
	je	L458
	.loc 5 2241 0 discriminator 7
	movl	8(%ebp), %eax
	addl	$2, %eax
	movb	(%eax), %al
	testb	%al, %al
	jne	L459
	.loc 5 2241 0 discriminator 8
	cmpb	$62, -32(%ebp)
	je	L458
L459:
	.loc 5 2241 0 discriminator 4
	movb	$1, %al
	jmp	L460
L458:
	.loc 5 2241 0 discriminator 3
	movb	$0, %al
L460:
	.loc 5 2241 0 discriminator 9
	testb	%al, %al
	jne	L461
	.loc 5 2242 0 is_stmt 1
	movl	8(%ebp), %eax
	movb	(%eax), %al
	testb	%al, %al
	jne	L462
	.loc 5 2242 0 is_stmt 0 discriminator 1
	movl	-28(%ebp), %eax
	movl	8(%ebp), %edx
	movl	%edx, 8(%eax)
	movl	-28(%ebp), %eax
	movl	$8, 12(%eax)
	movl	$0, %eax
	jmp	L435
L462:
	.loc 5 2244 0 is_stmt 1
	movl	8(%ebp), %eax
	movb	$0, (%eax)
	incl	8(%ebp)
	jmp	L456
L467:
	.loc 5 2250 0 discriminator 10
	incl	8(%ebp)
L463:
	.loc 5 2250 0 is_stmt 0 discriminator 1
	movl	8(%ebp), %eax
	movb	(%eax), %al
	testb	%al, %al
	je	L464
	.loc 5 2250 0 discriminator 2
	movl	8(%ebp), %eax
	movb	(%eax), %al
	cmpb	$93, %al
	jne	L465
	.loc 5 2250 0 discriminator 5
	movl	8(%ebp), %eax
	incl	%eax
	movb	(%eax), %al
	cmpb	$93, %al
	jne	L465
	.loc 5 2250 0 discriminator 6
	movl	8(%ebp), %eax
	addl	$2, %eax
	movb	(%eax), %al
	cmpb	$62, %al
	je	L464
	.loc 5 2250 0 discriminator 7
	movl	8(%ebp), %eax
	addl	$2, %eax
	movb	(%eax), %al
	testb	%al, %al
	jne	L465
	.loc 5 2250 0 discriminator 8
	cmpb	$62, -32(%ebp)
	je	L464
L465:
	.loc 5 2250 0 discriminator 4
	movb	$1, %al
	jmp	L466
L464:
	.loc 5 2250 0 discriminator 3
	movb	$0, %al
L466:
	.loc 5 2250 0 discriminator 9
	testb	%al, %al
	jne	L467
	.loc 5 2251 0 is_stmt 1
	movl	8(%ebp), %eax
	movb	(%eax), %al
	testb	%al, %al
	jne	L468
	.loc 5 2251 0 is_stmt 0 discriminator 1
	movl	-28(%ebp), %eax
	movl	8(%ebp), %edx
	movl	%edx, 8(%eax)
	movl	-28(%ebp), %eax
	movl	$8, 12(%eax)
	movl	$0, %eax
	jmp	L435
L468:
	.loc 5 2253 0 is_stmt 1
	incl	8(%ebp)
L456:
	.loc 5 2256 0
	movl	8(%ebp), %eax
	incl	%eax
	movb	(%eax), %al
	cmpb	$62, %al
	jne	L469
	.loc 5 2256 0 is_stmt 0 discriminator 1
	movl	$2, %eax
	jmp	L470
L469:
	.loc 5 2256 0 discriminator 2
	movl	$1, %eax
L470:
	.loc 5 2256 0 discriminator 3
	addl	%eax, 8(%ebp)
	jmp	L448
L452:
	.loc 5 2258 0 is_stmt 1
	movl	-28(%ebp), %eax
	movl	8(%ebp), %edx
	movl	%edx, 8(%eax)
	movl	-28(%ebp), %eax
	movl	$8, 12(%eax)
	movl	$0, %eax
	jmp	L435
L449:
LBB88:
LBB89:
	.loc 5 2260 0
	movl	8(%ebp), %eax
	movb	(%eax), %al
	cmpb	$68, %al
	jne	L471
	.loc 5 2260 0 is_stmt 0 discriminator 1
	movl	8(%ebp), %eax
	incl	%eax
	movb	(%eax), %al
	cmpb	$79, %al
	jne	L471
	.loc 5 2260 0 discriminator 2
	movl	8(%ebp), %eax
	addl	$2, %eax
	movb	(%eax), %al
	cmpb	$67, %al
	jne	L471
	.loc 5 2260 0 discriminator 3
	movl	8(%ebp), %eax
	addl	$3, %eax
	movb	(%eax), %al
	cmpb	$84, %al
	jne	L471
	.loc 5 2260 0 discriminator 4
	movl	8(%ebp), %eax
	addl	$4, %eax
	movb	(%eax), %al
	cmpb	$89, %al
	jne	L471
	.loc 5 2260 0 discriminator 5
	movl	8(%ebp), %eax
	addl	$5, %eax
	movb	(%eax), %al
	cmpb	$80, %al
	jne	L471
	.loc 5 2260 0 discriminator 6
	movl	8(%ebp), %eax
	addl	$6, %eax
	movb	(%eax), %al
	cmpb	$69, %al
	je	L472
	.loc 5 2260 0 discriminator 7
	movl	8(%ebp), %eax
	addl	$6, %eax
	movb	(%eax), %al
	testb	%al, %al
	jne	L471
	.loc 5 2260 0 discriminator 8
	cmpb	$69, -32(%ebp)
	jne	L471
L472:
LBB90:
	.loc 5 2262 0 is_stmt 1
	subl	$2, 8(%ebp)
	.loc 5 2264 0
	movl	12(%ebp), %eax
	movl	4(%eax), %eax
	testl	%eax, %eax
	je	L473
	.loc 5 2264 0 is_stmt 0 discriminator 1
	movl	-28(%ebp), %eax
	movl	8(%ebp), %edx
	movl	%edx, 8(%eax)
	movl	-28(%ebp), %eax
	movl	$9, 12(%eax)
	movl	$0, %eax
	jmp	L435
L473:
	.loc 5 2266 0 is_stmt 1
	movl	8(%ebp), %eax
	addl	$9, %eax
	movl	%eax, -12(%ebp)
	.loc 5 2268 0
	movsbl	-32(%ebp), %edx
	movl	-28(%ebp), %eax
	movl	$1, 8(%esp)
	movl	%edx, 4(%esp)
	movl	8(%ebp), %edx
	movl	%edx, (%esp)
	movl	%eax, %ecx
	call	__ZN4pugi4impl12_GLOBAL__N_110xml_parser19parse_doctype_groupEPccb
	subl	$12, %esp
	movl	%eax, 8(%ebp)
	.loc 5 2269 0
	cmpl	$0, 8(%ebp)
	jne	L474
	.loc 5 2269 0 is_stmt 0 discriminator 1
	movl	8(%ebp), %eax
	jmp	L435
L474:
	.loc 5 2271 0 is_stmt 1
	movl	16(%ebp), %eax
	andl	$512, %eax
	testl	%eax, %eax
	je	L485
	.loc 5 2273 0
	jmp	L476
L477:
	.loc 5 2273 0 is_stmt 0 discriminator 2
	incl	-12(%ebp)
L476:
	.loc 5 2273 0 discriminator 1
	movl	-12(%ebp), %eax
	movb	(%eax), %al
	movzbl	%al, %eax
	movb	__ZN4pugi4impl12_GLOBAL__N_1L14chartype_tableE(%eax), %al
	movzbl	%al, %eax
	andl	$8, %eax
	testl	%eax, %eax
	setne	%al
	testb	%al, %al
	jne	L477
	.loc 5 2275 0 is_stmt 1
	movl	-28(%ebp), %eax
	movl	$8, 8(%esp)
	movl	%eax, 4(%esp)
	movl	12(%ebp), %eax
	movl	%eax, (%esp)
	call	__ZN4pugi4impl12_GLOBAL__N_111append_nodeEPNS_15xml_node_structERNS1_13xml_allocatorENS_13xml_node_typeE
	movl	%eax, 12(%ebp)
	cmpl	$0, 12(%ebp)
	jne	L478
	.loc 5 2275 0 is_stmt 0 discriminator 1
	movl	-28(%ebp), %eax
	movl	8(%ebp), %edx
	movl	%edx, 8(%eax)
	movl	-28(%ebp), %eax
	movl	$3, 12(%eax)
	movl	$0, %eax
	jmp	L435
L478:
	.loc 5 2277 0 is_stmt 1
	movl	12(%ebp), %eax
	movl	-12(%ebp), %edx
	movl	%edx, 12(%eax)
	.loc 5 2279 0
	movl	8(%ebp), %eax
	movb	(%eax), %al
	testb	%al, %al
	jne	L479
	.loc 5 2279 0 is_stmt 0 discriminator 2
	cmpb	$62, -32(%ebp)
	je	L480
L479:
	.loc 5 2279 0 discriminator 1
	movl	8(%ebp), %eax
	decl	%eax
	movb	(%eax), %al
	cmpb	$62, %al
	je	L480
	.loc 5 2279 0 discriminator 3
	movl	$2279, 8(%esp)
	movl	$LC0, 4(%esp)
	movl	$LC21, (%esp)
	call	__assert
L480:
	.loc 5 2280 0 is_stmt 1
	movl	8(%ebp), %eax
	movb	(%eax), %al
	testb	%al, %al
	jne	L481
	.loc 5 2280 0 is_stmt 0 discriminator 1
	movl	$0, %eax
	jmp	L482
L481:
	.loc 5 2280 0 discriminator 2
	movl	$-1, %eax
L482:
	.loc 5 2280 0 discriminator 3
	movl	8(%ebp), %edx
	addl	%edx, %eax
	movb	$0, (%eax)
	.loc 5 2282 0 is_stmt 1 discriminator 3
	movl	12(%ebp), %eax
	movl	4(%eax), %eax
	movl	%eax, 12(%ebp)
LBE90:
	.loc 5 2283 0 discriminator 3
	jmp	L485
L471:
	.loc 5 2285 0
	movl	8(%ebp), %eax
	movb	(%eax), %al
	testb	%al, %al
	jne	L483
	.loc 5 2285 0 is_stmt 0 discriminator 1
	cmpb	$45, -32(%ebp)
	jne	L483
	.loc 5 2285 0 discriminator 2
	movl	-28(%ebp), %eax
	movl	8(%ebp), %edx
	movl	%edx, 8(%eax)
	movl	-28(%ebp), %eax
	movl	$7, 12(%eax)
	movl	$0, %eax
	jmp	L435
L483:
	.loc 5 2286 0 is_stmt 1
	movl	8(%ebp), %eax
	movb	(%eax), %al
	testb	%al, %al
	jne	L484
	.loc 5 2286 0 is_stmt 0 discriminator 1
	cmpb	$91, -32(%ebp)
	jne	L484
	.loc 5 2286 0 discriminator 2
	movl	-28(%ebp), %eax
	movl	8(%ebp), %edx
	movl	%edx, 8(%eax)
	movl	-28(%ebp), %eax
	movl	$8, 12(%eax)
	movl	$0, %eax
	jmp	L435
L484:
	.loc 5 2287 0 is_stmt 1
	movl	-28(%ebp), %eax
	movl	8(%ebp), %edx
	movl	%edx, 8(%eax)
	movl	-28(%ebp), %eax
	movl	$5, 12(%eax)
	movl	$0, %eax
	jmp	L435
L485:
	.loc 5 2283 0
	nop
L448:
LBE89:
LBE88:
LBE87:
LBE86:
LBE85:
	.loc 5 2289 0
	movl	8(%ebp), %eax
L435:
LBE84:
	.loc 5 2290 0
	leave
LCFI236:
	.cfi_restore 5
	.cfi_def_cfa 4, 4
	ret	$16
	.cfi_endproc
LFE1250:
	.align 2
	.def	__ZN4pugi4impl12_GLOBAL__N_110xml_parser14parse_questionEPcRPNS_15xml_node_structEjc;	.scl	3;	.type	32;	.endef
__ZN4pugi4impl12_GLOBAL__N_110xml_parser14parse_questionEPcRPNS_15xml_node_structEjc:
LFB1251:
	.loc 5 2292 0
	.cfi_startproc
	pushl	%ebp
LCFI237:
	.cfi_def_cfa_offset 8
	.cfi_offset 5, -8
	movl	%esp, %ebp
LCFI238:
	.cfi_def_cfa_register 5
	subl	$72, %esp
	movl	%ecx, -44(%ebp)
	movl	20(%ebp), %eax
	movb	%al, -48(%ebp)
LBB91:
	.loc 5 2295 0
	movl	12(%ebp), %eax
	movl	(%eax), %eax
	movl	%eax, -12(%ebp)
	.loc 5 2296 0
	movb	$0, -13(%ebp)
	.loc 5 2299 0
	incl	8(%ebp)
	.loc 5 2302 0
	movl	8(%ebp), %eax
	movl	%eax, -20(%ebp)
	.loc 5 2304 0
	movl	8(%ebp), %eax
	movb	(%eax), %al
	movzbl	%al, %eax
	movb	__ZN4pugi4impl12_GLOBAL__N_1L14chartype_tableE(%eax), %al
	testb	%al, %al
	js	L489
	.loc 5 2304 0 is_stmt 0 discriminator 1
	movl	-44(%ebp), %eax
	movl	8(%ebp), %edx
	movl	%edx, 8(%eax)
	movl	-44(%ebp), %eax
	movl	$6, 12(%eax)
	movl	$0, %eax
	jmp	L488
L490:
	.loc 5 2306 0 is_stmt 1 discriminator 2
	incl	8(%ebp)
L489:
	.loc 5 2306 0 is_stmt 0 discriminator 1
	movl	8(%ebp), %eax
	movb	(%eax), %al
	movzbl	%al, %eax
	movb	__ZN4pugi4impl12_GLOBAL__N_1L14chartype_tableE(%eax), %al
	movzbl	%al, %eax
	andl	$64, %eax
	testl	%eax, %eax
	setne	%al
	testb	%al, %al
	jne	L490
	.loc 5 2307 0 is_stmt 1
	movl	8(%ebp), %eax
	movb	(%eax), %al
	testb	%al, %al
	jne	L491
	.loc 5 2307 0 is_stmt 0 discriminator 1
	movl	-44(%ebp), %eax
	movl	8(%ebp), %edx
	movl	%edx, 8(%eax)
	movl	-44(%ebp), %eax
	movl	$6, 12(%eax)
	movl	$0, %eax
	jmp	L488
L491:
	.loc 5 2310 0 is_stmt 1
	movl	-20(%ebp), %eax
	movb	(%eax), %al
	orl	$32, %eax
	cmpb	$120, %al
	jne	L492
	.loc 5 2310 0 is_stmt 0 discriminator 1
	movl	-20(%ebp), %eax
	incl	%eax
	movb	(%eax), %al
	orl	$32, %eax
	cmpb	$109, %al
	jne	L492
	.loc 5 2310 0 discriminator 3
	movl	-20(%ebp), %eax
	addl	$2, %eax
	movb	(%eax), %al
	orl	$32, %eax
	cmpb	$108, %al
	jne	L492
	.loc 5 2310 0 discriminator 4
	movl	-20(%ebp), %eax
	addl	$3, %eax
	cmpl	8(%ebp), %eax
	jne	L492
	.loc 5 2310 0 discriminator 5
	movb	$1, %al
	jmp	L493
L492:
	.loc 5 2310 0 discriminator 2
	movb	$0, %al
L493:
	.loc 5 2310 0 discriminator 6
	movb	%al, -21(%ebp)
LBB92:
	.loc 5 2312 0 is_stmt 1 discriminator 6
	cmpb	$0, -21(%ebp)
	je	L494
	.loc 5 2312 0 is_stmt 0 discriminator 1
	movl	16(%ebp), %eax
	andl	$256, %eax
	testl	%eax, %eax
	setne	%al
	jmp	L495
L494:
	.loc 5 2312 0 discriminator 2
	movl	16(%ebp), %eax
	andl	$1, %eax
	testl	%eax, %eax
	setne	%al
L495:
	.loc 5 2312 0 discriminator 3
	testb	%al, %al
	je	L514
LBB93:
	.loc 5 2314 0 is_stmt 1
	cmpb	$0, -21(%ebp)
	je	L497
	.loc 5 2317 0
	movl	-12(%ebp), %eax
	movl	4(%eax), %eax
	testl	%eax, %eax
	je	L498
	.loc 5 2317 0 is_stmt 0 discriminator 1
	movl	-44(%ebp), %eax
	movl	8(%ebp), %edx
	movl	%edx, 8(%eax)
	movl	-44(%ebp), %eax
	movl	$6, 12(%eax)
	movl	$0, %eax
	jmp	L488
L498:
	.loc 5 2319 0 is_stmt 1
	movl	-44(%ebp), %eax
	movl	$7, 8(%esp)
	movl	%eax, 4(%esp)
	movl	-12(%ebp), %eax
	movl	%eax, (%esp)
	call	__ZN4pugi4impl12_GLOBAL__N_111append_nodeEPNS_15xml_node_structERNS1_13xml_allocatorENS_13xml_node_typeE
	movl	%eax, -12(%ebp)
	cmpl	$0, -12(%ebp)
	jne	L499
	.loc 5 2319 0 is_stmt 0 discriminator 1
	movl	-44(%ebp), %eax
	movl	8(%ebp), %edx
	movl	%edx, 8(%eax)
	movl	-44(%ebp), %eax
	movl	$3, 12(%eax)
	movl	$0, %eax
	jmp	L488
L497:
	.loc 5 2323 0 is_stmt 1
	movl	-44(%ebp), %eax
	movl	$6, 8(%esp)
	movl	%eax, 4(%esp)
	movl	-12(%ebp), %eax
	movl	%eax, (%esp)
	call	__ZN4pugi4impl12_GLOBAL__N_111append_nodeEPNS_15xml_node_structERNS1_13xml_allocatorENS_13xml_node_typeE
	movl	%eax, -12(%ebp)
	cmpl	$0, -12(%ebp)
	jne	L499
	.loc 5 2323 0 is_stmt 0 discriminator 1
	movl	-44(%ebp), %eax
	movl	8(%ebp), %edx
	movl	%edx, 8(%eax)
	movl	-44(%ebp), %eax
	movl	$3, 12(%eax)
	movl	$0, %eax
	jmp	L488
L499:
	.loc 5 2326 0 is_stmt 1
	movl	-12(%ebp), %eax
	movl	-20(%ebp), %edx
	movl	%edx, 8(%eax)
	.loc 5 2328 0
	movl	8(%ebp), %eax
	movb	(%eax), %al
	movb	%al, -13(%ebp)
	movl	8(%ebp), %eax
	movb	$0, (%eax)
	incl	8(%ebp)
LBB94:
	.loc 5 2331 0
	cmpb	$63, -13(%ebp)
	jne	L500
	.loc 5 2334 0
	movl	8(%ebp), %eax
	movb	(%eax), %al
	cmpb	$62, %al
	je	L501
	.loc 5 2334 0 is_stmt 0 discriminator 1
	movl	8(%ebp), %eax
	movb	(%eax), %al
	testb	%al, %al
	jne	L502
	.loc 5 2334 0 discriminator 2
	cmpb	$62, -48(%ebp)
	je	L501
L502:
	.loc 5 2334 0 discriminator 1
	movl	-44(%ebp), %eax
	movl	8(%ebp), %edx
	movl	%edx, 8(%eax)
	movl	-44(%ebp), %eax
	movl	$6, 12(%eax)
	movl	$0, %eax
	jmp	L488
L501:
	.loc 5 2335 0 is_stmt 1
	movl	8(%ebp), %eax
	movb	(%eax), %al
	cmpb	$62, %al
	sete	%al
	movzbl	%al, %eax
	addl	%eax, 8(%ebp)
	.loc 5 2337 0
	movl	-12(%ebp), %eax
	movl	4(%eax), %eax
	movl	%eax, -12(%ebp)
	jmp	L503
L500:
LBB95:
LBB96:
	.loc 5 2339 0
	movb	-13(%ebp), %al
	movzbl	%al, %eax
	movb	__ZN4pugi4impl12_GLOBAL__N_1L14chartype_tableE(%eax), %al
	movzbl	%al, %eax
	andl	$8, %eax
	testl	%eax, %eax
	je	L504
LBB97:
	.loc 5 2341 0
	jmp	L505
L506:
	.loc 5 2341 0 is_stmt 0 discriminator 2
	incl	8(%ebp)
L505:
	.loc 5 2341 0 discriminator 1
	movl	8(%ebp), %eax
	movb	(%eax), %al
	movzbl	%al, %eax
	movb	__ZN4pugi4impl12_GLOBAL__N_1L14chartype_tableE(%eax), %al
	movzbl	%al, %eax
	andl	$8, %eax
	testl	%eax, %eax
	setne	%al
	testb	%al, %al
	jne	L506
	.loc 5 2344 0 is_stmt 1
	movl	8(%ebp), %eax
	movl	%eax, -28(%ebp)
	.loc 5 2346 0
	jmp	L507
L511:
	.loc 5 2346 0 is_stmt 0 discriminator 9
	incl	8(%ebp)
L507:
	.loc 5 2346 0 discriminator 1
	movl	8(%ebp), %eax
	movb	(%eax), %al
	testb	%al, %al
	je	L508
	.loc 5 2346 0 discriminator 2
	movl	8(%ebp), %eax
	movb	(%eax), %al
	cmpb	$63, %al
	jne	L509
	.loc 5 2346 0 discriminator 5
	movl	8(%ebp), %eax
	incl	%eax
	movb	(%eax), %al
	cmpb	$62, %al
	je	L508
	.loc 5 2346 0 discriminator 6
	movl	8(%ebp), %eax
	incl	%eax
	movb	(%eax), %al
	testb	%al, %al
	jne	L509
	.loc 5 2346 0 discriminator 7
	cmpb	$62, -48(%ebp)
	je	L508
L509:
	.loc 5 2346 0 discriminator 4
	movb	$1, %al
	jmp	L510
L508:
	.loc 5 2346 0 discriminator 3
	movb	$0, %al
L510:
	.loc 5 2346 0 discriminator 8
	testb	%al, %al
	jne	L511
	.loc 5 2347 0 is_stmt 1
	movl	8(%ebp), %eax
	movb	(%eax), %al
	testb	%al, %al
	jne	L512
	.loc 5 2347 0 is_stmt 0 discriminator 1
	movl	-44(%ebp), %eax
	movl	8(%ebp), %edx
	movl	%edx, 8(%eax)
	movl	-44(%ebp), %eax
	movl	$6, 12(%eax)
	movl	$0, %eax
	jmp	L488
L512:
	.loc 5 2349 0 is_stmt 1
	cmpb	$0, -21(%ebp)
	je	L513
	.loc 5 2352 0
	movl	8(%ebp), %eax
	movb	$47, (%eax)
	.loc 5 2355 0
	movl	-28(%ebp), %eax
	movl	%eax, 8(%ebp)
	jmp	L503
L513:
	.loc 5 2360 0
	movl	-12(%ebp), %eax
	movl	-28(%ebp), %edx
	movl	%edx, 12(%eax)
	.loc 5 2361 0
	movl	-12(%ebp), %eax
	movl	4(%eax), %eax
	movl	%eax, -12(%ebp)
	.loc 5 2363 0
	movl	8(%ebp), %eax
	movb	(%eax), %al
	movb	%al, -13(%ebp)
	movl	8(%ebp), %eax
	movb	$0, (%eax)
	incl	8(%ebp)
	.loc 5 2365 0
	movl	8(%ebp), %eax
	movb	(%eax), %al
	cmpb	$62, %al
	sete	%al
	movzbl	%al, %eax
	addl	%eax, 8(%ebp)
	jmp	L503
L504:
LBE97:
	.loc 5 2368 0
	movl	-44(%ebp), %eax
	movl	8(%ebp), %edx
	movl	%edx, 8(%eax)
	movl	-44(%ebp), %eax
	movl	$6, 12(%eax)
	movl	$0, %eax
	jmp	L488
L518:
LBE96:
LBE95:
LBE94:
LBE93:
	.loc 5 2373 0 discriminator 9
	incl	8(%ebp)
L514:
	.loc 5 2373 0 is_stmt 0 discriminator 1
	movl	8(%ebp), %eax
	movb	(%eax), %al
	testb	%al, %al
	je	L515
	.loc 5 2373 0 discriminator 2
	movl	8(%ebp), %eax
	movb	(%eax), %al
	cmpb	$63, %al
	jne	L516
	.loc 5 2373 0 discriminator 5
	movl	8(%ebp), %eax
	incl	%eax
	movb	(%eax), %al
	cmpb	$62, %al
	je	L515
	.loc 5 2373 0 discriminator 6
	movl	8(%ebp), %eax
	incl	%eax
	movb	(%eax), %al
	testb	%al, %al
	jne	L516
	.loc 5 2373 0 discriminator 7
	cmpb	$62, -48(%ebp)
	je	L515
L516:
	.loc 5 2373 0 discriminator 4
	movb	$1, %al
	jmp	L517
L515:
	.loc 5 2373 0 discriminator 3
	movb	$0, %al
L517:
	.loc 5 2373 0 discriminator 8
	testb	%al, %al
	jne	L518
	.loc 5 2374 0 is_stmt 1
	movl	8(%ebp), %eax
	movb	(%eax), %al
	testb	%al, %al
	jne	L519
	.loc 5 2374 0 is_stmt 0 discriminator 1
	movl	-44(%ebp), %eax
	movl	8(%ebp), %edx
	movl	%edx, 8(%eax)
	movl	-44(%ebp), %eax
	movl	$6, 12(%eax)
	movl	$0, %eax
	jmp	L488
L519:
	.loc 5 2376 0 is_stmt 1
	movl	8(%ebp), %eax
	incl	%eax
	movb	(%eax), %al
	cmpb	$62, %al
	jne	L520
	.loc 5 2376 0 is_stmt 0 discriminator 1
	movl	$2, %eax
	jmp	L521
L520:
	.loc 5 2376 0 discriminator 2
	movl	$1, %eax
L521:
	.loc 5 2376 0 discriminator 3
	addl	%eax, 8(%ebp)
L503:
LBE92:
	.loc 5 2380 0 is_stmt 1
	movl	12(%ebp), %eax
	movl	-12(%ebp), %edx
	movl	%edx, (%eax)
	.loc 5 2382 0
	movl	8(%ebp), %eax
L488:
LBE91:
	.loc 5 2383 0
	leave
LCFI239:
	.cfi_restore 5
	.cfi_def_cfa 4, 4
	ret	$16
	.cfi_endproc
LFE1251:
	.section .rdata,"dr"
LC22:
	.ascii "cursor\0"
LC23:
	.ascii "mark != s\0"
	.text
	.align 2
	.def	__ZN4pugi4impl12_GLOBAL__N_110xml_parser5parseEPcPNS_15xml_node_structEjc;	.scl	3;	.type	32;	.endef
__ZN4pugi4impl12_GLOBAL__N_110xml_parser5parseEPcPNS_15xml_node_structEjc:
LFB1252:
	.loc 5 2385 0
	.cfi_startproc
	.cfi_personality 0,___gxx_personality_v0
	.cfi_lsda 0,LLSDA1252
	pushl	%ebp
LCFI240:
	.cfi_def_cfa_offset 8
	.cfi_offset 5, -8
	movl	%esp, %ebp
LCFI241:
	.cfi_def_cfa_register 5
	subl	$72, %esp
	movl	%ecx, -44(%ebp)
	movl	20(%ebp), %eax
	movb	%al, -48(%ebp)
LBB98:
	.loc 5 2387 0
	movl	16(%ebp), %eax
	movl	%eax, (%esp)
	call	__ZN4pugi4impl12_GLOBAL__N_121get_strconv_attributeEj
	movl	%eax, -20(%ebp)
	.loc 5 2388 0
	movl	16(%ebp), %eax
	movl	%eax, (%esp)
	call	__ZN4pugi4impl12_GLOBAL__N_118get_strconv_pcdataEj
	movl	%eax, -24(%ebp)
	.loc 5 2390 0
	movb	$0, -9(%ebp)
	.loc 5 2391 0
	movl	12(%ebp), %eax
	movl	%eax, -36(%ebp)
	.loc 5 2392 0
	movl	8(%ebp), %eax
	movl	%eax, -28(%ebp)
	.loc 5 2394 0
	jmp	L523
L593:
LBB99:
LBB100:
	.loc 5 2396 0
	movl	8(%ebp), %eax
	movb	(%eax), %al
	cmpb	$60, %al
	jne	L524
LBB101:
	.loc 5 2398 0
	incl	8(%ebp)
	jmp	L525
L603:
LBE101:
	.loc 5 2606 0
	nop
L525:
LBB125:
LBB102:
	.loc 5 2401 0
	movl	8(%ebp), %eax
	movb	(%eax), %al
	movzbl	%al, %eax
	movb	__ZN4pugi4impl12_GLOBAL__N_1L14chartype_tableE(%eax), %al
	testb	%al, %al
	jns	L526
LBB103:
	.loc 5 2403 0
	movl	-44(%ebp), %edx
	movl	-36(%ebp), %eax
	movl	$2, 8(%esp)
	movl	%edx, 4(%esp)
	movl	%eax, (%esp)
LEHB16:
	call	__ZN4pugi4impl12_GLOBAL__N_111append_nodeEPNS_15xml_node_structERNS1_13xml_allocatorENS_13xml_node_typeE
	movl	%eax, -36(%ebp)
	movl	-36(%ebp), %eax
	testl	%eax, %eax
	jne	L527
	.loc 5 2403 0 is_stmt 0 discriminator 2
	movl	-44(%ebp), %eax
	movl	8(%ebp), %edx
	movl	%edx, 8(%eax)
	movl	-44(%ebp), %eax
	movl	$3, 12(%eax)
	movl	$0, %eax
	jmp	L595
L527:
	.loc 5 2405 0 is_stmt 1
	movl	-36(%ebp), %eax
	movl	8(%ebp), %edx
	movl	%edx, 8(%eax)
	.loc 5 2407 0
	jmp	L529
L530:
	.loc 5 2407 0 is_stmt 0 discriminator 2
	incl	8(%ebp)
L529:
	.loc 5 2407 0 discriminator 1
	movl	8(%ebp), %eax
	movb	(%eax), %al
	movzbl	%al, %eax
	movb	__ZN4pugi4impl12_GLOBAL__N_1L14chartype_tableE(%eax), %al
	movzbl	%al, %eax
	andl	$64, %eax
	testl	%eax, %eax
	setne	%al
	testb	%al, %al
	jne	L530
	.loc 5 2408 0 is_stmt 1
	movl	8(%ebp), %eax
	movb	(%eax), %al
	movb	%al, -9(%ebp)
	movl	8(%ebp), %eax
	movb	$0, (%eax)
	incl	8(%ebp)
LBB104:
	.loc 5 2410 0
	cmpb	$62, -9(%ebp)
	je	L523
LBB105:
LBB106:
	.loc 5 2414 0
	movb	-9(%ebp), %al
	movzbl	%al, %eax
	movb	__ZN4pugi4impl12_GLOBAL__N_1L14chartype_tableE(%eax), %al
	movzbl	%al, %eax
	andl	$8, %eax
	testl	%eax, %eax
	je	L531
LBB107:
LBB108:
	.loc 5 2419 0
	jmp	L533
L532:
	jmp	L533
L534:
	.loc 5 2419 0 is_stmt 0 discriminator 2
	incl	8(%ebp)
L533:
	.loc 5 2419 0 discriminator 1
	movl	8(%ebp), %eax
	movb	(%eax), %al
	movzbl	%al, %eax
	movb	__ZN4pugi4impl12_GLOBAL__N_1L14chartype_tableE(%eax), %al
	movzbl	%al, %eax
	andl	$8, %eax
	testl	%eax, %eax
	setne	%al
	testb	%al, %al
	jne	L534
LBB109:
	.loc 5 2421 0 is_stmt 1
	movl	8(%ebp), %eax
	movb	(%eax), %al
	movzbl	%al, %eax
	movb	__ZN4pugi4impl12_GLOBAL__N_1L14chartype_tableE(%eax), %al
	testb	%al, %al
	jns	L535
LBB110:
	.loc 5 2423 0
	movl	-44(%ebp), %edx
	movl	-36(%ebp), %eax
	movl	%edx, 4(%esp)
	movl	%eax, (%esp)
	call	__ZN4pugi4impl12_GLOBAL__N_119append_attribute_llEPNS_15xml_node_structERNS1_13xml_allocatorE
	movl	%eax, -32(%ebp)
	.loc 5 2424 0
	cmpl	$0, -32(%ebp)
	jne	L536
	.loc 5 2424 0 is_stmt 0 discriminator 1
	movl	-44(%ebp), %eax
	movl	8(%ebp), %edx
	movl	%edx, 8(%eax)
	movl	-44(%ebp), %eax
	movl	$3, 12(%eax)
	movl	$0, %eax
	jmp	L595
L536:
	.loc 5 2426 0 is_stmt 1
	movl	-32(%ebp), %eax
	movl	8(%ebp), %edx
	movl	%edx, 4(%eax)
	.loc 5 2428 0
	jmp	L537
L538:
	.loc 5 2428 0 is_stmt 0 discriminator 2
	incl	8(%ebp)
L537:
	.loc 5 2428 0 discriminator 1
	movl	8(%ebp), %eax
	movb	(%eax), %al
	movzbl	%al, %eax
	movb	__ZN4pugi4impl12_GLOBAL__N_1L14chartype_tableE(%eax), %al
	movzbl	%al, %eax
	andl	$64, %eax
	testl	%eax, %eax
	setne	%al
	testb	%al, %al
	jne	L538
	.loc 5 2429 0 is_stmt 1
	movl	8(%ebp), %eax
	movb	(%eax), %al
	testb	%al, %al
	jne	L539
	.loc 5 2429 0 is_stmt 0 discriminator 1
	movl	-44(%ebp), %eax
	movl	8(%ebp), %edx
	movl	%edx, 8(%eax)
	movl	-44(%ebp), %eax
	movl	$12, 12(%eax)
	movl	$0, %eax
	jmp	L595
L539:
	.loc 5 2431 0 is_stmt 1
	movl	8(%ebp), %eax
	movb	(%eax), %al
	movb	%al, -9(%ebp)
	movl	8(%ebp), %eax
	movb	$0, (%eax)
	incl	8(%ebp)
	.loc 5 2432 0
	movl	8(%ebp), %eax
	movb	(%eax), %al
	testb	%al, %al
	jne	L540
	.loc 5 2432 0 is_stmt 0 discriminator 1
	movl	-44(%ebp), %eax
	movl	8(%ebp), %edx
	movl	%edx, 8(%eax)
	movl	-44(%ebp), %eax
	movl	$12, 12(%eax)
	movl	$0, %eax
	jmp	L595
L540:
	.loc 5 2434 0 is_stmt 1
	movb	-9(%ebp), %al
	movzbl	%al, %eax
	movb	__ZN4pugi4impl12_GLOBAL__N_1L14chartype_tableE(%eax), %al
	movzbl	%al, %eax
	andl	$8, %eax
	testl	%eax, %eax
	je	L541
	.loc 5 2436 0
	jmp	L542
L543:
	.loc 5 2436 0 is_stmt 0 discriminator 2
	incl	8(%ebp)
L542:
	.loc 5 2436 0 discriminator 1
	movl	8(%ebp), %eax
	movb	(%eax), %al
	movzbl	%al, %eax
	movb	__ZN4pugi4impl12_GLOBAL__N_1L14chartype_tableE(%eax), %al
	movzbl	%al, %eax
	andl	$8, %eax
	testl	%eax, %eax
	setne	%al
	testb	%al, %al
	jne	L543
	.loc 5 2437 0 is_stmt 1
	movl	8(%ebp), %eax
	movb	(%eax), %al
	testb	%al, %al
	jne	L544
	.loc 5 2437 0 is_stmt 0 discriminator 1
	movl	-44(%ebp), %eax
	movl	8(%ebp), %edx
	movl	%edx, 8(%eax)
	movl	-44(%ebp), %eax
	movl	$12, 12(%eax)
	movl	$0, %eax
	jmp	L595
L544:
	.loc 5 2439 0 is_stmt 1
	movl	8(%ebp), %eax
	movb	(%eax), %al
	movb	%al, -9(%ebp)
	.loc 5 2440 0
	incl	8(%ebp)
L541:
	.loc 5 2443 0
	cmpb	$61, -9(%ebp)
	jne	L545
	.loc 5 2445 0
	jmp	L546
L547:
	.loc 5 2445 0 is_stmt 0 discriminator 2
	incl	8(%ebp)
L546:
	.loc 5 2445 0 discriminator 1
	movl	8(%ebp), %eax
	movb	(%eax), %al
	movzbl	%al, %eax
	movb	__ZN4pugi4impl12_GLOBAL__N_1L14chartype_tableE(%eax), %al
	movzbl	%al, %eax
	andl	$8, %eax
	testl	%eax, %eax
	setne	%al
	testb	%al, %al
	jne	L547
	.loc 5 2447 0 is_stmt 1
	movl	8(%ebp), %eax
	movb	(%eax), %al
	cmpb	$34, %al
	je	L548
	.loc 5 2447 0 is_stmt 0 discriminator 1
	movl	8(%ebp), %eax
	movb	(%eax), %al
	cmpb	$39, %al
	jne	L549
L548:
	.loc 5 2449 0 is_stmt 1
	movl	8(%ebp), %eax
	movb	(%eax), %al
	movb	%al, -9(%ebp)
	.loc 5 2450 0
	incl	8(%ebp)
	.loc 5 2451 0
	movl	-32(%ebp), %eax
	movl	8(%ebp), %edx
	movl	%edx, 8(%eax)
	.loc 5 2453 0
	movsbl	-9(%ebp), %eax
	movl	%eax, 4(%esp)
	movl	8(%ebp), %eax
	movl	%eax, (%esp)
	movl	-20(%ebp), %eax
	call	*%eax
	movl	%eax, 8(%ebp)
	.loc 5 2455 0
	cmpl	$0, 8(%ebp)
	jne	L550
	.loc 5 2455 0 is_stmt 0 discriminator 1
	movl	-32(%ebp), %eax
	movl	8(%eax), %edx
	movl	-44(%ebp), %eax
	movl	%edx, 8(%eax)
	movl	-44(%ebp), %eax
	movl	$12, 12(%eax)
	movl	$0, %eax
	jmp	L595
L550:
	.loc 5 2460 0 is_stmt 1
	movl	8(%ebp), %eax
	movb	(%eax), %al
	movzbl	%al, %eax
	movb	__ZN4pugi4impl12_GLOBAL__N_1L14chartype_tableE(%eax), %al
	testb	%al, %al
	jns	L552
	.loc 5 2460 0 is_stmt 0 discriminator 1
	movl	-44(%ebp), %eax
	movl	8(%ebp), %edx
	movl	%edx, 8(%eax)
	movl	-44(%ebp), %eax
	movl	$12, 12(%eax)
	movl	$0, %eax
	jmp	L595
L549:
	.loc 5 2462 0 is_stmt 1
	movl	-44(%ebp), %eax
	movl	8(%ebp), %edx
	movl	%edx, 8(%eax)
	movl	-44(%ebp), %eax
	movl	$12, 12(%eax)
	movl	$0, %eax
	jmp	L595
L552:
LBE110:
LBE109:
LBE108:
	.loc 5 2417 0
	jmp	L532
L545:
LBB114:
LBB112:
LBB111:
	.loc 5 2464 0
	movl	-44(%ebp), %eax
	movl	8(%ebp), %edx
	movl	%edx, 8(%eax)
	movl	-44(%ebp), %eax
	movl	$12, 12(%eax)
	movl	$0, %eax
	jmp	L595
L535:
LBE111:
	.loc 5 2466 0
	movl	8(%ebp), %eax
	movb	(%eax), %al
	cmpb	$47, %al
	jne	L553
	.loc 5 2468 0
	incl	8(%ebp)
	.loc 5 2470 0
	movl	8(%ebp), %eax
	movb	(%eax), %al
	cmpb	$62, %al
	jne	L554
	.loc 5 2472 0
	movl	-36(%ebp), %eax
	movl	4(%eax), %eax
	movl	%eax, -36(%ebp)
	.loc 5 2473 0
	incl	8(%ebp)
	.loc 5 2474 0
	jmp	L523
L554:
	.loc 5 2476 0
	movl	8(%ebp), %eax
	movb	(%eax), %al
	testb	%al, %al
	jne	L556
	.loc 5 2476 0 is_stmt 0 discriminator 1
	cmpb	$62, -48(%ebp)
	jne	L556
	.loc 5 2478 0 is_stmt 1
	movl	-36(%ebp), %eax
	movl	4(%eax), %eax
	movl	%eax, -36(%ebp)
	.loc 5 2479 0
	jmp	L523
L556:
	.loc 5 2481 0
	movl	-44(%ebp), %eax
	movl	8(%ebp), %edx
	movl	%edx, 8(%eax)
	movl	-44(%ebp), %eax
	movl	$11, 12(%eax)
	movl	$0, %eax
	jmp	L595
L553:
	.loc 5 2483 0
	movl	8(%ebp), %eax
	movb	(%eax), %al
	cmpb	$62, %al
	jne	L557
	.loc 5 2485 0
	incl	8(%ebp)
	.loc 5 2487 0
	jmp	L523
L557:
	.loc 5 2489 0
	movl	8(%ebp), %eax
	movb	(%eax), %al
	testb	%al, %al
	jne	L558
	.loc 5 2489 0 is_stmt 0 discriminator 1
	cmpb	$62, -48(%ebp)
	je	L599
L558:
	.loc 5 2493 0 is_stmt 1
	movl	-44(%ebp), %eax
	movl	8(%ebp), %edx
	movl	%edx, 8(%eax)
	movl	-44(%ebp), %eax
	movl	$11, 12(%eax)
	movl	$0, %eax
	jmp	L595
L531:
LBE112:
LBE114:
LBE107:
	.loc 5 2498 0
	cmpb	$47, -9(%ebp)
	jne	L559
	.loc 5 2500 0
	movl	8(%ebp), %eax
	movb	(%eax), %al
	cmpb	$62, %al
	je	L560
	.loc 5 2500 0 is_stmt 0 discriminator 1
	movl	8(%ebp), %eax
	movb	(%eax), %al
	testb	%al, %al
	jne	L561
	.loc 5 2500 0 discriminator 2
	cmpb	$62, -48(%ebp)
	je	L560
L561:
	.loc 5 2500 0 discriminator 1
	movl	-44(%ebp), %eax
	movl	8(%ebp), %edx
	movl	%edx, 8(%eax)
	movl	-44(%ebp), %eax
	movl	$11, 12(%eax)
	movl	$0, %eax
	jmp	L595
L560:
	.loc 5 2502 0 is_stmt 1
	movl	-36(%ebp), %eax
	movl	4(%eax), %eax
	movl	%eax, -36(%ebp)
	.loc 5 2504 0
	movl	8(%ebp), %eax
	movb	(%eax), %al
	cmpb	$62, %al
	sete	%al
	movzbl	%al, %eax
	addl	%eax, 8(%ebp)
	jmp	L523
L559:
	.loc 5 2506 0
	cmpb	$0, -9(%ebp)
	jne	L562
	.loc 5 2509 0
	decl	8(%ebp)
	.loc 5 2511 0
	cmpb	$62, -48(%ebp)
	je	L523
	.loc 5 2511 0 is_stmt 0 discriminator 1
	movl	-44(%ebp), %eax
	movl	8(%ebp), %edx
	movl	%edx, 8(%eax)
	movl	-44(%ebp), %eax
	movl	$11, 12(%eax)
	movl	$0, %eax
	jmp	L595
L562:
	.loc 5 2513 0 is_stmt 1
	movl	-44(%ebp), %eax
	movl	8(%ebp), %edx
	movl	%edx, 8(%eax)
	movl	-44(%ebp), %eax
	movl	$11, 12(%eax)
	movl	$0, %eax
	jmp	L595
L526:
LBE106:
LBE105:
LBE104:
LBE103:
LBB120:
LBB121:
	.loc 5 2515 0
	movl	8(%ebp), %eax
	movb	(%eax), %al
	cmpb	$47, %al
	jne	L563
LBB122:
	.loc 5 2517 0
	incl	8(%ebp)
	.loc 5 2519 0
	movl	-36(%ebp), %eax
	movl	8(%eax), %eax
	movl	%eax, -16(%ebp)
	.loc 5 2520 0
	cmpl	$0, -16(%ebp)
	jne	L600
	.loc 5 2520 0 is_stmt 0 discriminator 1
	movl	-44(%ebp), %eax
	movl	8(%ebp), %edx
	movl	%edx, 8(%eax)
	movl	-44(%ebp), %eax
	movl	$14, 12(%eax)
	movl	$0, %eax
	jmp	L595
L566:
	.loc 5 2524 0 is_stmt 1
	movl	8(%ebp), %eax
	movb	(%eax), %dl
	movl	-16(%ebp), %eax
	movb	(%eax), %al
	cmpb	%al, %dl
	setne	%al
	incl	8(%ebp)
	incl	-16(%ebp)
	testb	%al, %al
	je	L565
	.loc 5 2524 0 is_stmt 0 discriminator 1
	movl	-44(%ebp), %eax
	movl	8(%ebp), %edx
	movl	%edx, 8(%eax)
	movl	-44(%ebp), %eax
	movl	$14, 12(%eax)
	movl	$0, %eax
	jmp	L595
L600:
	.loc 5 2522 0 is_stmt 1
	nop
L565:
	.loc 5 2522 0 is_stmt 0 discriminator 1
	movl	8(%ebp), %eax
	movb	(%eax), %al
	movzbl	%al, %eax
	movb	__ZN4pugi4impl12_GLOBAL__N_1L14chartype_tableE(%eax), %al
	movzbl	%al, %eax
	andl	$64, %eax
	testl	%eax, %eax
	setne	%al
	testb	%al, %al
	jne	L566
	.loc 5 2527 0 is_stmt 1
	movl	-16(%ebp), %eax
	movb	(%eax), %al
	testb	%al, %al
	je	L567
	.loc 5 2529 0
	movl	8(%ebp), %eax
	movb	(%eax), %al
	testb	%al, %al
	jne	L568
	.loc 5 2529 0 is_stmt 0 discriminator 1
	movl	-16(%ebp), %eax
	movb	(%eax), %al
	cmpb	-48(%ebp), %al
	jne	L568
	.loc 5 2529 0 discriminator 2
	movl	-16(%ebp), %eax
	incl	%eax
	movb	(%eax), %al
	testb	%al, %al
	jne	L568
	.loc 5 2529 0 discriminator 3
	movl	-44(%ebp), %eax
	movl	8(%ebp), %edx
	movl	%edx, 8(%eax)
	movl	-44(%ebp), %eax
	movl	$13, 12(%eax)
	movl	$0, %eax
	jmp	L595
L568:
	.loc 5 2530 0 is_stmt 1
	movl	-44(%ebp), %eax
	movl	8(%ebp), %edx
	movl	%edx, 8(%eax)
	movl	-44(%ebp), %eax
	movl	$14, 12(%eax)
	movl	$0, %eax
	jmp	L595
L567:
	.loc 5 2533 0
	movl	-36(%ebp), %eax
	movl	4(%eax), %eax
	movl	%eax, -36(%ebp)
	.loc 5 2535 0
	jmp	L569
L570:
	.loc 5 2535 0 is_stmt 0 discriminator 2
	incl	8(%ebp)
L569:
	.loc 5 2535 0 discriminator 1
	movl	8(%ebp), %eax
	movb	(%eax), %al
	movzbl	%al, %eax
	movb	__ZN4pugi4impl12_GLOBAL__N_1L14chartype_tableE(%eax), %al
	movzbl	%al, %eax
	andl	$8, %eax
	testl	%eax, %eax
	setne	%al
	testb	%al, %al
	jne	L570
	.loc 5 2537 0 is_stmt 1
	movl	8(%ebp), %eax
	movb	(%eax), %al
	testb	%al, %al
	jne	L571
	.loc 5 2539 0
	cmpb	$62, -48(%ebp)
	je	L523
	.loc 5 2539 0 is_stmt 0 discriminator 1
	movl	-44(%ebp), %eax
	movl	8(%ebp), %edx
	movl	%edx, 8(%eax)
	movl	-44(%ebp), %eax
	movl	$13, 12(%eax)
	movl	$0, %eax
	jmp	L595
L571:
	.loc 5 2543 0 is_stmt 1
	movl	8(%ebp), %eax
	movb	(%eax), %al
	cmpb	$62, %al
	je	L572
	.loc 5 2543 0 is_stmt 0 discriminator 1
	movl	-44(%ebp), %eax
	movl	8(%ebp), %edx
	movl	%edx, 8(%eax)
	movl	-44(%ebp), %eax
	movl	$13, 12(%eax)
	movl	$0, %eax
	jmp	L595
L572:
	.loc 5 2544 0 is_stmt 1
	incl	8(%ebp)
	jmp	L523
L563:
LBE122:
	.loc 5 2547 0
	movl	8(%ebp), %eax
	movb	(%eax), %al
	cmpb	$63, %al
	jne	L573
	.loc 5 2549 0
	movsbl	-48(%ebp), %edx
	movl	-44(%ebp), %eax
	movl	%edx, 12(%esp)
	movl	16(%ebp), %edx
	movl	%edx, 8(%esp)
	leal	-36(%ebp), %edx
	movl	%edx, 4(%esp)
	movl	8(%ebp), %edx
	movl	%edx, (%esp)
	movl	%eax, %ecx
	call	__ZN4pugi4impl12_GLOBAL__N_110xml_parser14parse_questionEPcRPNS_15xml_node_structEjc
	subl	$16, %esp
	movl	%eax, 8(%ebp)
	.loc 5 2550 0
	cmpl	$0, 8(%ebp)
	jne	L574
	.loc 5 2550 0 is_stmt 0 discriminator 1
	movl	8(%ebp), %eax
	jmp	L595
L574:
	.loc 5 2552 0 is_stmt 1
	movl	-36(%ebp), %eax
	testl	%eax, %eax
	jne	L575
	.loc 5 2552 0 is_stmt 0 discriminator 1
	movl	$2552, 8(%esp)
	movl	$LC0, 4(%esp)
	movl	$LC22, (%esp)
	call	__assert
L575:
	.loc 5 2553 0 is_stmt 1
	movl	-36(%ebp), %eax
	movl	(%eax), %eax
	andl	$7, %eax
	cmpl	$6, %eax
	jne	L523
	jmp	L532
L573:
	.loc 5 2555 0
	movl	8(%ebp), %eax
	movb	(%eax), %al
	cmpb	$33, %al
	jne	L576
	.loc 5 2557 0
	movsbl	-48(%ebp), %ecx
	movl	-36(%ebp), %edx
	movl	-44(%ebp), %eax
	movl	%ecx, 12(%esp)
	movl	16(%ebp), %ecx
	movl	%ecx, 8(%esp)
	movl	%edx, 4(%esp)
	movl	8(%ebp), %edx
	movl	%edx, (%esp)
	movl	%eax, %ecx
	call	__ZN4pugi4impl12_GLOBAL__N_110xml_parser17parse_exclamationEPcPNS_15xml_node_structEjc
	subl	$16, %esp
	movl	%eax, 8(%ebp)
	.loc 5 2558 0
	cmpl	$0, 8(%ebp)
	jne	L523
	.loc 5 2558 0 is_stmt 0 discriminator 1
	movl	8(%ebp), %eax
	jmp	L595
L576:
	.loc 5 2560 0 is_stmt 1
	movl	8(%ebp), %eax
	movb	(%eax), %al
	testb	%al, %al
	jne	L577
	.loc 5 2560 0 is_stmt 0 discriminator 1
	cmpb	$63, -48(%ebp)
	jne	L577
	.loc 5 2560 0 discriminator 2
	movl	-44(%ebp), %eax
	movl	8(%ebp), %edx
	movl	%edx, 8(%eax)
	movl	-44(%ebp), %eax
	movl	$6, 12(%eax)
	movl	$0, %eax
	jmp	L595
L577:
	.loc 5 2561 0 is_stmt 1
	movl	-44(%ebp), %eax
	movl	8(%ebp), %edx
	movl	%edx, 8(%eax)
	movl	-44(%ebp), %eax
	movl	$5, 12(%eax)
	movl	$0, %eax
	jmp	L595
L524:
LBE121:
LBE120:
LBE102:
LBE125:
	.loc 5 2565 0
	movl	8(%ebp), %eax
	movl	%eax, -28(%ebp)
	.loc 5 2567 0
	jmp	L578
L579:
	.loc 5 2567 0 is_stmt 0 discriminator 2
	incl	8(%ebp)
L578:
	.loc 5 2567 0 discriminator 1
	movl	8(%ebp), %eax
	movb	(%eax), %al
	movzbl	%al, %eax
	movb	__ZN4pugi4impl12_GLOBAL__N_1L14chartype_tableE(%eax), %al
	movzbl	%al, %eax
	andl	$8, %eax
	testl	%eax, %eax
	setne	%al
	testb	%al, %al
	jne	L579
	.loc 5 2569 0 is_stmt 1
	movl	8(%ebp), %eax
	movb	(%eax), %al
	cmpb	$60, %al
	jne	L580
	.loc 5 2572 0
	movl	-28(%ebp), %eax
	cmpl	8(%ebp), %eax
	jne	L581
	.loc 5 2572 0 is_stmt 0 discriminator 1
	movl	$2572, 8(%esp)
	movl	$LC0, 4(%esp)
	movl	$LC23, (%esp)
	call	__assert
L581:
	.loc 5 2574 0 is_stmt 1
	movl	16(%ebp), %eax
	andl	$1032, %eax
	testl	%eax, %eax
	je	L601
L582:
	.loc 5 2578 0
	movl	16(%ebp), %eax
	andl	$1024, %eax
	testl	%eax, %eax
	je	L580
	.loc 5 2580 0
	movl	8(%ebp), %eax
	incl	%eax
	movb	(%eax), %al
	cmpb	$47, %al
	jne	L602
	.loc 5 2580 0 is_stmt 0 discriminator 2
	movl	-36(%ebp), %eax
	movl	16(%eax), %eax
	testl	%eax, %eax
	jne	L602
L580:
	.loc 5 2584 0 is_stmt 1
	movl	-28(%ebp), %eax
	movl	%eax, 8(%ebp)
	.loc 5 2586 0
	movl	-36(%ebp), %eax
	movl	4(%eax), %eax
	testl	%eax, %eax
	je	L588
	.loc 5 2588 0
	movl	-44(%ebp), %edx
	movl	-36(%ebp), %eax
	movl	$3, 8(%esp)
	movl	%edx, 4(%esp)
	movl	%eax, (%esp)
	call	__ZN4pugi4impl12_GLOBAL__N_111append_nodeEPNS_15xml_node_structERNS1_13xml_allocatorENS_13xml_node_typeE
	movl	%eax, -36(%ebp)
	movl	-36(%ebp), %eax
	testl	%eax, %eax
	jne	L585
	.loc 5 2588 0 is_stmt 0 discriminator 2
	movl	-44(%ebp), %eax
	movl	8(%ebp), %edx
	movl	%edx, 8(%eax)
	movl	-44(%ebp), %eax
	movl	$3, 12(%eax)
	movl	$0, %eax
	jmp	L595
L585:
	.loc 5 2589 0 is_stmt 1
	movl	-36(%ebp), %eax
	movl	8(%ebp), %edx
	movl	%edx, 12(%eax)
	.loc 5 2591 0
	movl	8(%ebp), %eax
	movl	%eax, (%esp)
	movl	-24(%ebp), %eax
	call	*%eax
LEHE16:
	movl	%eax, 8(%ebp)
	.loc 5 2593 0
	movl	-36(%ebp), %eax
	movl	4(%eax), %eax
	movl	%eax, -36(%ebp)
	.loc 5 2595 0
	movl	8(%ebp), %eax
	movb	(%eax), %al
	testb	%al, %al
	jne	L603
	jmp	L587
L591:
	.loc 5 2599 0 discriminator 6
	incl	8(%ebp)
L588:
	.loc 5 2599 0 is_stmt 0 discriminator 1
	movl	8(%ebp), %eax
	movb	(%eax), %al
	testb	%al, %al
	je	L589
	.loc 5 2599 0 discriminator 2
	movl	8(%ebp), %eax
	movb	(%eax), %al
	cmpb	$60, %al
	je	L589
	.loc 5 2599 0 discriminator 4
	movb	$1, %al
	jmp	L590
L589:
	.loc 5 2599 0 discriminator 3
	movb	$0, %al
L590:
	.loc 5 2599 0 discriminator 5
	testb	%al, %al
	jne	L591
	.loc 5 2600 0 is_stmt 1
	movl	8(%ebp), %eax
	movb	(%eax), %al
	testb	%al, %al
	je	L604
L592:
	.loc 5 2602 0
	incl	8(%ebp)
	.loc 5 2606 0
	jmp	L603
L599:
LBB126:
LBB124:
LBB123:
LBB119:
LBB118:
LBB117:
LBB116:
LBB115:
LBB113:
	.loc 5 2491 0
	nop
	jmp	L523
L601:
LBE113:
LBE115:
LBE116:
LBE117:
LBE118:
LBE119:
LBE123:
LBE124:
LBE126:
	.loc 5 2576 0
	nop
	jmp	L523
L602:
	.loc 5 2580 0
	nop
L523:
LBE100:
LBE99:
	.loc 5 2394 0 discriminator 1
	movl	8(%ebp), %eax
	movb	(%eax), %al
	testb	%al, %al
	setne	%al
	testb	%al, %al
	jne	L593
	jmp	L587
L604:
LBB128:
LBB127:
	.loc 5 2600 0
	nop
L587:
LBE127:
LBE128:
	.loc 5 2611 0
	movl	-36(%ebp), %eax
	cmpl	12(%ebp), %eax
	je	L594
	.loc 5 2611 0 is_stmt 0 discriminator 1
	movl	-44(%ebp), %eax
	movl	8(%ebp), %edx
	movl	%edx, 8(%eax)
	movl	-44(%ebp), %eax
	movl	$14, 12(%eax)
	movl	$0, %eax
	jmp	L595
L594:
	.loc 5 2613 0 is_stmt 1
	movl	8(%ebp), %eax
L595:
	jmp	L598
L597:
	movl	%eax, (%esp)
LEHB17:
	call	__Unwind_Resume
LEHE17:
L598:
LBE98:
	.loc 5 2614 0
	leave
LCFI242:
	.cfi_restore 5
	.cfi_def_cfa 4, 4
	ret	$16
	.cfi_endproc
LFE1252:
	.section	.gcc_except_table,"w"
LLSDA1252:
	.byte	0xff
	.byte	0xff
	.byte	0x1
	.uleb128 LLSDACSE1252-LLSDACSB1252
LLSDACSB1252:
	.uleb128 LEHB16-LFB1252
	.uleb128 LEHE16-LEHB16
	.uleb128 L597-LFB1252
	.uleb128 0
	.uleb128 LEHB17-LFB1252
	.uleb128 LEHE17-LEHB17
	.uleb128 0
	.uleb128 0
LLSDACSE1252:
	.text
	.section .rdata,"dr"
	.align 4
LC24:
	.ascii "result.offset >= 0 && static_cast<size_t>(result.offset) <= length\0"
	.text
	.def	__ZN4pugi4impl12_GLOBAL__N_110xml_parser5parseEPcjPNS_15xml_node_structEj;	.scl	3;	.type	32;	.endef
__ZN4pugi4impl12_GLOBAL__N_110xml_parser5parseEPcjPNS_15xml_node_structEj:
LFB1253:
	.loc 5 2616 0
	.cfi_startproc
	.cfi_personality 0,___gxx_personality_v0
	.cfi_lsda 0,LLSDA1253
	pushl	%ebp
LCFI243:
	.cfi_def_cfa_offset 8
	.cfi_offset 5, -8
	movl	%esp, %ebp
LCFI244:
	.cfi_def_cfa_register 5
	pushl	%edi
	pushl	%esi
	pushl	%ebx
	subl	$76, %esp
	.cfi_offset 7, -12
	.cfi_offset 6, -16
	.cfi_offset 3, -20
LBB129:
	.loc 5 2618 0
	movl	20(%ebp), %eax
	movl	%eax, -28(%ebp)
	.loc 5 2621 0
	movl	-28(%ebp), %eax
	movl	12(%ebp), %edx
	movl	%edx, 40(%eax)
	.loc 5 2624 0
	cmpl	$0, 16(%ebp)
	jne	L606
	.loc 5 2624 0 is_stmt 0 discriminator 1
	movl	8(%ebp), %eax
	movl	$0, 8(%esp)
	movl	$0, 4(%esp)
	movl	%eax, (%esp)
	call	__ZN4pugi4impl12_GLOBAL__N_117make_parse_resultENS_16xml_parse_statusEi
	jmp	L605
L606:
	.loc 5 2627 0 is_stmt 1
	movl	-28(%ebp), %eax
	leal	32(%eax), %edx
	leal	-48(%ebp), %eax
	movl	%edx, (%esp)
	movl	%eax, %ecx
	call	__ZN4pugi4impl12_GLOBAL__N_110xml_parserC1ERKNS1_13xml_allocatorE
	subl	$4, %esp
	.loc 5 2630 0
	movl	16(%ebp), %eax
	leal	-1(%eax), %edx
	movl	12(%ebp), %eax
	addl	%edx, %eax
	movb	(%eax), %al
	movb	%al, -29(%ebp)
	.loc 5 2631 0
	movl	16(%ebp), %eax
	leal	-1(%eax), %edx
	movl	12(%ebp), %eax
	addl	%edx, %eax
	movb	$0, (%eax)
	.loc 5 2634 0
	movsbl	-29(%ebp), %edx
	leal	-48(%ebp), %eax
	movl	%edx, 12(%esp)
	movl	24(%ebp), %edx
	movl	%edx, 8(%esp)
	movl	-28(%ebp), %edx
	movl	%edx, 4(%esp)
	movl	12(%ebp), %edx
	movl	%edx, (%esp)
	movl	%eax, %ecx
LEHB18:
	call	__ZN4pugi4impl12_GLOBAL__N_110xml_parser5parseEPcPNS_15xml_node_structEjc
LEHE18:
	subl	$16, %esp
	.loc 5 2636 0
	movl	-40(%ebp), %eax
	testl	%eax, %eax
	je	L608
	.loc 5 2636 0 is_stmt 0 discriminator 1
	movl	-40(%ebp), %eax
	movl	%eax, %edx
	movl	12(%ebp), %eax
	movl	%edx, %ecx
	subl	%eax, %ecx
	movl	%ecx, %eax
	jmp	L609
L608:
	.loc 5 2636 0 discriminator 2
	movl	$0, %eax
L609:
	.loc 5 2636 0 discriminator 3
	movl	-36(%ebp), %ecx
	leal	-60(%ebp), %edx
	movl	%eax, 8(%esp)
	movl	%ecx, 4(%esp)
	movl	%edx, (%esp)
	call	__ZN4pugi4impl12_GLOBAL__N_117make_parse_resultENS_16xml_parse_statusEi
	.loc 5 2637 0 is_stmt 1 discriminator 3
	movl	-56(%ebp), %eax
	testl	%eax, %eax
	js	L610
	.loc 5 2637 0 is_stmt 0 discriminator 2
	movl	-56(%ebp), %eax
	cmpl	16(%ebp), %eax
	jbe	L611
L610:
	.loc 5 2637 0 discriminator 1
	movl	$2637, 8(%esp)
	movl	$LC0, 4(%esp)
	movl	$LC24, (%esp)
	call	__assert
L611:
	.loc 5 2640 0 is_stmt 1
	cmpl	$0, -28(%ebp)
	je	L612
	.loc 5 2640 0 is_stmt 0 discriminator 1
	movl	-28(%ebp), %eax
	leal	32(%eax), %ecx
	jmp	L613
L612:
	.loc 5 2640 0 discriminator 2
	movl	$0, %ecx
L613:
	.loc 5 2640 0 discriminator 3
	movl	-48(%ebp), %eax
	movl	-44(%ebp), %edx
	movl	%eax, (%ecx)
	movl	%edx, 4(%ecx)
	.loc 5 2643 0 is_stmt 1 discriminator 3
	leal	-60(%ebp), %eax
	movl	%eax, %ecx
	call	__ZNK4pugi16xml_parse_resultcvbEv
	testb	%al, %al
	je	L614
	.loc 5 2643 0 is_stmt 0 discriminator 1
	cmpb	$60, -29(%ebp)
	jne	L614
	.loc 5 2643 0 discriminator 3
	movb	$1, %al
	jmp	L615
L614:
	.loc 5 2643 0 discriminator 2
	movb	$0, %al
L615:
	.loc 5 2643 0 discriminator 4
	testb	%al, %al
	je	L616
	.loc 5 2646 0 is_stmt 1
	movl	16(%ebp), %edx
	movl	8(%ebp), %eax
	movl	%edx, 8(%esp)
	movl	$5, 4(%esp)
	movl	%eax, (%esp)
	call	__ZN4pugi4impl12_GLOBAL__N_117make_parse_resultENS_16xml_parse_statusEi
	jmp	L605
L616:
	.loc 5 2649 0
	movl	8(%ebp), %eax
	movl	%eax, %edx
	leal	-60(%ebp), %ebx
	movl	$3, %eax
	movl	%edx, %edi
	movl	%ebx, %esi
	movl	%eax, %ecx
	rep movsl
	jmp	L605
L619:
	movl	%eax, (%esp)
LEHB19:
	call	__Unwind_Resume
LEHE19:
L605:
LBE129:
	.loc 5 2650 0
	movl	8(%ebp), %eax
	leal	-12(%ebp), %esp
	popl	%ebx
	.cfi_restore 3
	popl	%esi
	.cfi_restore 6
	popl	%edi
	.cfi_restore 7
	popl	%ebp
LCFI245:
	.cfi_restore 5
	.cfi_def_cfa 4, 4
	ret
	.cfi_endproc
LFE1253:
	.section	.gcc_except_table,"w"
LLSDA1253:
	.byte	0xff
	.byte	0xff
	.byte	0x1
	.uleb128 LLSDACSE1253-LLSDACSB1253
LLSDACSB1253:
	.uleb128 LEHB18-LFB1253
	.uleb128 LEHE18-LEHB18
	.uleb128 L619-LFB1253
	.uleb128 0
	.uleb128 LEHB19-LFB1253
	.uleb128 LEHE19-LEHB19
	.uleb128 0
	.uleb128 0
LLSDACSE1253:
	.text
	.def	__ZN4pugi4impl12_GLOBAL__N_125get_write_native_encodingEv;	.scl	3;	.type	32;	.endef
__ZN4pugi4impl12_GLOBAL__N_125get_write_native_encodingEv:
LFB1254:
	.loc 5 2655 0
	.cfi_startproc
	pushl	%ebp
LCFI246:
	.cfi_def_cfa_offset 8
	.cfi_offset 5, -8
	movl	%esp, %ebp
LCFI247:
	.cfi_def_cfa_register 5
	.loc 5 2659 0
	movl	$1, %eax
	.loc 5 2661 0
	popl	%ebp
LCFI248:
	.cfi_restore 5
	.cfi_def_cfa 4, 4
	ret
	.cfi_endproc
LFE1254:
	.def	__ZN4pugi4impl12_GLOBAL__N_118get_write_encodingENS_12xml_encodingE;	.scl	3;	.type	32;	.endef
__ZN4pugi4impl12_GLOBAL__N_118get_write_encodingENS_12xml_encodingE:
LFB1255:
	.loc 5 2664 0
	.cfi_startproc
	pushl	%ebp
LCFI249:
	.cfi_def_cfa_offset 8
	.cfi_offset 5, -8
	movl	%esp, %ebp
LCFI250:
	.cfi_def_cfa_register 5
	.loc 5 2666 0
	cmpl	$8, 8(%ebp)
	jne	L623
	.loc 5 2666 0 is_stmt 0 discriminator 1
	call	__ZN4pugi4impl12_GLOBAL__N_118get_wchar_encodingEv
	jmp	L624
L623:
	.loc 5 2669 0 is_stmt 1
	cmpl	$4, 8(%ebp)
	jne	L625
	.loc 5 2669 0 is_stmt 0 discriminator 1
	call	__ZN4pugi4impl12_GLOBAL__N_116is_little_endianEv
	testb	%al, %al
	je	L626
	movl	$2, %eax
	jmp	L627
L626:
	.loc 5 2669 0 discriminator 2
	movl	$3, %eax
L627:
	.loc 5 2669 0 discriminator 3
	jmp	L624
L625:
	.loc 5 2672 0 is_stmt 1
	cmpl	$7, 8(%ebp)
	jne	L628
	.loc 5 2672 0 is_stmt 0 discriminator 1
	call	__ZN4pugi4impl12_GLOBAL__N_116is_little_endianEv
	testb	%al, %al
	je	L629
	movl	$5, %eax
	jmp	L630
L629:
	.loc 5 2672 0 discriminator 2
	movl	$6, %eax
L630:
	.loc 5 2672 0 discriminator 3
	jmp	L624
L628:
	.loc 5 2675 0 is_stmt 1
	cmpl	$0, 8(%ebp)
	je	L631
	.loc 5 2675 0 is_stmt 0 discriminator 1
	movl	8(%ebp), %eax
	jmp	L624
L631:
	.loc 5 2678 0 is_stmt 1
	movl	$1, %eax
L624:
	.loc 5 2679 0
	popl	%ebp
LCFI251:
	.cfi_restore 5
	.cfi_def_cfa 4, 4
	ret
	.cfi_endproc
LFE1255:
	.section .rdata,"dr"
LC25:
	.ascii "length > 4\0"
	.text
	.def	__ZN4pugi4impl12_GLOBAL__N_116get_valid_lengthEPKcj;	.scl	3;	.type	32;	.endef
__ZN4pugi4impl12_GLOBAL__N_116get_valid_lengthEPKcj:
LFB1256:
	.loc 5 2755 0
	.cfi_startproc
	pushl	%ebp
LCFI252:
	.cfi_def_cfa_offset 8
	.cfi_offset 5, -8
	movl	%esp, %ebp
LCFI253:
	.cfi_def_cfa_register 5
	subl	$40, %esp
LBB130:
	.loc 5 2756 0
	cmpl	$4, 12(%ebp)
	ja	L633
	.loc 5 2756 0 is_stmt 0 discriminator 1
	movl	$2756, 8(%esp)
	movl	$LC0, 4(%esp)
	movl	$LC25, (%esp)
	call	__assert
L633:
LBB131:
	.loc 5 2758 0 is_stmt 1
	movl	$1, -12(%ebp)
	jmp	L634
L637:
LBB132:
	.loc 5 2760 0
	movl	-12(%ebp), %eax
	movl	12(%ebp), %edx
	subl	%eax, %edx
	movl	8(%ebp), %eax
	addl	%edx, %eax
	movb	(%eax), %al
	movb	%al, -13(%ebp)
	.loc 5 2763 0
	movzbl	-13(%ebp), %eax
	andl	$192, %eax
	cmpl	$128, %eax
	je	L635
	.loc 5 2763 0 is_stmt 0 discriminator 1
	movl	-12(%ebp), %eax
	movl	12(%ebp), %edx
	movl	%edx, %ecx
	subl	%eax, %ecx
	movl	%ecx, %eax
	jmp	L636
L635:
LBE132:
	.loc 5 2758 0 is_stmt 1
	incl	-12(%ebp)
L634:
	.loc 5 2758 0 is_stmt 0 discriminator 1
	cmpl	$4, -12(%ebp)
	setbe	%al
	testb	%al, %al
	jne	L637
LBE131:
	.loc 5 2767 0 is_stmt 1
	movl	12(%ebp), %eax
L636:
LBE130:
	.loc 5 2768 0
	leave
LCFI254:
	.cfi_restore 5
	.cfi_def_cfa 4, 4
	ret
	.cfi_endproc
LFE1256:
	.def	__ZN4pugi4impl12_GLOBAL__N_114convert_bufferEPcPhPtPjPKcjNS_12xml_encodingE;	.scl	3;	.type	32;	.endef
__ZN4pugi4impl12_GLOBAL__N_114convert_bufferEPcPhPtPjPKcjNS_12xml_encodingE:
LFB1257:
	.loc 5 2771 0
	.cfi_startproc
	pushl	%ebp
LCFI255:
	.cfi_def_cfa_offset 8
	.cfi_offset 5, -8
	movl	%esp, %ebp
LCFI256:
	.cfi_def_cfa_register 5
	subl	$56, %esp
LBB133:
LBB134:
	.loc 5 2772 0
	cmpl	$3, 32(%ebp)
	je	L639
	.loc 5 2772 0 is_stmt 0 discriminator 1
	cmpl	$2, 32(%ebp)
	jne	L640
L639:
LBB135:
	.loc 5 2774 0 is_stmt 1
	movl	16(%ebp), %eax
	movl	%eax, -32(%ebp)
	.loc 5 2777 0
	movl	-32(%ebp), %eax
	movl	%eax, 8(%esp)
	movl	28(%ebp), %eax
	movl	%eax, 4(%esp)
	movl	24(%ebp), %eax
	movl	%eax, (%esp)
	call	__ZN4pugi4impl12_GLOBAL__N_111utf_decoderINS1_12utf16_writerENS1_9opt_falseEE17decode_utf8_blockEPKhjPt
	movl	%eax, -36(%ebp)
	.loc 5 2780 0
	call	__ZN4pugi4impl12_GLOBAL__N_116is_little_endianEv
	testb	%al, %al
	je	L641
	.loc 5 2780 0 is_stmt 0 discriminator 1
	movl	$2, %eax
	jmp	L642
L641:
	.loc 5 2780 0 discriminator 2
	movl	$3, %eax
L642:
	.loc 5 2780 0 discriminator 3
	movl	%eax, -40(%ebp)
	.loc 5 2782 0 is_stmt 1 discriminator 3
	movl	-40(%ebp), %eax
	cmpl	32(%ebp), %eax
	je	L643
	.loc 5 2782 0 is_stmt 0 discriminator 1
	movl	-36(%ebp), %edx
	movl	-32(%ebp), %eax
	movl	%edx, %ecx
	subl	%eax, %ecx
	movl	%ecx, %eax
	sarl	%eax
	movl	%eax, 8(%esp)
	movl	-32(%ebp), %eax
	movl	%eax, 4(%esp)
	movl	-32(%ebp), %eax
	movl	%eax, (%esp)
	call	__ZN4pugi4impl12_GLOBAL__N_123convert_utf_endian_swapItEEvPT_PKS3_j
L643:
	.loc 5 2784 0 is_stmt 1
	movl	-36(%ebp), %edx
	movl	-32(%ebp), %eax
	movl	%edx, %ecx
	subl	%eax, %ecx
	movl	%ecx, %eax
	sarl	%eax
	sall	%eax
	jmp	L644
L640:
LBE135:
LBE134:
LBB136:
	.loc 5 2787 0
	cmpl	$6, 32(%ebp)
	je	L645
	.loc 5 2787 0 is_stmt 0 discriminator 1
	cmpl	$5, 32(%ebp)
	jne	L646
L645:
LBB137:
	.loc 5 2789 0 is_stmt 1
	movl	20(%ebp), %eax
	movl	%eax, -20(%ebp)
	.loc 5 2792 0
	movl	-20(%ebp), %eax
	movl	%eax, 8(%esp)
	movl	28(%ebp), %eax
	movl	%eax, 4(%esp)
	movl	24(%ebp), %eax
	movl	%eax, (%esp)
	call	__ZN4pugi4impl12_GLOBAL__N_111utf_decoderINS1_12utf32_writerENS1_9opt_falseEE17decode_utf8_blockEPKhjPj
	movl	%eax, -24(%ebp)
	.loc 5 2795 0
	call	__ZN4pugi4impl12_GLOBAL__N_116is_little_endianEv
	testb	%al, %al
	je	L647
	.loc 5 2795 0 is_stmt 0 discriminator 1
	movl	$5, %eax
	jmp	L648
L647:
	.loc 5 2795 0 discriminator 2
	movl	$6, %eax
L648:
	.loc 5 2795 0 discriminator 3
	movl	%eax, -28(%ebp)
	.loc 5 2797 0 is_stmt 1 discriminator 3
	movl	-28(%ebp), %eax
	cmpl	32(%ebp), %eax
	je	L649
	.loc 5 2797 0 is_stmt 0 discriminator 1
	movl	-24(%ebp), %edx
	movl	-20(%ebp), %eax
	movl	%edx, %ecx
	subl	%eax, %ecx
	movl	%ecx, %eax
	sarl	$2, %eax
	movl	%eax, 8(%esp)
	movl	-20(%ebp), %eax
	movl	%eax, 4(%esp)
	movl	-20(%ebp), %eax
	movl	%eax, (%esp)
	call	__ZN4pugi4impl12_GLOBAL__N_123convert_utf_endian_swapIjEEvPT_PKS3_j
L649:
	.loc 5 2799 0 is_stmt 1
	movl	-24(%ebp), %edx
	movl	-20(%ebp), %eax
	movl	%edx, %ecx
	subl	%eax, %ecx
	movl	%ecx, %eax
	sarl	$2, %eax
	sall	$2, %eax
	jmp	L644
L646:
LBE137:
LBE136:
LBB138:
	.loc 5 2802 0
	cmpl	$9, 32(%ebp)
	jne	L650
LBB139:
	.loc 5 2804 0
	movl	12(%ebp), %eax
	movl	%eax, -12(%ebp)
	.loc 5 2805 0
	movl	-12(%ebp), %eax
	movl	%eax, 8(%esp)
	movl	28(%ebp), %eax
	movl	%eax, 4(%esp)
	movl	24(%ebp), %eax
	movl	%eax, (%esp)
	call	__ZN4pugi4impl12_GLOBAL__N_111utf_decoderINS1_13latin1_writerENS1_9opt_falseEE17decode_utf8_blockEPKhjPh
	movl	%eax, -16(%ebp)
	.loc 5 2807 0
	movl	-16(%ebp), %edx
	movl	-12(%ebp), %eax
	movl	%edx, %ecx
	subl	%eax, %ecx
	movl	%ecx, %eax
	jmp	L644
L650:
LBE139:
LBE138:
	.loc 5 2810 0
	movl	$2810, 8(%esp)
	movl	$LC0, 4(%esp)
	movl	$LC14, (%esp)
	call	__assert
L644:
LBE133:
	.loc 5 2812 0
	leave
LCFI257:
	.cfi_restore 5
	.cfi_def_cfa 4, 4
	ret
	.cfi_endproc
LFE1257:
	.align 2
	.def	__ZN4pugi4impl12_GLOBAL__N_119xml_buffered_writerC2ERNS_10xml_writerENS_12xml_encodingE;	.scl	3;	.type	32;	.endef
__ZN4pugi4impl12_GLOBAL__N_119xml_buffered_writerC2ERNS_10xml_writerENS_12xml_encodingE:
LFB1259:
	.loc 5 2821 0
	.cfi_startproc
	pushl	%ebp
LCFI258:
	.cfi_def_cfa_offset 8
	.cfi_offset 5, -8
	movl	%esp, %ebp
LCFI259:
	.cfi_def_cfa_register 5
	subl	$8, %esp
	movl	%ecx, -4(%ebp)
LBB140:
	.loc 5 2821 0
	movl	-4(%ebp), %eax
	movl	8(%ebp), %edx
	movl	%edx, 10240(%eax)
	movl	-4(%ebp), %eax
	movl	$0, 10244(%eax)
	movl	12(%ebp), %eax
	movl	%eax, (%esp)
	call	__ZN4pugi4impl12_GLOBAL__N_118get_write_encodingENS_12xml_encodingE
	movl	-4(%ebp), %edx
	movl	%eax, 10248(%edx)
LBE140:
	.loc 5 2824 0
	leave
LCFI260:
	.cfi_restore 5
	.cfi_def_cfa 4, 4
	ret	$8
	.cfi_endproc
LFE1259:
	.def	__ZN4pugi4impl12_GLOBAL__N_119xml_buffered_writerC1ERNS_10xml_writerENS_12xml_encodingE;	.scl	3;	.type	32;	.endef
	.set	__ZN4pugi4impl12_GLOBAL__N_119xml_buffered_writerC1ERNS_10xml_writerENS_12xml_encodingE,__ZN4pugi4impl12_GLOBAL__N_119xml_buffered_writerC2ERNS_10xml_writerENS_12xml_encodingE
	.align 2
	.def	__ZN4pugi4impl12_GLOBAL__N_119xml_buffered_writerD2Ev;	.scl	3;	.type	32;	.endef
__ZN4pugi4impl12_GLOBAL__N_119xml_buffered_writerD2Ev:
LFB1262:
	.loc 5 2826 0
	.cfi_startproc
	pushl	%ebp
LCFI261:
	.cfi_def_cfa_offset 8
	.cfi_offset 5, -8
	movl	%esp, %ebp
LCFI262:
	.cfi_def_cfa_register 5
	subl	$24, %esp
	movl	%ecx, -12(%ebp)
LBB141:
	.loc 5 2828 0
	movl	-12(%ebp), %eax
	movl	%eax, %ecx
	call	__ZN4pugi4impl12_GLOBAL__N_119xml_buffered_writer5flushEv
LBE141:
	.loc 5 2829 0
	leave
LCFI263:
	.cfi_restore 5
	.cfi_def_cfa 4, 4
	ret
	.cfi_endproc
LFE1262:
	.def	__ZN4pugi4impl12_GLOBAL__N_119xml_buffered_writerD1Ev;	.scl	3;	.type	32;	.endef
	.set	__ZN4pugi4impl12_GLOBAL__N_119xml_buffered_writerD1Ev,__ZN4pugi4impl12_GLOBAL__N_119xml_buffered_writerD2Ev
	.align 2
	.def	__ZN4pugi4impl12_GLOBAL__N_119xml_buffered_writer5flushEv;	.scl	3;	.type	32;	.endef
__ZN4pugi4impl12_GLOBAL__N_119xml_buffered_writer5flushEv:
LFB1264:
	.loc 5 2831 0
	.cfi_startproc
	pushl	%ebp
LCFI264:
	.cfi_def_cfa_offset 8
	.cfi_offset 5, -8
	movl	%esp, %ebp
LCFI265:
	.cfi_def_cfa_register 5
	subl	$40, %esp
	movl	%ecx, -12(%ebp)
	.loc 5 2833 0
	movl	-12(%ebp), %eax
	movl	10244(%eax), %ecx
	movl	-12(%ebp), %edx
	movl	-12(%ebp), %eax
	movl	%ecx, 4(%esp)
	movl	%edx, (%esp)
	movl	%eax, %ecx
	call	__ZN4pugi4impl12_GLOBAL__N_119xml_buffered_writer5flushEPKcj
	subl	$8, %esp
	.loc 5 2834 0
	movl	-12(%ebp), %eax
	movl	$0, 10244(%eax)
	.loc 5 2835 0
	leave
LCFI266:
	.cfi_restore 5
	.cfi_def_cfa 4, 4
	ret
	.cfi_endproc
LFE1264:
	.section .rdata,"dr"
LC26:
	.ascii "result <= sizeof(scratch)\0"
	.text
	.align 2
	.def	__ZN4pugi4impl12_GLOBAL__N_119xml_buffered_writer5flushEPKcj;	.scl	3;	.type	32;	.endef
__ZN4pugi4impl12_GLOBAL__N_119xml_buffered_writer5flushEPKcj:
LFB1265:
	.loc 5 2837 0
	.cfi_startproc
	pushl	%ebp
LCFI267:
	.cfi_def_cfa_offset 8
	.cfi_offset 5, -8
	movl	%esp, %ebp
LCFI268:
	.cfi_def_cfa_register 5
	pushl	%esi
	pushl	%ebx
	subl	$64, %esp
	.cfi_offset 6, -12
	.cfi_offset 3, -16
	movl	%ecx, -28(%ebp)
LBB142:
	.loc 5 2839 0
	cmpl	$0, 12(%ebp)
	je	L660
L656:
LBB143:
	.loc 5 2842 0
	movl	-28(%ebp), %eax
	movl	10248(%eax), %ebx
	call	__ZN4pugi4impl12_GLOBAL__N_125get_write_native_encodingEv
	cmpl	%eax, %ebx
	sete	%al
	testb	%al, %al
	je	L658
	.loc 5 2843 0
	movl	-28(%ebp), %eax
	movl	10240(%eax), %eax
	movl	(%eax), %eax
	addl	$8, %eax
	movl	(%eax), %ebx
	movl	-28(%ebp), %eax
	movl	10240(%eax), %eax
	movl	12(%ebp), %edx
	movl	%edx, 4(%esp)
	movl	8(%ebp), %edx
	movl	%edx, (%esp)
	movl	%eax, %ecx
	call	*%ebx
	subl	$8, %esp
	jmp	L655
L658:
LBB144:
	.loc 5 2847 0
	movl	-28(%ebp), %eax
	movl	10248(%eax), %eax
	movl	-28(%ebp), %edx
	leal	2048(%edx), %esi
	movl	-28(%ebp), %edx
	leal	2048(%edx), %ebx
	movl	-28(%ebp), %edx
	leal	2048(%edx), %ecx
	movl	-28(%ebp), %edx
	addl	$2048, %edx
	movl	%eax, 24(%esp)
	movl	12(%ebp), %eax
	movl	%eax, 20(%esp)
	movl	8(%ebp), %eax
	movl	%eax, 16(%esp)
	movl	%esi, 12(%esp)
	movl	%ebx, 8(%esp)
	movl	%ecx, 4(%esp)
	movl	%edx, (%esp)
	call	__ZN4pugi4impl12_GLOBAL__N_114convert_bufferEPcPhPtPjPKcjNS_12xml_encodingE
	movl	%eax, -12(%ebp)
	.loc 5 2848 0
	cmpl	$8192, -12(%ebp)
	jbe	L659
	.loc 5 2848 0 is_stmt 0 discriminator 1
	movl	$2848, 8(%esp)
	movl	$LC0, 4(%esp)
	movl	$LC26, (%esp)
	call	__assert
L659:
	.loc 5 2851 0 is_stmt 1
	movl	-28(%ebp), %eax
	movl	10240(%eax), %eax
	movl	(%eax), %eax
	addl	$8, %eax
	movl	(%eax), %ebx
	movl	-28(%ebp), %eax
	leal	2048(%eax), %ecx
	movl	-28(%ebp), %eax
	movl	10240(%eax), %eax
	movl	-12(%ebp), %edx
	movl	%edx, 4(%esp)
	movl	%ecx, (%esp)
	movl	%eax, %ecx
	call	*%ebx
	subl	$8, %esp
	jmp	L655
L660:
LBE144:
LBE143:
	.loc 5 2839 0
	nop
L655:
LBE142:
	.loc 5 2853 0
	leal	-8(%ebp), %esp
	popl	%ebx
	.cfi_restore 3
	popl	%esi
	.cfi_restore 6
	popl	%ebp
LCFI269:
	.cfi_restore 5
	.cfi_def_cfa 4, 4
	ret	$8
	.cfi_endproc
LFE1265:
	.align 2
	.def	__ZN4pugi4impl12_GLOBAL__N_119xml_buffered_writer5writeEPKcj;	.scl	3;	.type	32;	.endef
__ZN4pugi4impl12_GLOBAL__N_119xml_buffered_writer5writeEPKcj:
LFB1266:
	.loc 5 2855 0
	.cfi_startproc
	pushl	%ebp
LCFI270:
	.cfi_def_cfa_offset 8
	.cfi_offset 5, -8
	movl	%esp, %ebp
LCFI271:
	.cfi_def_cfa_register 5
	pushl	%ebx
	subl	$52, %esp
	.cfi_offset 3, -12
	movl	%ecx, -28(%ebp)
LBB145:
LBB146:
	.loc 5 2857 0
	movl	-28(%ebp), %eax
	movl	10244(%eax), %edx
	movl	12(%ebp), %eax
	addl	%edx, %eax
	cmpl	$2048, %eax
	jbe	L662
LBB147:
	.loc 5 2860 0
	movl	-28(%ebp), %eax
	movl	%eax, %ecx
	call	__ZN4pugi4impl12_GLOBAL__N_119xml_buffered_writer5flushEv
LBB148:
	.loc 5 2863 0
	cmpl	$2048, 12(%ebp)
	jbe	L662
LBB149:
	.loc 5 2865 0
	movl	-28(%ebp), %eax
	movl	10248(%eax), %ebx
	call	__ZN4pugi4impl12_GLOBAL__N_125get_write_native_encodingEv
	cmpl	%eax, %ebx
	sete	%al
	testb	%al, %al
	je	L665
	.loc 5 2868 0
	movl	-28(%ebp), %eax
	movl	10240(%eax), %eax
	movl	(%eax), %eax
	addl	$8, %eax
	movl	(%eax), %ebx
	movl	-28(%ebp), %eax
	movl	10240(%eax), %eax
	movl	12(%ebp), %edx
	movl	%edx, 4(%esp)
	movl	8(%ebp), %edx
	movl	%edx, (%esp)
	movl	%eax, %ecx
	call	*%ebx
	subl	$8, %esp
	.loc 5 2869 0
	jmp	L661
L666:
LBB150:
	.loc 5 2877 0
	movl	$2048, 4(%esp)
	movl	8(%ebp), %eax
	movl	%eax, (%esp)
	call	__ZN4pugi4impl12_GLOBAL__N_116get_valid_lengthEPKcj
	movl	%eax, -12(%ebp)
	.loc 5 2880 0
	movl	-28(%ebp), %eax
	movl	-12(%ebp), %edx
	movl	%edx, 4(%esp)
	movl	8(%ebp), %edx
	movl	%edx, (%esp)
	movl	%eax, %ecx
	call	__ZN4pugi4impl12_GLOBAL__N_119xml_buffered_writer5flushEPKcj
	subl	$8, %esp
	.loc 5 2883 0
	movl	-12(%ebp), %eax
	addl	%eax, 8(%ebp)
	.loc 5 2884 0
	movl	-12(%ebp), %eax
	subl	%eax, 12(%ebp)
L665:
LBE150:
	.loc 5 2873 0 discriminator 1
	cmpl	$2048, 12(%ebp)
	seta	%al
	testb	%al, %al
	jne	L666
	.loc 5 2888 0
	movl	-28(%ebp), %eax
	movl	$0, 10244(%eax)
L662:
LBE149:
LBE148:
LBE147:
LBE146:
	.loc 5 2892 0
	movl	-28(%ebp), %eax
	movl	10244(%eax), %edx
	movl	-28(%ebp), %eax
	addl	%eax, %edx
	movl	12(%ebp), %eax
	movl	%eax, 8(%esp)
	movl	8(%ebp), %eax
	movl	%eax, 4(%esp)
	movl	%edx, (%esp)
	call	_memcpy
	.loc 5 2893 0
	movl	-28(%ebp), %eax
	movl	10244(%eax), %edx
	movl	12(%ebp), %eax
	addl	%eax, %edx
	movl	-28(%ebp), %eax
	movl	%edx, 10244(%eax)
L661:
LBE145:
	.loc 5 2894 0
	movl	-4(%ebp), %ebx
	leave
LCFI272:
	.cfi_restore 5
	.cfi_restore 3
	.cfi_def_cfa 4, 4
	ret	$8
	.cfi_endproc
LFE1266:
	.align 2
	.def	__ZN4pugi4impl12_GLOBAL__N_119xml_buffered_writer5writeEPKc;	.scl	3;	.type	32;	.endef
__ZN4pugi4impl12_GLOBAL__N_119xml_buffered_writer5writeEPKc:
LFB1267:
	.loc 5 2896 0
	.cfi_startproc
	pushl	%ebp
LCFI273:
	.cfi_def_cfa_offset 8
	.cfi_offset 5, -8
	movl	%esp, %ebp
LCFI274:
	.cfi_def_cfa_register 5
	subl	$40, %esp
	movl	%ecx, -12(%ebp)
	.loc 5 2898 0
	movl	8(%ebp), %eax
	movl	%eax, (%esp)
	call	__ZN4pugi4impl12_GLOBAL__N_19strlengthEPKc
	movl	-12(%ebp), %edx
	movl	%eax, 4(%esp)
	movl	8(%ebp), %eax
	movl	%eax, (%esp)
	movl	%edx, %ecx
	call	__ZN4pugi4impl12_GLOBAL__N_119xml_buffered_writer5writeEPKcj
	subl	$8, %esp
	.loc 5 2899 0
	leave
LCFI275:
	.cfi_restore 5
	.cfi_def_cfa 4, 4
	ret	$4
	.cfi_endproc
LFE1267:
	.align 2
	.def	__ZN4pugi4impl12_GLOBAL__N_119xml_buffered_writer5writeEc;	.scl	3;	.type	32;	.endef
__ZN4pugi4impl12_GLOBAL__N_119xml_buffered_writer5writeEc:
LFB1268:
	.loc 5 2901 0
	.cfi_startproc
	pushl	%ebp
LCFI276:
	.cfi_def_cfa_offset 8
	.cfi_offset 5, -8
	movl	%esp, %ebp
LCFI277:
	.cfi_def_cfa_register 5
	subl	$24, %esp
	movl	%ecx, -12(%ebp)
	movl	8(%ebp), %eax
	movb	%al, -16(%ebp)
	.loc 5 2903 0
	movl	-12(%ebp), %eax
	movl	10244(%eax), %eax
	incl	%eax
	cmpl	$2048, %eax
	jbe	L669
	.loc 5 2903 0 is_stmt 0 discriminator 1
	movl	-12(%ebp), %eax
	movl	%eax, %ecx
	call	__ZN4pugi4impl12_GLOBAL__N_119xml_buffered_writer5flushEv
L669:
	.loc 5 2905 0 is_stmt 1
	movl	-12(%ebp), %eax
	movl	10244(%eax), %eax
	movl	-12(%ebp), %edx
	movb	-16(%ebp), %cl
	movb	%cl, (%edx,%eax)
	.loc 5 2906 0
	movl	-12(%ebp), %eax
	movl	10244(%eax), %eax
	leal	1(%eax), %edx
	movl	-12(%ebp), %eax
	movl	%edx, 10244(%eax)
	.loc 5 2907 0
	leave
LCFI278:
	.cfi_restore 5
	.cfi_def_cfa 4, 4
	ret	$4
	.cfi_endproc
LFE1268:
	.align 2
	.def	__ZN4pugi4impl12_GLOBAL__N_119xml_buffered_writer5writeEcc;	.scl	3;	.type	32;	.endef
__ZN4pugi4impl12_GLOBAL__N_119xml_buffered_writer5writeEcc:
LFB1269:
	.loc 5 2909 0
	.cfi_startproc
	pushl	%ebp
LCFI279:
	.cfi_def_cfa_offset 8
	.cfi_offset 5, -8
	movl	%esp, %ebp
LCFI280:
	.cfi_def_cfa_register 5
	subl	$24, %esp
	movl	%ecx, -12(%ebp)
	movl	8(%ebp), %edx
	movl	12(%ebp), %eax
	movb	%dl, -16(%ebp)
	movb	%al, -20(%ebp)
	.loc 5 2911 0
	movl	-12(%ebp), %eax
	movl	10244(%eax), %eax
	addl	$2, %eax
	cmpl	$2048, %eax
	jbe	L671
	.loc 5 2911 0 is_stmt 0 discriminator 1
	movl	-12(%ebp), %eax
	movl	%eax, %ecx
	call	__ZN4pugi4impl12_GLOBAL__N_119xml_buffered_writer5flushEv
L671:
	.loc 5 2913 0 is_stmt 1
	movl	-12(%ebp), %eax
	movl	10244(%eax), %eax
	movl	-12(%ebp), %edx
	movb	-16(%ebp), %cl
	movb	%cl, (%edx,%eax)
	.loc 5 2914 0
	movl	-12(%ebp), %eax
	movl	10244(%eax), %eax
	leal	1(%eax), %ecx
	movl	-12(%ebp), %eax
	movb	-20(%ebp), %dl
	movb	%dl, (%eax,%ecx)
	.loc 5 2915 0
	movl	-12(%ebp), %eax
	movl	10244(%eax), %eax
	leal	2(%eax), %edx
	movl	-12(%ebp), %eax
	movl	%edx, 10244(%eax)
	.loc 5 2916 0
	leave
LCFI281:
	.cfi_restore 5
	.cfi_def_cfa 4, 4
	ret	$8
	.cfi_endproc
LFE1269:
	.align 2
	.def	__ZN4pugi4impl12_GLOBAL__N_119xml_buffered_writer5writeEccc;	.scl	3;	.type	32;	.endef
__ZN4pugi4impl12_GLOBAL__N_119xml_buffered_writer5writeEccc:
LFB1270:
	.loc 5 2918 0
	.cfi_startproc
	pushl	%ebp
LCFI282:
	.cfi_def_cfa_offset 8
	.cfi_offset 5, -8
	movl	%esp, %ebp
LCFI283:
	.cfi_def_cfa_register 5
	subl	$24, %esp
	movl	%ecx, -12(%ebp)
	movl	8(%ebp), %ecx
	movl	12(%ebp), %edx
	movl	16(%ebp), %eax
	movb	%cl, -16(%ebp)
	movb	%dl, -20(%ebp)
	movb	%al, -24(%ebp)
	.loc 5 2920 0
	movl	-12(%ebp), %eax
	movl	10244(%eax), %eax
	addl	$3, %eax
	cmpl	$2048, %eax
	jbe	L673
	.loc 5 2920 0 is_stmt 0 discriminator 1
	movl	-12(%ebp), %eax
	movl	%eax, %ecx
	call	__ZN4pugi4impl12_GLOBAL__N_119xml_buffered_writer5flushEv
L673:
	.loc 5 2922 0 is_stmt 1
	movl	-12(%ebp), %eax
	movl	10244(%eax), %eax
	movl	-12(%ebp), %edx
	movb	-16(%ebp), %cl
	movb	%cl, (%edx,%eax)
	.loc 5 2923 0
	movl	-12(%ebp), %eax
	movl	10244(%eax), %eax
	leal	1(%eax), %ecx
	movl	-12(%ebp), %eax
	movb	-20(%ebp), %dl
	movb	%dl, (%eax,%ecx)
	.loc 5 2924 0
	movl	-12(%ebp), %eax
	movl	10244(%eax), %eax
	leal	2(%eax), %ecx
	movl	-12(%ebp), %eax
	movb	-24(%ebp), %dl
	movb	%dl, (%eax,%ecx)
	.loc 5 2925 0
	movl	-12(%ebp), %eax
	movl	10244(%eax), %eax
	leal	3(%eax), %edx
	movl	-12(%ebp), %eax
	movl	%edx, 10244(%eax)
	.loc 5 2926 0
	leave
LCFI284:
	.cfi_restore 5
	.cfi_def_cfa 4, 4
	ret	$12
	.cfi_endproc
LFE1270:
	.align 2
	.def	__ZN4pugi4impl12_GLOBAL__N_119xml_buffered_writer5writeEcccc;	.scl	3;	.type	32;	.endef
__ZN4pugi4impl12_GLOBAL__N_119xml_buffered_writer5writeEcccc:
LFB1271:
	.loc 5 2928 0
	.cfi_startproc
	pushl	%ebp
LCFI285:
	.cfi_def_cfa_offset 8
	.cfi_offset 5, -8
	movl	%esp, %ebp
LCFI286:
	.cfi_def_cfa_register 5
	pushl	%ebx
	subl	$36, %esp
	.cfi_offset 3, -12
	movl	%ecx, -12(%ebp)
	movl	8(%ebp), %ebx
	movl	12(%ebp), %ecx
	movl	16(%ebp), %edx
	movl	20(%ebp), %eax
	movb	%bl, -16(%ebp)
	movb	%cl, -20(%ebp)
	movb	%dl, -24(%ebp)
	movb	%al, -28(%ebp)
	.loc 5 2930 0
	movl	-12(%ebp), %eax
	movl	10244(%eax), %eax
	addl	$4, %eax
	cmpl	$2048, %eax
	jbe	L675
	.loc 5 2930 0 is_stmt 0 discriminator 1
	movl	-12(%ebp), %eax
	movl	%eax, %ecx
	call	__ZN4pugi4impl12_GLOBAL__N_119xml_buffered_writer5flushEv
L675:
	.loc 5 2932 0 is_stmt 1
	movl	-12(%ebp), %eax
	movl	10244(%eax), %eax
	movl	-12(%ebp), %edx
	movb	-16(%ebp), %cl
	movb	%cl, (%edx,%eax)
	.loc 5 2933 0
	movl	-12(%ebp), %eax
	movl	10244(%eax), %eax
	leal	1(%eax), %ecx
	movl	-12(%ebp), %eax
	movb	-20(%ebp), %dl
	movb	%dl, (%eax,%ecx)
	.loc 5 2934 0
	movl	-12(%ebp), %eax
	movl	10244(%eax), %eax
	leal	2(%eax), %ecx
	movl	-12(%ebp), %eax
	movb	-24(%ebp), %dl
	movb	%dl, (%eax,%ecx)
	.loc 5 2935 0
	movl	-12(%ebp), %eax
	movl	10244(%eax), %eax
	leal	3(%eax), %ecx
	movl	-12(%ebp), %eax
	movb	-28(%ebp), %dl
	movb	%dl, (%eax,%ecx)
	.loc 5 2936 0
	movl	-12(%ebp), %eax
	movl	10244(%eax), %eax
	leal	4(%eax), %edx
	movl	-12(%ebp), %eax
	movl	%edx, 10244(%eax)
	.loc 5 2937 0
	addl	$36, %esp
	popl	%ebx
	.cfi_restore 3
	popl	%ebp
LCFI287:
	.cfi_restore 5
	.cfi_def_cfa 4, 4
	ret	$16
	.cfi_endproc
LFE1271:
	.align 2
	.def	__ZN4pugi4impl12_GLOBAL__N_119xml_buffered_writer5writeEccccc;	.scl	3;	.type	32;	.endef
__ZN4pugi4impl12_GLOBAL__N_119xml_buffered_writer5writeEccccc:
LFB1272:
	.loc 5 2939 0
	.cfi_startproc
	pushl	%ebp
LCFI288:
	.cfi_def_cfa_offset 8
	.cfi_offset 5, -8
	movl	%esp, %ebp
LCFI289:
	.cfi_def_cfa_register 5
	pushl	%esi
	pushl	%ebx
	subl	$32, %esp
	.cfi_offset 6, -12
	.cfi_offset 3, -16
	movl	%ecx, -12(%ebp)
	movl	8(%ebp), %esi
	movl	12(%ebp), %ebx
	movl	16(%ebp), %ecx
	movl	20(%ebp), %edx
	movl	24(%ebp), %eax
	movl	%eax, -36(%ebp)
	movl	%esi, %eax
	movb	%al, -16(%ebp)
	movb	%bl, -20(%ebp)
	movb	%cl, -24(%ebp)
	movb	%dl, -28(%ebp)
	movb	-36(%ebp), %al
	movb	%al, -32(%ebp)
	.loc 5 2941 0
	movl	-12(%ebp), %eax
	movl	10244(%eax), %eax
	addl	$5, %eax
	cmpl	$2048, %eax
	jbe	L677
	.loc 5 2941 0 is_stmt 0 discriminator 1
	movl	-12(%ebp), %eax
	movl	%eax, %ecx
	call	__ZN4pugi4impl12_GLOBAL__N_119xml_buffered_writer5flushEv
L677:
	.loc 5 2943 0 is_stmt 1
	movl	-12(%ebp), %eax
	movl	10244(%eax), %eax
	movl	-12(%ebp), %edx
	movb	-16(%ebp), %cl
	movb	%cl, (%edx,%eax)
	.loc 5 2944 0
	movl	-12(%ebp), %eax
	movl	10244(%eax), %eax
	leal	1(%eax), %ecx
	movl	-12(%ebp), %eax
	movb	-20(%ebp), %dl
	movb	%dl, (%eax,%ecx)
	.loc 5 2945 0
	movl	-12(%ebp), %eax
	movl	10244(%eax), %eax
	leal	2(%eax), %ecx
	movl	-12(%ebp), %eax
	movb	-24(%ebp), %dl
	movb	%dl, (%eax,%ecx)
	.loc 5 2946 0
	movl	-12(%ebp), %eax
	movl	10244(%eax), %eax
	leal	3(%eax), %ecx
	movl	-12(%ebp), %eax
	movb	-28(%ebp), %dl
	movb	%dl, (%eax,%ecx)
	.loc 5 2947 0
	movl	-12(%ebp), %eax
	movl	10244(%eax), %eax
	leal	4(%eax), %ecx
	movl	-12(%ebp), %eax
	movb	-32(%ebp), %dl
	movb	%dl, (%eax,%ecx)
	.loc 5 2948 0
	movl	-12(%ebp), %eax
	movl	10244(%eax), %eax
	leal	5(%eax), %edx
	movl	-12(%ebp), %eax
	movl	%edx, 10244(%eax)
	.loc 5 2949 0
	addl	$32, %esp
	popl	%ebx
	.cfi_restore 3
	popl	%esi
	.cfi_restore 6
	popl	%ebp
LCFI290:
	.cfi_restore 5
	.cfi_def_cfa 4, 4
	ret	$20
	.cfi_endproc
LFE1272:
	.align 2
	.def	__ZN4pugi4impl12_GLOBAL__N_119xml_buffered_writer5writeEcccccc;	.scl	3;	.type	32;	.endef
__ZN4pugi4impl12_GLOBAL__N_119xml_buffered_writer5writeEcccccc:
LFB1273:
	.loc 5 2951 0
	.cfi_startproc
	pushl	%ebp
LCFI291:
	.cfi_def_cfa_offset 8
	.cfi_offset 5, -8
	movl	%esp, %ebp
LCFI292:
	.cfi_def_cfa_register 5
	pushl	%edi
	pushl	%esi
	pushl	%ebx
	subl	$44, %esp
	.cfi_offset 7, -12
	.cfi_offset 6, -16
	.cfi_offset 3, -20
	movl	%ecx, -28(%ebp)
	movl	8(%ebp), %edi
	movl	12(%ebp), %esi
	movl	16(%ebp), %ebx
	movl	20(%ebp), %ecx
	movl	24(%ebp), %edx
	movl	28(%ebp), %eax
	movl	%eax, -56(%ebp)
	movl	%edi, %eax
	movb	%al, -32(%ebp)
	movl	%esi, %eax
	movb	%al, -36(%ebp)
	movb	%bl, -40(%ebp)
	movb	%cl, -44(%ebp)
	movb	%dl, -48(%ebp)
	movb	-56(%ebp), %al
	movb	%al, -52(%ebp)
	.loc 5 2953 0
	movl	-28(%ebp), %eax
	movl	10244(%eax), %eax
	addl	$6, %eax
	cmpl	$2048, %eax
	jbe	L679
	.loc 5 2953 0 is_stmt 0 discriminator 1
	movl	-28(%ebp), %eax
	movl	%eax, %ecx
	call	__ZN4pugi4impl12_GLOBAL__N_119xml_buffered_writer5flushEv
L679:
	.loc 5 2955 0 is_stmt 1
	movl	-28(%ebp), %eax
	movl	10244(%eax), %eax
	movl	-28(%ebp), %edx
	movb	-32(%ebp), %cl
	movb	%cl, (%edx,%eax)
	.loc 5 2956 0
	movl	-28(%ebp), %eax
	movl	10244(%eax), %eax
	leal	1(%eax), %ecx
	movl	-28(%ebp), %eax
	movb	-36(%ebp), %dl
	movb	%dl, (%eax,%ecx)
	.loc 5 2957 0
	movl	-28(%ebp), %eax
	movl	10244(%eax), %eax
	leal	2(%eax), %ecx
	movl	-28(%ebp), %eax
	movb	-40(%ebp), %dl
	movb	%dl, (%eax,%ecx)
	.loc 5 2958 0
	movl	-28(%ebp), %eax
	movl	10244(%eax), %eax
	leal	3(%eax), %ecx
	movl	-28(%ebp), %eax
	movb	-44(%ebp), %dl
	movb	%dl, (%eax,%ecx)
	.loc 5 2959 0
	movl	-28(%ebp), %eax
	movl	10244(%eax), %eax
	leal	4(%eax), %ecx
	movl	-28(%ebp), %eax
	movb	-48(%ebp), %dl
	movb	%dl, (%eax,%ecx)
	.loc 5 2960 0
	movl	-28(%ebp), %eax
	movl	10244(%eax), %eax
	leal	5(%eax), %ecx
	movl	-28(%ebp), %eax
	movb	-52(%ebp), %dl
	movb	%dl, (%eax,%ecx)
	.loc 5 2961 0
	movl	-28(%ebp), %eax
	movl	10244(%eax), %eax
	leal	6(%eax), %edx
	movl	-28(%ebp), %eax
	movl	%edx, 10244(%eax)
	.loc 5 2962 0
	addl	$44, %esp
	popl	%ebx
	.cfi_restore 3
	popl	%esi
	.cfi_restore 6
	popl	%edi
	.cfi_restore 7
	popl	%ebp
LCFI293:
	.cfi_restore 5
	.cfi_def_cfa 4, 4
	ret	$24
	.cfi_endproc
LFE1273:
	.section .rdata,"dr"
LC27:
	.ascii "ch < 32\0"
	.text
	.def	__ZN4pugi4impl12_GLOBAL__N_119text_output_escapedERNS1_19xml_buffered_writerEPKcNS1_11chartypex_tE;	.scl	3;	.type	32;	.endef
__ZN4pugi4impl12_GLOBAL__N_119text_output_escapedERNS1_19xml_buffered_writerEPKcNS1_11chartypex_tE:
LFB1274:
	.loc 5 2995 0
	.cfi_startproc
	pushl	%ebp
LCFI294:
	.cfi_def_cfa_offset 8
	.cfi_offset 5, -8
	movl	%esp, %ebp
LCFI295:
	.cfi_def_cfa_register 5
	subl	$72, %esp
LBB151:
	.loc 5 2996 0
	jmp	L681
L692:
LBB152:
	.loc 5 2998 0
	movl	12(%ebp), %eax
	movl	%eax, -12(%ebp)
	.loc 5 3001 0
	jmp	L682
L683:
	.loc 5 3001 0 is_stmt 0 discriminator 2
	incl	12(%ebp)
L682:
	.loc 5 3001 0 discriminator 1
	movl	12(%ebp), %eax
	movb	(%eax), %al
	movzbl	%al, %eax
	movb	__ZN4pugi4impl12_GLOBAL__N_1L15chartypex_tableE(%eax), %al
	movzbl	%al, %edx
	movl	16(%ebp), %eax
	andl	%edx, %eax
	testl	%eax, %eax
	sete	%al
	testb	%al, %al
	jne	L683
	.loc 5 3003 0 is_stmt 1
	movl	12(%ebp), %edx
	movl	-12(%ebp), %eax
	movl	%edx, %ecx
	subl	%eax, %ecx
	movl	%ecx, %eax
	movl	%eax, 4(%esp)
	movl	-12(%ebp), %eax
	movl	%eax, (%esp)
	movl	8(%ebp), %ecx
	call	__ZN4pugi4impl12_GLOBAL__N_119xml_buffered_writer5writeEPKcj
	subl	$8, %esp
LBB153:
	.loc 5 3005 0
	movl	12(%ebp), %eax
	movb	(%eax), %al
	movsbl	%al, %eax
	cmpl	$38, %eax
	je	L687
	cmpl	$38, %eax
	jg	L690
	testl	%eax, %eax
	je	L693
	cmpl	$34, %eax
	je	L686
	jmp	L684
L690:
	cmpl	$60, %eax
	je	L688
	cmpl	$62, %eax
	je	L689
	jmp	L684
L687:
LBB154:
	.loc 5 3009 0
	movl	$59, 16(%esp)
	movl	$112, 12(%esp)
	movl	$109, 8(%esp)
	movl	$97, 4(%esp)
	movl	$38, (%esp)
	movl	8(%ebp), %ecx
	call	__ZN4pugi4impl12_GLOBAL__N_119xml_buffered_writer5writeEccccc
	subl	$20, %esp
	.loc 5 3010 0
	incl	12(%ebp)
	.loc 5 3011 0
	jmp	L681
L688:
	.loc 5 3013 0
	movl	$59, 12(%esp)
	movl	$116, 8(%esp)
	movl	$108, 4(%esp)
	movl	$38, (%esp)
	movl	8(%ebp), %ecx
	call	__ZN4pugi4impl12_GLOBAL__N_119xml_buffered_writer5writeEcccc
	subl	$16, %esp
	.loc 5 3014 0
	incl	12(%ebp)
	.loc 5 3015 0
	jmp	L681
L689:
	.loc 5 3017 0
	movl	$59, 12(%esp)
	movl	$116, 8(%esp)
	movl	$103, 4(%esp)
	movl	$38, (%esp)
	movl	8(%ebp), %ecx
	call	__ZN4pugi4impl12_GLOBAL__N_119xml_buffered_writer5writeEcccc
	subl	$16, %esp
	.loc 5 3018 0
	incl	12(%ebp)
	.loc 5 3019 0
	jmp	L681
L686:
	.loc 5 3021 0
	movl	$59, 20(%esp)
	movl	$116, 16(%esp)
	movl	$111, 12(%esp)
	movl	$117, 8(%esp)
	movl	$113, 4(%esp)
	movl	$38, (%esp)
	movl	8(%ebp), %ecx
	call	__ZN4pugi4impl12_GLOBAL__N_119xml_buffered_writer5writeEcccccc
	subl	$24, %esp
	.loc 5 3022 0
	incl	12(%ebp)
	.loc 5 3023 0
	jmp	L681
L684:
LBB155:
	.loc 5 3026 0
	movl	12(%ebp), %eax
	movb	(%eax), %al
	movsbl	%al, %eax
	movl	%eax, -16(%ebp)
	incl	12(%ebp)
	.loc 5 3027 0
	cmpl	$31, -16(%ebp)
	jbe	L691
	.loc 5 3027 0 is_stmt 0 discriminator 1
	movl	$3027, 8(%esp)
	movl	$LC0, 4(%esp)
	movl	$LC27, (%esp)
	call	__assert
L691:
	.loc 5 3029 0 is_stmt 1
	movl	-16(%ebp), %eax
	movl	$10, %ecx
	movl	$0, %edx
	divl	%ecx
	movl	%edx, %eax
	addl	$48, %eax
	movsbl	%al, %ecx
	movl	-16(%ebp), %eax
	movl	%eax, -28(%ebp)
	movl	$-858993459, %edx
	movl	-28(%ebp), %eax
	mull	%edx
	movl	%edx, %eax
	shrl	$3, %eax
	addl	$48, %eax
	movsbl	%al, %eax
	movl	$59, 16(%esp)
	movl	%ecx, 12(%esp)
	movl	%eax, 8(%esp)
	movl	$35, 4(%esp)
	movl	$38, (%esp)
	movl	8(%ebp), %ecx
	call	__ZN4pugi4impl12_GLOBAL__N_119xml_buffered_writer5writeEccccc
	subl	$20, %esp
	jmp	L681
L693:
LBE155:
	.loc 5 3007 0
	nop
L681:
LBE154:
LBE153:
LBE152:
	.loc 5 2996 0 discriminator 1
	movl	12(%ebp), %eax
	movb	(%eax), %al
	testb	%al, %al
	setne	%al
	testb	%al, %al
	jne	L692
LBE151:
	.loc 5 3033 0
	leave
LCFI296:
	.cfi_restore 5
	.cfi_def_cfa 4, 4
	ret
	.cfi_endproc
LFE1274:
	.def	__ZN4pugi4impl12_GLOBAL__N_111text_outputERNS1_19xml_buffered_writerEPKcNS1_11chartypex_tEj;	.scl	3;	.type	32;	.endef
__ZN4pugi4impl12_GLOBAL__N_111text_outputERNS1_19xml_buffered_writerEPKcNS1_11chartypex_tEj:
LFB1275:
	.loc 5 3036 0
	.cfi_startproc
	pushl	%ebp
LCFI297:
	.cfi_def_cfa_offset 8
	.cfi_offset 5, -8
	movl	%esp, %ebp
LCFI298:
	.cfi_def_cfa_register 5
	subl	$24, %esp
	.loc 5 3037 0
	movl	20(%ebp), %eax
	andl	$16, %eax
	testl	%eax, %eax
	je	L695
	.loc 5 3038 0
	movl	12(%ebp), %eax
	movl	%eax, (%esp)
	movl	8(%ebp), %ecx
	call	__ZN4pugi4impl12_GLOBAL__N_119xml_buffered_writer5writeEPKc
	subl	$4, %esp
	jmp	L694
L695:
	.loc 5 3040 0
	movl	16(%ebp), %eax
	movl	%eax, 8(%esp)
	movl	12(%ebp), %eax
	movl	%eax, 4(%esp)
	movl	8(%ebp), %eax
	movl	%eax, (%esp)
	call	__ZN4pugi4impl12_GLOBAL__N_119text_output_escapedERNS1_19xml_buffered_writerEPKcNS1_11chartypex_tE
L694:
	.loc 5 3041 0
	leave
LCFI299:
	.cfi_restore 5
	.cfi_def_cfa 4, 4
	ret
	.cfi_endproc
LFE1275:
	.def	__ZN4pugi4impl12_GLOBAL__N_117text_output_cdataERNS1_19xml_buffered_writerEPKc;	.scl	3;	.type	32;	.endef
__ZN4pugi4impl12_GLOBAL__N_117text_output_cdataERNS1_19xml_buffered_writerEPKc:
LFB1276:
	.loc 5 3044 0
	.cfi_startproc
	pushl	%ebp
LCFI300:
	.cfi_def_cfa_offset 8
	.cfi_offset 5, -8
	movl	%esp, %ebp
LCFI301:
	.cfi_def_cfa_register 5
	subl	$56, %esp
L704:
LBB156:
LBB157:
	.loc 5 3047 0
	movl	$68, 16(%esp)
	movl	$67, 12(%esp)
	movl	$91, 8(%esp)
	movl	$33, 4(%esp)
	movl	$60, (%esp)
	movl	8(%ebp), %ecx
	call	__ZN4pugi4impl12_GLOBAL__N_119xml_buffered_writer5writeEccccc
	subl	$20, %esp
	.loc 5 3048 0
	movl	$91, 12(%esp)
	movl	$65, 8(%esp)
	movl	$84, 4(%esp)
	movl	$65, (%esp)
	movl	8(%ebp), %ecx
	call	__ZN4pugi4impl12_GLOBAL__N_119xml_buffered_writer5writeEcccc
	subl	$16, %esp
	.loc 5 3050 0
	movl	12(%ebp), %eax
	movl	%eax, -12(%ebp)
	.loc 5 3053 0
	jmp	L698
L702:
	.loc 5 3053 0 is_stmt 0 discriminator 7
	incl	12(%ebp)
L698:
	.loc 5 3053 0 discriminator 1
	movl	12(%ebp), %eax
	movb	(%eax), %al
	testb	%al, %al
	je	L699
	.loc 5 3053 0 discriminator 2
	movl	12(%ebp), %eax
	movb	(%eax), %al
	cmpb	$93, %al
	jne	L700
	.loc 5 3053 0 discriminator 5
	movl	12(%ebp), %eax
	incl	%eax
	movb	(%eax), %al
	cmpb	$93, %al
	jne	L700
	.loc 5 3053 0 discriminator 1
	movl	12(%ebp), %eax
	addl	$2, %eax
	movb	(%eax), %al
	cmpb	$62, %al
	je	L699
L700:
	.loc 5 3053 0 discriminator 4
	movb	$1, %al
	jmp	L701
L699:
	.loc 5 3053 0 discriminator 3
	movb	$0, %al
L701:
	.loc 5 3053 0 discriminator 6
	testb	%al, %al
	jne	L702
	.loc 5 3056 0 is_stmt 1
	movl	12(%ebp), %eax
	movb	(%eax), %al
	testb	%al, %al
	je	L703
	.loc 5 3056 0 is_stmt 0 discriminator 1
	addl	$2, 12(%ebp)
L703:
	.loc 5 3058 0 is_stmt 1
	movl	12(%ebp), %edx
	movl	-12(%ebp), %eax
	movl	%edx, %ecx
	subl	%eax, %ecx
	movl	%ecx, %eax
	movl	%eax, 4(%esp)
	movl	-12(%ebp), %eax
	movl	%eax, (%esp)
	movl	8(%ebp), %ecx
	call	__ZN4pugi4impl12_GLOBAL__N_119xml_buffered_writer5writeEPKcj
	subl	$8, %esp
	.loc 5 3060 0
	movl	$62, 8(%esp)
	movl	$93, 4(%esp)
	movl	$93, (%esp)
	movl	8(%ebp), %ecx
	call	__ZN4pugi4impl12_GLOBAL__N_119xml_buffered_writer5writeEccc
	subl	$12, %esp
LBE157:
	.loc 5 3045 0
	movl	12(%ebp), %eax
	movb	(%eax), %al
	testb	%al, %al
	setne	%al
	testb	%al, %al
	jne	L704
LBE156:
	.loc 5 3063 0
	leave
LCFI302:
	.cfi_restore 5
	.cfi_def_cfa 4, 4
	ret
	.cfi_endproc
LFE1276:
	.section .rdata,"dr"
LC28:
	.ascii ":anonymous\0"
	.text
	.def	__ZN4pugi4impl12_GLOBAL__N_122node_output_attributesERNS1_19xml_buffered_writerERKNS_8xml_nodeEj;	.scl	3;	.type	32;	.endef
__ZN4pugi4impl12_GLOBAL__N_122node_output_attributesERNS1_19xml_buffered_writerERKNS_8xml_nodeEj:
LFB1277:
	.loc 5 3066 0
	.cfi_startproc
	.cfi_personality 0,___gxx_personality_v0
	.cfi_lsda 0,LLSDA1277
	pushl	%ebp
LCFI303:
	.cfi_def_cfa_offset 8
	.cfi_offset 5, -8
	movl	%esp, %ebp
LCFI304:
	.cfi_def_cfa_register 5
	subl	$40, %esp
LBB158:
	.loc 5 3067 0
	movl	$LC28, -12(%ebp)
LBB159:
	.loc 5 3069 0
	movl	12(%ebp), %eax
	movl	%eax, %ecx
	call	__ZNK4pugi8xml_node15first_attributeEv
	movl	%eax, -16(%ebp)
	jmp	L706
L709:
	.loc 5 3071 0
	movl	$32, (%esp)
	movl	8(%ebp), %ecx
LEHB20:
	call	__ZN4pugi4impl12_GLOBAL__N_119xml_buffered_writer5writeEc
	subl	$4, %esp
	.loc 5 3072 0
	leal	-16(%ebp), %eax
	movl	%eax, %ecx
	call	__ZNK4pugi13xml_attribute4nameEv
	movb	(%eax), %al
	testb	%al, %al
	je	L707
	.loc 5 3072 0 is_stmt 0 discriminator 1
	leal	-16(%ebp), %eax
	movl	%eax, %ecx
	call	__ZNK4pugi13xml_attribute4nameEv
	jmp	L708
L707:
	.loc 5 3072 0 discriminator 2
	movl	-12(%ebp), %eax
L708:
	.loc 5 3072 0 discriminator 3
	movl	%eax, (%esp)
	movl	8(%ebp), %ecx
	call	__ZN4pugi4impl12_GLOBAL__N_119xml_buffered_writer5writeEPKc
	subl	$4, %esp
	.loc 5 3073 0 is_stmt 1 discriminator 3
	movl	$34, 4(%esp)
	movl	$61, (%esp)
	movl	8(%ebp), %ecx
	call	__ZN4pugi4impl12_GLOBAL__N_119xml_buffered_writer5writeEcc
	.loc 5 3073 0 is_stmt 0
	subl	$8, %esp
	.loc 5 3075 0 is_stmt 1
	leal	-16(%ebp), %eax
	movl	%eax, %ecx
	call	__ZNK4pugi13xml_attribute5valueEv
	movl	16(%ebp), %edx
	movl	%edx, 12(%esp)
	movl	$2, 8(%esp)
	movl	%eax, 4(%esp)
	movl	8(%ebp), %eax
	movl	%eax, (%esp)
	call	__ZN4pugi4impl12_GLOBAL__N_111text_outputERNS1_19xml_buffered_writerEPKcNS1_11chartypex_tEj
	.loc 5 3077 0
	movl	$34, (%esp)
	movl	8(%ebp), %ecx
	call	__ZN4pugi4impl12_GLOBAL__N_119xml_buffered_writer5writeEc
LEHE20:
	subl	$4, %esp
	.loc 5 3069 0
	leal	-16(%ebp), %eax
	movl	%eax, %ecx
	call	__ZNK4pugi13xml_attribute14next_attributeEv
	movl	%eax, -16(%ebp)
L706:
	.loc 5 3069 0 is_stmt 0 discriminator 1
	leal	-16(%ebp), %eax
	movl	%eax, %ecx
	call	__ZNK4pugi13xml_attributecvPFvPPPS0_EEv
	testl	%eax, %eax
	setne	%al
	testb	%al, %al
	jne	L709
LBE159:
LBE158:
	.loc 5 3079 0 is_stmt 1
	jmp	L712
L711:
	movl	%eax, (%esp)
LEHB21:
	call	__Unwind_Resume
LEHE21:
L712:
	leave
LCFI305:
	.cfi_restore 5
	.cfi_def_cfa 4, 4
	ret
	.cfi_endproc
LFE1277:
	.section	.gcc_except_table,"w"
LLSDA1277:
	.byte	0xff
	.byte	0xff
	.byte	0x1
	.uleb128 LLSDACSE1277-LLSDACSB1277
LLSDACSB1277:
	.uleb128 LEHB20-LFB1277
	.uleb128 LEHE20-LEHB20
	.uleb128 L711-LFB1277
	.uleb128 0
	.uleb128 LEHB21-LFB1277
	.uleb128 LEHE21-LEHB21
	.uleb128 0
	.uleb128 0
LLSDACSE1277:
	.text
	.section .rdata,"dr"
LC29:
	.ascii "!\"Invalid node type\"\0"
	.text
	.def	__ZN4pugi4impl12_GLOBAL__N_111node_outputERNS1_19xml_buffered_writerERKNS_8xml_nodeEPKcjj;	.scl	3;	.type	32;	.endef
__ZN4pugi4impl12_GLOBAL__N_111node_outputERNS1_19xml_buffered_writerERKNS_8xml_nodeEPKcjj:
LFB1278:
	.loc 5 3082 0
	.cfi_startproc
	.cfi_personality 0,___gxx_personality_v0
	.cfi_lsda 0,LLSDA1278
	pushl	%ebp
LCFI306:
	.cfi_def_cfa_offset 8
	.cfi_offset 5, -8
	movl	%esp, %ebp
LCFI307:
	.cfi_def_cfa_register 5
	pushl	%edi
	pushl	%esi
	pushl	%ebx
	subl	$124, %esp
	.cfi_offset 7, -12
	.cfi_offset 6, -16
	.cfi_offset 3, -20
LBB160:
	.loc 5 3083 0
	movl	$LC28, -36(%ebp)
LBB161:
	.loc 5 3085 0
	movl	20(%ebp), %eax
	andl	$1, %eax
	testl	%eax, %eax
	je	L714
	.loc 5 3085 0 is_stmt 0 discriminator 1
	movl	20(%ebp), %eax
	andl	$4, %eax
	testl	%eax, %eax
	jne	L714
LBB162:
LBB163:
	.loc 5 3086 0 is_stmt 1
	movl	$0, -28(%ebp)
	jmp	L715
L716:
	.loc 5 3086 0 is_stmt 0 discriminator 2
	movl	16(%ebp), %eax
	movl	%eax, (%esp)
	movl	8(%ebp), %ecx
LEHB22:
	call	__ZN4pugi4impl12_GLOBAL__N_119xml_buffered_writer5writeEPKc
LEHE22:
	subl	$4, %esp
	incl	-28(%ebp)
L715:
	.loc 5 3086 0 discriminator 1
	movl	-28(%ebp), %eax
	cmpl	24(%ebp), %eax
	setb	%al
	testb	%al, %al
	jne	L716
L714:
LBE163:
LBE162:
LBE161:
LBB164:
	.loc 5 3088 0 is_stmt 1
	movl	12(%ebp), %eax
	movl	%eax, %ecx
	call	__ZNK4pugi8xml_node4typeEv
	cmpl	$8, %eax
	ja	L717
	movl	L725(,%eax,4), %eax
	jmp	*%eax
	.section .rdata,"dr"
	.align 4
L725:
	.long	L717
	.long	L718
	.long	L719
	.long	L720
	.long	L721
	.long	L722
	.long	L723
	.long	L723
	.long	L724
	.text
L718:
LBB165:
LBB166:
LBB167:
	.loc 5 3092 0
	movl	12(%ebp), %eax
	movl	%eax, %ecx
	call	__ZNK4pugi8xml_node11first_childEv
	movl	%eax, -80(%ebp)
	jmp	L726
L727:
	.loc 5 3093 0
	movl	24(%ebp), %eax
	movl	%eax, 16(%esp)
	movl	20(%ebp), %eax
	movl	%eax, 12(%esp)
	movl	16(%ebp), %eax
	movl	%eax, 8(%esp)
	leal	-80(%ebp), %eax
	movl	%eax, 4(%esp)
	movl	8(%ebp), %eax
	movl	%eax, (%esp)
LEHB23:
	call	__ZN4pugi4impl12_GLOBAL__N_111node_outputERNS1_19xml_buffered_writerERKNS_8xml_nodeEPKcjj
LEHE23:
	.loc 5 3092 0
	leal	-80(%ebp), %eax
	movl	%eax, %ecx
	call	__ZNK4pugi8xml_node12next_siblingEv
	movl	%eax, -80(%ebp)
L726:
	.loc 5 3092 0 is_stmt 0 discriminator 1
	leal	-80(%ebp), %eax
	movl	%eax, %ecx
	call	__ZNK4pugi8xml_nodecvPFvPPPS0_EEv
	testl	%eax, %eax
	setne	%al
	testb	%al, %al
	jne	L727
LBE167:
	.loc 5 3094 0 is_stmt 1
	jmp	L772
L719:
LBE166:
LBB168:
	.loc 5 3099 0
	movl	12(%ebp), %eax
	movl	%eax, %ecx
	call	__ZNK4pugi8xml_node4nameEv
	movb	(%eax), %al
	testb	%al, %al
	je	L729
	.loc 5 3099 0 is_stmt 0 discriminator 1
	movl	12(%ebp), %eax
	movl	%eax, %ecx
	call	__ZNK4pugi8xml_node4nameEv
	jmp	L730
L729:
	.loc 5 3099 0 discriminator 2
	movl	-36(%ebp), %eax
L730:
	.loc 5 3099 0 discriminator 3
	movl	%eax, -40(%ebp)
	.loc 5 3101 0 is_stmt 1 discriminator 3
	movl	$60, (%esp)
	movl	8(%ebp), %ecx
LEHB24:
	call	__ZN4pugi4impl12_GLOBAL__N_119xml_buffered_writer5writeEc
	subl	$4, %esp
	.loc 5 3102 0 discriminator 3
	movl	-40(%ebp), %eax
	movl	%eax, (%esp)
	movl	8(%ebp), %ecx
	call	__ZN4pugi4impl12_GLOBAL__N_119xml_buffered_writer5writeEPKc
	subl	$4, %esp
	.loc 5 3104 0 discriminator 3
	movl	20(%ebp), %eax
	movl	%eax, 8(%esp)
	movl	12(%ebp), %eax
	movl	%eax, 4(%esp)
	movl	8(%ebp), %eax
	movl	%eax, (%esp)
	call	__ZN4pugi4impl12_GLOBAL__N_122node_output_attributesERNS1_19xml_buffered_writerERKNS_8xml_nodeEj
LBB169:
	.loc 5 3106 0 discriminator 3
	movl	20(%ebp), %eax
	andl	$4, %eax
	testl	%eax, %eax
	je	L731
LBB170:
LBB171:
	.loc 5 3108 0
	movl	12(%ebp), %eax
	movl	%eax, %ecx
	call	__ZNK4pugi8xml_node11first_childEv
	movl	%eax, -76(%ebp)
	leal	-76(%ebp), %eax
	movl	%eax, %ecx
	call	__ZNK4pugi8xml_nodentEv
	testb	%al, %al
	je	L732
	.loc 5 3109 0
	movl	$62, 8(%esp)
	movl	$47, 4(%esp)
	movl	$32, (%esp)
	movl	8(%ebp), %ecx
	call	__ZN4pugi4impl12_GLOBAL__N_119xml_buffered_writer5writeEccc
	subl	$12, %esp
LBE171:
LBE170:
LBE169:
	.loc 5 3152 0
	jmp	L772
L732:
LBB191:
LBB175:
LBB174:
LBB172:
	.loc 5 3112 0
	movl	$62, (%esp)
	movl	8(%ebp), %ecx
	call	__ZN4pugi4impl12_GLOBAL__N_119xml_buffered_writer5writeEc
LEHE24:
	subl	$4, %esp
LBB173:
	.loc 5 3114 0
	movl	12(%ebp), %eax
	movl	%eax, %ecx
	call	__ZNK4pugi8xml_node11first_childEv
	movl	%eax, -84(%ebp)
	jmp	L734
L735:
	.loc 5 3115 0
	movl	24(%ebp), %eax
	incl	%eax
	movl	%eax, 16(%esp)
	movl	20(%ebp), %eax
	movl	%eax, 12(%esp)
	movl	16(%ebp), %eax
	movl	%eax, 8(%esp)
	leal	-84(%ebp), %eax
	movl	%eax, 4(%esp)
	movl	8(%ebp), %eax
	movl	%eax, (%esp)
LEHB25:
	call	__ZN4pugi4impl12_GLOBAL__N_111node_outputERNS1_19xml_buffered_writerERKNS_8xml_nodeEPKcjj
LEHE25:
	.loc 5 3114 0
	leal	-84(%ebp), %eax
	movl	%eax, %ecx
	call	__ZNK4pugi8xml_node12next_siblingEv
	movl	%eax, -84(%ebp)
L734:
	.loc 5 3114 0 is_stmt 0 discriminator 1
	leal	-84(%ebp), %eax
	movl	%eax, %ecx
	call	__ZNK4pugi8xml_nodecvPFvPPPS0_EEv
	testl	%eax, %eax
	setne	%al
	testb	%al, %al
	jne	L735
LBE173:
	.loc 5 3117 0 is_stmt 1
	movl	$47, 4(%esp)
	movl	$60, (%esp)
	movl	8(%ebp), %ecx
LEHB26:
	call	__ZN4pugi4impl12_GLOBAL__N_119xml_buffered_writer5writeEcc
	subl	$8, %esp
	.loc 5 3118 0
	movl	-40(%ebp), %eax
	movl	%eax, (%esp)
	movl	8(%ebp), %ecx
	call	__ZN4pugi4impl12_GLOBAL__N_119xml_buffered_writer5writeEPKc
	subl	$4, %esp
	.loc 5 3119 0
	movl	$62, (%esp)
	movl	8(%ebp), %ecx
	call	__ZN4pugi4impl12_GLOBAL__N_119xml_buffered_writer5writeEc
	subl	$4, %esp
LBE172:
LBE174:
LBE175:
LBE191:
	.loc 5 3152 0
	jmp	L772
L731:
LBB192:
LBB176:
LBB177:
	.loc 5 3122 0
	movl	12(%ebp), %eax
	movl	%eax, %ecx
	call	__ZNK4pugi8xml_node11first_childEv
	movl	%eax, -72(%ebp)
	leal	-72(%ebp), %eax
	movl	%eax, %ecx
	call	__ZNK4pugi8xml_nodentEv
	testb	%al, %al
	je	L736
	.loc 5 3123 0
	movl	$10, 12(%esp)
	movl	$62, 8(%esp)
	movl	$47, 4(%esp)
	movl	$32, (%esp)
	movl	8(%ebp), %ecx
	call	__ZN4pugi4impl12_GLOBAL__N_119xml_buffered_writer5writeEcccc
	subl	$16, %esp
LBE177:
LBE176:
LBE192:
	.loc 5 3152 0
	jmp	L772
L736:
LBB193:
LBB189:
LBB187:
LBB178:
LBB179:
	.loc 5 3124 0
	movb	$0, %bl
	movl	$0, %esi
	movl	12(%ebp), %eax
	movl	%eax, %ecx
	call	__ZNK4pugi8xml_node10last_childEv
	movl	%eax, -68(%ebp)
	movl	$1, %edi
	movl	12(%ebp), %eax
	movl	%eax, %ecx
	call	__ZNK4pugi8xml_node11first_childEv
	movl	%eax, -64(%ebp)
	movb	$1, -89(%ebp)
	leal	-64(%ebp), %eax
	leal	-68(%ebp), %edx
	movl	%edx, (%esp)
	movl	%eax, %ecx
	call	__ZNK4pugi8xml_nodeeqERKS0_
	subl	$4, %esp
	testb	%al, %al
	je	L737
	.loc 5 3124 0 is_stmt 0 discriminator 1
	movl	12(%ebp), %eax
	movl	%eax, %ecx
	call	__ZNK4pugi8xml_node11first_childEv
	movl	%eax, -60(%ebp)
	movb	$1, %bl
	leal	-60(%ebp), %eax
	movl	%eax, %ecx
	call	__ZNK4pugi8xml_node4typeEv
	cmpl	$3, %eax
	je	L738
	.loc 5 3124 0 discriminator 4
	movl	12(%ebp), %eax
	movl	%eax, %ecx
	call	__ZNK4pugi8xml_node11first_childEv
	movl	%eax, -56(%ebp)
	movl	$1, %esi
	leal	-56(%ebp), %eax
	movl	%eax, %ecx
	call	__ZNK4pugi8xml_node4typeEv
	cmpl	$4, %eax
	jne	L737
L738:
	.loc 5 3124 0 discriminator 3
	movb	$1, %al
	jmp	L739
L737:
	.loc 5 3124 0 discriminator 2
	movb	$0, %al
L739:
	.loc 5 3124 0 discriminator 5
	movl	%esi, %edx
	testb	%dl, %dl
	testb	%bl, %bl
	cmpb	$0, -89(%ebp)
	movl	%edi, %edx
	testb	%dl, %dl
	testb	%al, %al
	je	L744
	.loc 5 3126 0 is_stmt 1
	movl	$62, (%esp)
	movl	8(%ebp), %ecx
	call	__ZN4pugi4impl12_GLOBAL__N_119xml_buffered_writer5writeEc
LEHE26:
	subl	$4, %esp
	.loc 5 3128 0
	movl	12(%ebp), %eax
	movl	%eax, %ecx
	call	__ZNK4pugi8xml_node11first_childEv
	movl	%eax, -52(%ebp)
	leal	-52(%ebp), %eax
	movl	%eax, %ecx
	call	__ZNK4pugi8xml_node4typeEv
	cmpl	$3, %eax
	sete	%al
	testb	%al, %al
	je	L745
	.loc 5 3129 0
	movl	12(%ebp), %eax
	movl	%eax, %ecx
	call	__ZNK4pugi8xml_node11first_childEv
	movl	%eax, -48(%ebp)
	leal	-48(%ebp), %eax
	movl	%eax, %ecx
	call	__ZNK4pugi8xml_node5valueEv
	movl	20(%ebp), %edx
	movl	%edx, 12(%esp)
	movl	$1, 8(%esp)
	movl	%eax, 4(%esp)
	movl	8(%ebp), %eax
	movl	%eax, (%esp)
LEHB27:
	call	__ZN4pugi4impl12_GLOBAL__N_111text_outputERNS1_19xml_buffered_writerEPKcNS1_11chartypex_tEj
LEHE27:
	jmp	L746
L745:
	.loc 5 3131 0
	movl	12(%ebp), %eax
	movl	%eax, %ecx
	call	__ZNK4pugi8xml_node11first_childEv
	movl	%eax, -44(%ebp)
	leal	-44(%ebp), %eax
	movl	%eax, %ecx
	call	__ZNK4pugi8xml_node5valueEv
	movl	%eax, 4(%esp)
	movl	8(%ebp), %eax
	movl	%eax, (%esp)
LEHB28:
	call	__ZN4pugi4impl12_GLOBAL__N_117text_output_cdataERNS1_19xml_buffered_writerEPKc
LEHE28:
L746:
	.loc 5 3133 0
	movl	$47, 4(%esp)
	movl	$60, (%esp)
	movl	8(%ebp), %ecx
LEHB29:
	call	__ZN4pugi4impl12_GLOBAL__N_119xml_buffered_writer5writeEcc
	subl	$8, %esp
	.loc 5 3134 0
	movl	-40(%ebp), %eax
	movl	%eax, (%esp)
	movl	8(%ebp), %ecx
	call	__ZN4pugi4impl12_GLOBAL__N_119xml_buffered_writer5writeEPKc
	subl	$4, %esp
	.loc 5 3135 0
	movl	$10, 4(%esp)
	movl	$62, (%esp)
	movl	8(%ebp), %ecx
	call	__ZN4pugi4impl12_GLOBAL__N_119xml_buffered_writer5writeEcc
	subl	$8, %esp
LBE179:
LBE178:
LBE187:
LBE189:
LBE193:
	.loc 5 3152 0
	jmp	L772
L744:
LBB194:
LBB190:
LBB188:
LBB186:
LBB185:
LBB180:
	.loc 5 3139 0
	movl	$10, 4(%esp)
	movl	$62, (%esp)
	movl	8(%ebp), %ecx
	call	__ZN4pugi4impl12_GLOBAL__N_119xml_buffered_writer5writeEcc
LEHE29:
	subl	$8, %esp
LBB181:
	.loc 5 3141 0
	movl	12(%ebp), %eax
	movl	%eax, %ecx
	call	__ZNK4pugi8xml_node11first_childEv
	movl	%eax, -88(%ebp)
	jmp	L747
L748:
	.loc 5 3142 0
	movl	24(%ebp), %eax
	incl	%eax
	movl	%eax, 16(%esp)
	movl	20(%ebp), %eax
	movl	%eax, 12(%esp)
	movl	16(%ebp), %eax
	movl	%eax, 8(%esp)
	leal	-88(%ebp), %eax
	movl	%eax, 4(%esp)
	movl	8(%ebp), %eax
	movl	%eax, (%esp)
LEHB30:
	call	__ZN4pugi4impl12_GLOBAL__N_111node_outputERNS1_19xml_buffered_writerERKNS_8xml_nodeEPKcjj
LEHE30:
	.loc 5 3141 0
	leal	-88(%ebp), %eax
	movl	%eax, %ecx
	call	__ZNK4pugi8xml_node12next_siblingEv
	movl	%eax, -88(%ebp)
L747:
	.loc 5 3141 0 is_stmt 0 discriminator 1
	leal	-88(%ebp), %eax
	movl	%eax, %ecx
	call	__ZNK4pugi8xml_nodecvPFvPPPS0_EEv
	testl	%eax, %eax
	setne	%al
	testb	%al, %al
	jne	L748
LBE181:
LBB182:
	.loc 5 3144 0 is_stmt 1
	movl	20(%ebp), %eax
	andl	$1, %eax
	testl	%eax, %eax
	je	L749
	.loc 5 3144 0 is_stmt 0 discriminator 1
	movl	20(%ebp), %eax
	andl	$4, %eax
	testl	%eax, %eax
	jne	L749
LBB183:
LBB184:
	.loc 5 3145 0 is_stmt 1
	movl	$0, -32(%ebp)
	jmp	L750
L751:
	.loc 5 3145 0 is_stmt 0 discriminator 2
	movl	16(%ebp), %eax
	movl	%eax, (%esp)
	movl	8(%ebp), %ecx
LEHB31:
	call	__ZN4pugi4impl12_GLOBAL__N_119xml_buffered_writer5writeEPKc
	subl	$4, %esp
	incl	-32(%ebp)
L750:
	.loc 5 3145 0 discriminator 1
	movl	-32(%ebp), %eax
	cmpl	24(%ebp), %eax
	setb	%al
	testb	%al, %al
	jne	L751
L749:
LBE184:
LBE183:
LBE182:
	.loc 5 3147 0 is_stmt 1
	movl	$47, 4(%esp)
	movl	$60, (%esp)
	movl	8(%ebp), %ecx
	call	__ZN4pugi4impl12_GLOBAL__N_119xml_buffered_writer5writeEcc
	subl	$8, %esp
	.loc 5 3148 0
	movl	-40(%ebp), %eax
	movl	%eax, (%esp)
	movl	8(%ebp), %ecx
	call	__ZN4pugi4impl12_GLOBAL__N_119xml_buffered_writer5writeEPKc
	subl	$4, %esp
	.loc 5 3149 0
	movl	$10, 4(%esp)
	movl	$62, (%esp)
	movl	8(%ebp), %ecx
	call	__ZN4pugi4impl12_GLOBAL__N_119xml_buffered_writer5writeEcc
	subl	$8, %esp
LBE180:
LBE185:
LBE186:
LBE188:
LBE190:
LBE194:
	.loc 5 3152 0
	jmp	L772
L720:
LBE168:
	.loc 5 3156 0
	movl	12(%ebp), %eax
	movl	%eax, %ecx
	call	__ZNK4pugi8xml_node5valueEv
	movl	20(%ebp), %edx
	movl	%edx, 12(%esp)
	movl	$1, 8(%esp)
	movl	%eax, 4(%esp)
	movl	8(%ebp), %eax
	movl	%eax, (%esp)
	call	__ZN4pugi4impl12_GLOBAL__N_111text_outputERNS1_19xml_buffered_writerEPKcNS1_11chartypex_tEj
	.loc 5 3157 0
	movl	20(%ebp), %eax
	andl	$4, %eax
	testl	%eax, %eax
	jne	L773
	.loc 5 3157 0 is_stmt 0 discriminator 1
	movl	$10, (%esp)
	movl	8(%ebp), %ecx
	call	__ZN4pugi4impl12_GLOBAL__N_119xml_buffered_writer5writeEc
	subl	$4, %esp
	.loc 5 3158 0 is_stmt 1 discriminator 1
	jmp	L773
L721:
	.loc 5 3161 0
	movl	12(%ebp), %eax
	movl	%eax, %ecx
	call	__ZNK4pugi8xml_node5valueEv
	movl	%eax, 4(%esp)
	movl	8(%ebp), %eax
	movl	%eax, (%esp)
	call	__ZN4pugi4impl12_GLOBAL__N_117text_output_cdataERNS1_19xml_buffered_writerEPKc
	.loc 5 3162 0
	movl	20(%ebp), %eax
	andl	$4, %eax
	testl	%eax, %eax
	jne	L774
	.loc 5 3162 0 is_stmt 0 discriminator 1
	movl	$10, (%esp)
	movl	8(%ebp), %ecx
	call	__ZN4pugi4impl12_GLOBAL__N_119xml_buffered_writer5writeEc
	subl	$4, %esp
	.loc 5 3163 0 is_stmt 1 discriminator 1
	jmp	L774
L722:
	.loc 5 3166 0
	movl	$45, 12(%esp)
	movl	$45, 8(%esp)
	movl	$33, 4(%esp)
	movl	$60, (%esp)
	movl	8(%ebp), %ecx
	call	__ZN4pugi4impl12_GLOBAL__N_119xml_buffered_writer5writeEcccc
	subl	$16, %esp
	.loc 5 3167 0
	movl	12(%ebp), %eax
	movl	%eax, %ecx
	call	__ZNK4pugi8xml_node5valueEv
	movl	%eax, (%esp)
	movl	8(%ebp), %ecx
	call	__ZN4pugi4impl12_GLOBAL__N_119xml_buffered_writer5writeEPKc
	subl	$4, %esp
	.loc 5 3168 0
	movl	$62, 8(%esp)
	movl	$45, 4(%esp)
	movl	$45, (%esp)
	movl	8(%ebp), %ecx
	call	__ZN4pugi4impl12_GLOBAL__N_119xml_buffered_writer5writeEccc
	subl	$12, %esp
	.loc 5 3169 0
	movl	20(%ebp), %eax
	andl	$4, %eax
	testl	%eax, %eax
	jne	L775
	.loc 5 3169 0 is_stmt 0 discriminator 1
	movl	$10, (%esp)
	movl	8(%ebp), %ecx
	call	__ZN4pugi4impl12_GLOBAL__N_119xml_buffered_writer5writeEc
	subl	$4, %esp
	.loc 5 3170 0 is_stmt 1 discriminator 1
	jmp	L775
L723:
	.loc 5 3174 0
	movl	$63, 4(%esp)
	movl	$60, (%esp)
	movl	8(%ebp), %ecx
	call	__ZN4pugi4impl12_GLOBAL__N_119xml_buffered_writer5writeEcc
	subl	$8, %esp
	.loc 5 3175 0
	movl	12(%ebp), %eax
	movl	%eax, %ecx
	call	__ZNK4pugi8xml_node4nameEv
	movb	(%eax), %al
	testb	%al, %al
	je	L755
	.loc 5 3175 0 is_stmt 0 discriminator 1
	movl	12(%ebp), %eax
	movl	%eax, %ecx
	call	__ZNK4pugi8xml_node4nameEv
	jmp	L756
L755:
	.loc 5 3175 0 discriminator 2
	movl	-36(%ebp), %eax
L756:
	.loc 5 3175 0 discriminator 3
	movl	%eax, (%esp)
	movl	8(%ebp), %ecx
	call	__ZN4pugi4impl12_GLOBAL__N_119xml_buffered_writer5writeEPKc
	subl	$4, %esp
	.loc 5 3177 0 is_stmt 1 discriminator 3
	movl	12(%ebp), %eax
	movl	%eax, %ecx
	call	__ZNK4pugi8xml_node4typeEv
	cmpl	$7, %eax
	sete	%al
	testb	%al, %al
	je	L757
	.loc 5 3179 0
	movl	20(%ebp), %eax
	movl	%eax, 8(%esp)
	movl	12(%ebp), %eax
	movl	%eax, 4(%esp)
	movl	8(%ebp), %eax
	movl	%eax, (%esp)
	call	__ZN4pugi4impl12_GLOBAL__N_122node_output_attributesERNS1_19xml_buffered_writerERKNS_8xml_nodeEj
	jmp	L758
L757:
	.loc 5 3181 0
	movl	12(%ebp), %eax
	movl	%eax, %ecx
	call	__ZNK4pugi8xml_node5valueEv
	movb	(%eax), %al
	testb	%al, %al
	setne	%al
	testb	%al, %al
	je	L758
	.loc 5 3183 0
	movl	$32, (%esp)
	movl	8(%ebp), %ecx
	call	__ZN4pugi4impl12_GLOBAL__N_119xml_buffered_writer5writeEc
	subl	$4, %esp
	.loc 5 3184 0
	movl	12(%ebp), %eax
	movl	%eax, %ecx
	call	__ZNK4pugi8xml_node5valueEv
	movl	%eax, (%esp)
	movl	8(%ebp), %ecx
	call	__ZN4pugi4impl12_GLOBAL__N_119xml_buffered_writer5writeEPKc
	subl	$4, %esp
L758:
	.loc 5 3187 0
	movl	$62, 4(%esp)
	movl	$63, (%esp)
	movl	8(%ebp), %ecx
	call	__ZN4pugi4impl12_GLOBAL__N_119xml_buffered_writer5writeEcc
	subl	$8, %esp
	.loc 5 3188 0
	movl	20(%ebp), %eax
	andl	$4, %eax
	testl	%eax, %eax
	jne	L776
	.loc 5 3188 0 is_stmt 0 discriminator 1
	movl	$10, (%esp)
	movl	8(%ebp), %ecx
	call	__ZN4pugi4impl12_GLOBAL__N_119xml_buffered_writer5writeEc
	subl	$4, %esp
	.loc 5 3189 0 is_stmt 1 discriminator 1
	jmp	L776
L724:
	.loc 5 3192 0
	movl	$67, 16(%esp)
	movl	$79, 12(%esp)
	movl	$68, 8(%esp)
	movl	$33, 4(%esp)
	movl	$60, (%esp)
	movl	8(%ebp), %ecx
	call	__ZN4pugi4impl12_GLOBAL__N_119xml_buffered_writer5writeEccccc
	subl	$20, %esp
	.loc 5 3193 0
	movl	$69, 12(%esp)
	movl	$80, 8(%esp)
	movl	$89, 4(%esp)
	movl	$84, (%esp)
	movl	8(%ebp), %ecx
	call	__ZN4pugi4impl12_GLOBAL__N_119xml_buffered_writer5writeEcccc
	subl	$16, %esp
	.loc 5 3195 0
	movl	12(%ebp), %eax
	movl	%eax, %ecx
	call	__ZNK4pugi8xml_node5valueEv
	movb	(%eax), %al
	testb	%al, %al
	setne	%al
	testb	%al, %al
	je	L760
	.loc 5 3197 0
	movl	$32, (%esp)
	movl	8(%ebp), %ecx
	call	__ZN4pugi4impl12_GLOBAL__N_119xml_buffered_writer5writeEc
	subl	$4, %esp
	.loc 5 3198 0
	movl	12(%ebp), %eax
	movl	%eax, %ecx
	call	__ZNK4pugi8xml_node5valueEv
	movl	%eax, (%esp)
	movl	8(%ebp), %ecx
	call	__ZN4pugi4impl12_GLOBAL__N_119xml_buffered_writer5writeEPKc
	subl	$4, %esp
L760:
	.loc 5 3201 0
	movl	$62, (%esp)
	movl	8(%ebp), %ecx
	call	__ZN4pugi4impl12_GLOBAL__N_119xml_buffered_writer5writeEc
	subl	$4, %esp
	.loc 5 3202 0
	movl	20(%ebp), %eax
	andl	$4, %eax
	testl	%eax, %eax
	jne	L777
	.loc 5 3202 0 is_stmt 0 discriminator 1
	movl	$10, (%esp)
	movl	8(%ebp), %ecx
	call	__ZN4pugi4impl12_GLOBAL__N_119xml_buffered_writer5writeEc
	subl	$4, %esp
	.loc 5 3203 0 is_stmt 1 discriminator 1
	nop
	jmp	L777
L717:
	.loc 5 3206 0
	movl	$3206, 8(%esp)
	movl	$LC0, 4(%esp)
	movl	$LC29, (%esp)
	call	__assert
L767:
	movl	%eax, (%esp)
	call	__Unwind_Resume
L768:
	movl	%eax, (%esp)
	call	__Unwind_Resume
L769:
	movl	%eax, (%esp)
	call	__Unwind_Resume
L770:
	movl	%eax, (%esp)
	call	__Unwind_Resume
L771:
	movl	%eax, (%esp)
	call	__Unwind_Resume
LEHE31:
L773:
	.loc 5 3158 0
	nop
	jmp	L772
L774:
	.loc 5 3163 0
	nop
	jmp	L772
L775:
	.loc 5 3170 0
	nop
	jmp	L772
L776:
	.loc 5 3189 0
	nop
	jmp	L772
L777:
	.loc 5 3203 0
	nop
L772:
LBE165:
LBE164:
LBE160:
	.loc 5 3208 0
	leal	-12(%ebp), %esp
	popl	%ebx
	.cfi_restore 3
	popl	%esi
	.cfi_restore 6
	popl	%edi
	.cfi_restore 7
	popl	%ebp
LCFI308:
	.cfi_restore 5
	.cfi_def_cfa 4, 4
	ret
	.cfi_endproc
LFE1278:
	.section	.gcc_except_table,"w"
LLSDA1278:
	.byte	0xff
	.byte	0xff
	.byte	0x1
	.uleb128 LLSDACSE1278-LLSDACSB1278
LLSDACSB1278:
	.uleb128 LEHB22-LFB1278
	.uleb128 LEHE22-LEHB22
	.uleb128 0
	.uleb128 0
	.uleb128 LEHB23-LFB1278
	.uleb128 LEHE23-LEHB23
	.uleb128 L767-LFB1278
	.uleb128 0
	.uleb128 LEHB24-LFB1278
	.uleb128 LEHE24-LEHB24
	.uleb128 0
	.uleb128 0
	.uleb128 LEHB25-LFB1278
	.uleb128 LEHE25-LEHB25
	.uleb128 L768-LFB1278
	.uleb128 0
	.uleb128 LEHB26-LFB1278
	.uleb128 LEHE26-LEHB26
	.uleb128 0
	.uleb128 0
	.uleb128 LEHB27-LFB1278
	.uleb128 LEHE27-LEHB27
	.uleb128 L769-LFB1278
	.uleb128 0
	.uleb128 LEHB28-LFB1278
	.uleb128 LEHE28-LEHB28
	.uleb128 L770-LFB1278
	.uleb128 0
	.uleb128 LEHB29-LFB1278
	.uleb128 LEHE29-LEHB29
	.uleb128 0
	.uleb128 0
	.uleb128 LEHB30-LFB1278
	.uleb128 LEHE30-LEHB30
	.uleb128 L771-LFB1278
	.uleb128 0
	.uleb128 LEHB31-LFB1278
	.uleb128 LEHE31-LEHB31
	.uleb128 0
	.uleb128 0
LLSDACSE1278:
	.text
	.def	__ZN4pugi4impl12_GLOBAL__N_115has_declarationERKNS_8xml_nodeE;	.scl	3;	.type	32;	.endef
__ZN4pugi4impl12_GLOBAL__N_115has_declarationERKNS_8xml_nodeE:
LFB1279:
	.loc 5 3211 0
	.cfi_startproc
	pushl	%ebp
LCFI309:
	.cfi_def_cfa_offset 8
	.cfi_offset 5, -8
	movl	%esp, %ebp
LCFI310:
	.cfi_def_cfa_register 5
	subl	$24, %esp
LBB195:
LBB196:
	.loc 5 3212 0
	movl	8(%ebp), %ecx
	call	__ZNK4pugi8xml_node11first_childEv
	movl	%eax, -16(%ebp)
	jmp	L779
L783:
LBB197:
	.loc 5 3214 0
	leal	-16(%ebp), %eax
	movl	%eax, %ecx
	call	__ZNK4pugi8xml_node4typeEv
	movl	%eax, -12(%ebp)
	.loc 5 3216 0
	cmpl	$7, -12(%ebp)
	jne	L780
	.loc 5 3216 0 is_stmt 0 discriminator 1
	movb	$1, %al
	jmp	L784
L780:
	.loc 5 3217 0 is_stmt 1
	cmpl	$2, -12(%ebp)
	jne	L782
	.loc 5 3217 0 is_stmt 0 discriminator 1
	movb	$0, %al
	jmp	L784
L782:
LBE197:
	.loc 5 3212 0 is_stmt 1
	leal	-16(%ebp), %eax
	movl	%eax, %ecx
	call	__ZNK4pugi8xml_node12next_siblingEv
	movl	%eax, -16(%ebp)
L779:
	.loc 5 3212 0 is_stmt 0 discriminator 1
	leal	-16(%ebp), %eax
	movl	%eax, %ecx
	call	__ZNK4pugi8xml_nodecvPFvPPPS0_EEv
	testl	%eax, %eax
	setne	%al
	testb	%al, %al
	jne	L783
LBE196:
	.loc 5 3220 0 is_stmt 1
	movb	$0, %al
L784:
LBE195:
	.loc 5 3221 0
	leave
LCFI311:
	.cfi_restore 5
	.cfi_def_cfa 4, 4
	ret
	.cfi_endproc
LFE1279:
	.def	__ZN4pugi4impl12_GLOBAL__N_118allow_insert_childENS_13xml_node_typeES2_;	.scl	3;	.type	32;	.endef
__ZN4pugi4impl12_GLOBAL__N_118allow_insert_childENS_13xml_node_typeES2_:
LFB1280:
	.loc 5 3224 0
	.cfi_startproc
	pushl	%ebp
LCFI312:
	.cfi_def_cfa_offset 8
	.cfi_offset 5, -8
	movl	%esp, %ebp
LCFI313:
	.cfi_def_cfa_register 5
	.loc 5 3225 0
	cmpl	$1, 8(%ebp)
	je	L786
	.loc 5 3225 0 is_stmt 0 discriminator 1
	cmpl	$2, 8(%ebp)
	je	L786
	.loc 5 3225 0 discriminator 2
	movb	$0, %al
	jmp	L787
L786:
	.loc 5 3226 0 is_stmt 1
	cmpl	$1, 12(%ebp)
	je	L788
	.loc 5 3226 0 is_stmt 0 discriminator 2
	cmpl	$0, 12(%ebp)
	jne	L789
L788:
	.loc 5 3226 0 discriminator 1
	movb	$0, %al
	jmp	L787
L789:
	.loc 5 3227 0 is_stmt 1
	cmpl	$1, 8(%ebp)
	je	L790
	.loc 5 3227 0 is_stmt 0 discriminator 1
	cmpl	$7, 12(%ebp)
	je	L791
	.loc 5 3227 0 discriminator 3
	cmpl	$8, 12(%ebp)
	jne	L790
L791:
	.loc 5 3227 0 discriminator 2
	movb	$0, %al
	jmp	L787
L790:
	.loc 5 3229 0 is_stmt 1
	movb	$1, %al
L787:
	.loc 5 3230 0
	popl	%ebp
LCFI314:
	.cfi_restore 5
	.cfi_def_cfa 4, 4
	ret
	.cfi_endproc
LFE1280:
	.section .rdata,"dr"
LC30:
	.ascii "dest.type() == source.type()\0"
LC31:
	.ascii "cc\0"
	.text
	.def	__ZN4pugi4impl12_GLOBAL__N_119recursive_copy_skipERNS_8xml_nodeERKS2_S5_;	.scl	3;	.type	32;	.endef
__ZN4pugi4impl12_GLOBAL__N_119recursive_copy_skipERNS_8xml_nodeERKS2_S5_:
LFB1281:
	.loc 5 3233 0
	.cfi_startproc
	.cfi_personality 0,___gxx_personality_v0
	.cfi_lsda 0,LLSDA1281
	pushl	%ebp
LCFI315:
	.cfi_def_cfa_offset 8
	.cfi_offset 5, -8
	movl	%esp, %ebp
LCFI316:
	.cfi_def_cfa_register 5
	pushl	%ebx
	subl	$52, %esp
	.cfi_offset 3, -12
LBB198:
	.loc 5 3234 0
	movl	8(%ebp), %ecx
	call	__ZNK4pugi8xml_node4typeEv
	movl	%eax, %ebx
	movl	12(%ebp), %eax
	movl	%eax, %ecx
	call	__ZNK4pugi8xml_node4typeEv
	cmpl	%eax, %ebx
	je	L793
	.loc 5 3234 0 is_stmt 0 discriminator 1
	movl	$3234, 8(%esp)
	movl	$LC0, 4(%esp)
	movl	$LC30, (%esp)
	call	__assert
L793:
LBB199:
	.loc 5 3236 0 is_stmt 1
	movl	12(%ebp), %eax
	movl	%eax, %ecx
	call	__ZNK4pugi8xml_node4typeEv
	cmpl	$8, %eax
	ja	L794
	movl	L799(,%eax,4), %eax
	jmp	*%eax
	.section .rdata,"dr"
	.align 4
L799:
	.long	L794
	.long	L794
	.long	L795
	.long	L796
	.long	L796
	.long	L796
	.long	L797
	.long	L798
	.long	L796
	.text
L795:
LBB200:
LBB201:
	.loc 5 3240 0
	movl	12(%ebp), %eax
	movl	%eax, %ecx
	call	__ZNK4pugi8xml_node4nameEv
	movl	%eax, (%esp)
	movl	8(%ebp), %ecx
LEHB32:
	call	__ZN4pugi8xml_node8set_nameEPKc
LEHE32:
	subl	$4, %esp
LBB202:
	.loc 5 3242 0
	movl	12(%ebp), %eax
	movl	%eax, %ecx
	call	__ZNK4pugi8xml_node15first_attributeEv
	movl	%eax, -20(%ebp)
	jmp	L800
L801:
	.loc 5 3243 0
	leal	-20(%ebp), %eax
	movl	%eax, %ecx
	call	__ZNK4pugi13xml_attribute5valueEv
	movl	%eax, %ebx
	leal	-20(%ebp), %eax
	movl	%eax, %ecx
	call	__ZNK4pugi13xml_attribute4nameEv
	movl	%eax, (%esp)
	movl	8(%ebp), %ecx
LEHB33:
	call	__ZN4pugi8xml_node16append_attributeEPKc
LEHE33:
	subl	$4, %esp
	movl	%eax, -16(%ebp)
	leal	-16(%ebp), %eax
	movl	%ebx, (%esp)
	movl	%eax, %ecx
LEHB34:
	call	__ZN4pugi13xml_attribute9set_valueEPKc
LEHE34:
	.loc 5 3243 0 is_stmt 0 discriminator 1
	subl	$4, %esp
	.loc 5 3242 0 is_stmt 1 discriminator 1
	leal	-20(%ebp), %eax
	movl	%eax, %ecx
	call	__ZNK4pugi13xml_attribute14next_attributeEv
	movl	%eax, -20(%ebp)
L800:
	leal	-20(%ebp), %eax
	movl	%eax, %ecx
	call	__ZNK4pugi13xml_attributecvPFvPPPS0_EEv
	testl	%eax, %eax
	setne	%al
	testb	%al, %al
	jne	L801
LBE202:
LBB203:
	.loc 5 3245 0
	movl	12(%ebp), %eax
	movl	%eax, %ecx
	call	__ZNK4pugi8xml_node11first_childEv
	movl	%eax, -24(%ebp)
	jmp	L802
L806:
LBB204:
	.loc 5 3247 0
	leal	-24(%ebp), %eax
	movl	16(%ebp), %edx
	movl	%edx, (%esp)
	movl	%eax, %ecx
	call	__ZNK4pugi8xml_nodeeqERKS0_
	subl	$4, %esp
	testb	%al, %al
	jne	L804
L803:
	.loc 5 3249 0
	leal	-24(%ebp), %eax
	movl	%eax, %ecx
	call	__ZNK4pugi8xml_node4typeEv
	movl	%eax, (%esp)
	movl	8(%ebp), %ecx
LEHB35:
	call	__ZN4pugi8xml_node12append_childENS_13xml_node_typeE
	subl	$4, %esp
	movl	%eax, -28(%ebp)
	.loc 5 3250 0
	leal	-28(%ebp), %eax
	movl	%eax, %ecx
	call	__ZNK4pugi8xml_nodecvPFvPPPS0_EEv
	testl	%eax, %eax
	jne	L805
	.loc 5 3250 0 is_stmt 0 discriminator 1
	movl	$3250, 8(%esp)
	movl	$LC0, 4(%esp)
	movl	$LC31, (%esp)
	call	__assert
L805:
	.loc 5 3252 0 is_stmt 1
	movl	16(%ebp), %eax
	movl	%eax, 8(%esp)
	leal	-24(%ebp), %eax
	movl	%eax, 4(%esp)
	leal	-28(%ebp), %eax
	movl	%eax, (%esp)
	call	__ZN4pugi4impl12_GLOBAL__N_119recursive_copy_skipERNS_8xml_nodeERKS2_S5_
LEHE35:
L804:
LBE204:
	.loc 5 3245 0
	leal	-24(%ebp), %eax
	movl	%eax, %ecx
	call	__ZNK4pugi8xml_node12next_siblingEv
	movl	%eax, -24(%ebp)
L802:
	.loc 5 3245 0 is_stmt 0 discriminator 1
	leal	-24(%ebp), %eax
	movl	%eax, %ecx
	call	__ZNK4pugi8xml_nodecvPFvPPPS0_EEv
	testl	%eax, %eax
	setne	%al
	testb	%al, %al
	jne	L806
LBE203:
	.loc 5 3255 0 is_stmt 1
	jmp	L820
L796:
LBE201:
	.loc 5 3262 0
	movl	12(%ebp), %eax
	movl	%eax, %ecx
	call	__ZNK4pugi8xml_node5valueEv
	movl	%eax, (%esp)
	movl	8(%ebp), %ecx
LEHB36:
	call	__ZN4pugi8xml_node9set_valueEPKc
	subl	$4, %esp
	.loc 5 3263 0
	jmp	L820
L797:
	.loc 5 3266 0
	movl	12(%ebp), %eax
	movl	%eax, %ecx
	call	__ZNK4pugi8xml_node4nameEv
	movl	%eax, (%esp)
	movl	8(%ebp), %ecx
	call	__ZN4pugi8xml_node8set_nameEPKc
	subl	$4, %esp
	.loc 5 3267 0
	movl	12(%ebp), %eax
	movl	%eax, %ecx
	call	__ZNK4pugi8xml_node5valueEv
	movl	%eax, (%esp)
	movl	8(%ebp), %ecx
	call	__ZN4pugi8xml_node9set_valueEPKc
	subl	$4, %esp
	.loc 5 3268 0
	jmp	L820
L798:
LBB205:
	.loc 5 3272 0
	movl	12(%ebp), %eax
	movl	%eax, %ecx
	call	__ZNK4pugi8xml_node4nameEv
	movl	%eax, (%esp)
	movl	8(%ebp), %ecx
	call	__ZN4pugi8xml_node8set_nameEPKc
LEHE36:
	subl	$4, %esp
LBB206:
	.loc 5 3274 0
	movl	12(%ebp), %eax
	movl	%eax, %ecx
	call	__ZNK4pugi8xml_node15first_attributeEv
	movl	%eax, -32(%ebp)
	jmp	L808
L809:
	.loc 5 3275 0
	leal	-32(%ebp), %eax
	movl	%eax, %ecx
	call	__ZNK4pugi13xml_attribute5valueEv
	movl	%eax, %ebx
	leal	-32(%ebp), %eax
	movl	%eax, %ecx
	call	__ZNK4pugi13xml_attribute4nameEv
	movl	%eax, (%esp)
	movl	8(%ebp), %ecx
LEHB37:
	call	__ZN4pugi8xml_node16append_attributeEPKc
LEHE37:
	subl	$4, %esp
	movl	%eax, -12(%ebp)
	leal	-12(%ebp), %eax
	movl	%ebx, (%esp)
	movl	%eax, %ecx
LEHB38:
	call	__ZN4pugi13xml_attribute9set_valueEPKc
LEHE38:
	.loc 5 3275 0 is_stmt 0 discriminator 1
	subl	$4, %esp
	.loc 5 3274 0 is_stmt 1 discriminator 1
	leal	-32(%ebp), %eax
	movl	%eax, %ecx
	call	__ZNK4pugi13xml_attribute14next_attributeEv
	movl	%eax, -32(%ebp)
L808:
	leal	-32(%ebp), %eax
	movl	%eax, %ecx
	call	__ZNK4pugi13xml_attributecvPFvPPPS0_EEv
	testl	%eax, %eax
	setne	%al
	testb	%al, %al
	jne	L809
LBE206:
	.loc 5 3277 0
	jmp	L820
L794:
LBE205:
	.loc 5 3281 0
	movl	$3281, 8(%esp)
	movl	$LC0, 4(%esp)
	movl	$LC29, (%esp)
	call	__assert
L816:
	jmp	L811
L815:
L811:
	movl	%eax, (%esp)
LEHB39:
	call	__Unwind_Resume
L817:
	movl	%eax, (%esp)
	call	__Unwind_Resume
L819:
	jmp	L814
L818:
L814:
	movl	%eax, (%esp)
	call	__Unwind_Resume
LEHE39:
L820:
LBE200:
LBE199:
LBE198:
	.loc 5 3283 0
	movl	-4(%ebp), %ebx
	leave
LCFI317:
	.cfi_restore 5
	.cfi_restore 3
	.cfi_def_cfa 4, 4
	ret
	.cfi_endproc
LFE1281:
	.section	.gcc_except_table,"w"
LLSDA1281:
	.byte	0xff
	.byte	0xff
	.byte	0x1
	.uleb128 LLSDACSE1281-LLSDACSB1281
LLSDACSB1281:
	.uleb128 LEHB32-LFB1281
	.uleb128 LEHE32-LEHB32
	.uleb128 0
	.uleb128 0
	.uleb128 LEHB33-LFB1281
	.uleb128 LEHE33-LEHB33
	.uleb128 L815-LFB1281
	.uleb128 0
	.uleb128 LEHB34-LFB1281
	.uleb128 LEHE34-LEHB34
	.uleb128 L816-LFB1281
	.uleb128 0
	.uleb128 LEHB35-LFB1281
	.uleb128 LEHE35-LEHB35
	.uleb128 L817-LFB1281
	.uleb128 0
	.uleb128 LEHB36-LFB1281
	.uleb128 LEHE36-LEHB36
	.uleb128 0
	.uleb128 0
	.uleb128 LEHB37-LFB1281
	.uleb128 LEHE37-LEHB37
	.uleb128 L818-LFB1281
	.uleb128 0
	.uleb128 LEHB38-LFB1281
	.uleb128 LEHE38-LEHB38
	.uleb128 L819-LFB1281
	.uleb128 0
	.uleb128 LEHB39-LFB1281
	.uleb128 LEHE39-LEHB39
	.uleb128 0
	.uleb128 0
LLSDACSE1281:
	.text
	.def	__ZN4pugi4impl12_GLOBAL__N_112is_text_nodeEPNS_15xml_node_structE;	.scl	3;	.type	32;	.endef
__ZN4pugi4impl12_GLOBAL__N_112is_text_nodeEPNS_15xml_node_structE:
LFB1282:
	.loc 5 3286 0
	.cfi_startproc
	pushl	%ebp
LCFI318:
	.cfi_def_cfa_offset 8
	.cfi_offset 5, -8
	movl	%esp, %ebp
LCFI319:
	.cfi_def_cfa_register 5
	subl	$16, %esp
LBB207:
	.loc 5 3287 0
	movl	8(%ebp), %eax
	movl	(%eax), %eax
	andl	$7, %eax
	incl	%eax
	movl	%eax, -4(%ebp)
	.loc 5 3289 0
	cmpl	$3, -4(%ebp)
	je	L822
	.loc 5 3289 0 is_stmt 0 discriminator 2
	cmpl	$4, -4(%ebp)
	jne	L823
L822:
	.loc 5 3289 0 discriminator 1
	movb	$1, %al
	jmp	L824
L823:
	.loc 5 3289 0 discriminator 3
	movb	$0, %al
L824:
LBE207:
	.loc 5 3290 0 is_stmt 1 discriminator 4
	leave
LCFI320:
	.cfi_restore 5
	.cfi_def_cfa 4, 4
	ret
	.cfi_endproc
LFE1282:
	.def	__ZN4pugi4impl12_GLOBAL__N_113get_value_intEPKci;	.scl	3;	.type	32;	.endef
__ZN4pugi4impl12_GLOBAL__N_113get_value_intEPKci:
LFB1283:
	.loc 5 3294 0
	.cfi_startproc
	pushl	%ebp
LCFI321:
	.cfi_def_cfa_offset 8
	.cfi_offset 5, -8
	movl	%esp, %ebp
LCFI322:
	.cfi_def_cfa_register 5
	subl	$24, %esp
	.loc 5 3295 0
	cmpl	$0, 8(%ebp)
	jne	L827
	.loc 5 3295 0 is_stmt 0 discriminator 1
	movl	12(%ebp), %eax
	jmp	L828
L827:
	.loc 5 3300 0 is_stmt 1
	movl	$10, 8(%esp)
	movl	$0, 4(%esp)
	movl	8(%ebp), %eax
	movl	%eax, (%esp)
	call	_strtol
L828:
	.loc 5 3302 0
	leave
LCFI323:
	.cfi_restore 5
	.cfi_def_cfa 4, 4
	ret
	.cfi_endproc
LFE1283:
	.def	__ZN4pugi4impl12_GLOBAL__N_114get_value_uintEPKcj;	.scl	3;	.type	32;	.endef
__ZN4pugi4impl12_GLOBAL__N_114get_value_uintEPKcj:
LFB1284:
	.loc 5 3305 0
	.cfi_startproc
	pushl	%ebp
LCFI324:
	.cfi_def_cfa_offset 8
	.cfi_offset 5, -8
	movl	%esp, %ebp
LCFI325:
	.cfi_def_cfa_register 5
	subl	$24, %esp
	.loc 5 3306 0
	cmpl	$0, 8(%ebp)
	jne	L830
	.loc 5 3306 0 is_stmt 0 discriminator 1
	movl	12(%ebp), %eax
	jmp	L831
L830:
	.loc 5 3311 0 is_stmt 1
	movl	$10, 8(%esp)
	movl	$0, 4(%esp)
	movl	8(%ebp), %eax
	movl	%eax, (%esp)
	call	_strtoul
L831:
	.loc 5 3313 0
	leave
LCFI326:
	.cfi_restore 5
	.cfi_def_cfa 4, 4
	ret
	.cfi_endproc
LFE1284:
	.def	__ZN4pugi4impl12_GLOBAL__N_116get_value_doubleEPKcd;	.scl	3;	.type	32;	.endef
__ZN4pugi4impl12_GLOBAL__N_116get_value_doubleEPKcd:
LFB1285:
	.loc 5 3316 0
	.cfi_startproc
	pushl	%ebp
LCFI327:
	.cfi_def_cfa_offset 8
	.cfi_offset 5, -8
	movl	%esp, %ebp
LCFI328:
	.cfi_def_cfa_register 5
	subl	$40, %esp
	movl	12(%ebp), %eax
	movl	%eax, -16(%ebp)
	movl	16(%ebp), %eax
	movl	%eax, -12(%ebp)
	.loc 5 3317 0
	cmpl	$0, 8(%ebp)
	jne	L833
	.loc 5 3317 0 is_stmt 0 discriminator 1
	movl	-16(%ebp), %eax
	movl	-12(%ebp), %edx
	jmp	L834
L833:
	.loc 5 3322 0 is_stmt 1
	movl	$0, 4(%esp)
	movl	8(%ebp), %eax
	movl	%eax, (%esp)
	call	_strtod
	fstpl	-24(%ebp)
	movl	-24(%ebp), %eax
	movl	-20(%ebp), %edx
L834:
	movl	%eax, -24(%ebp)
	movl	%edx, -20(%ebp)
	fldl	-24(%ebp)
	.loc 5 3324 0
	leave
LCFI329:
	.cfi_restore 5
	.cfi_def_cfa 4, 4
	ret
	.cfi_endproc
LFE1285:
	.def	__ZN4pugi4impl12_GLOBAL__N_115get_value_floatEPKcf;	.scl	3;	.type	32;	.endef
__ZN4pugi4impl12_GLOBAL__N_115get_value_floatEPKcf:
LFB1286:
	.loc 5 3327 0
	.cfi_startproc
	pushl	%ebp
LCFI330:
	.cfi_def_cfa_offset 8
	.cfi_offset 5, -8
	movl	%esp, %ebp
LCFI331:
	.cfi_def_cfa_register 5
	subl	$40, %esp
	.loc 5 3328 0
	cmpl	$0, 8(%ebp)
	jne	L836
	.loc 5 3328 0 is_stmt 0 discriminator 1
	movl	12(%ebp), %eax
	jmp	L837
L836:
	.loc 5 3333 0 is_stmt 1
	movl	$0, 4(%esp)
	movl	8(%ebp), %eax
	movl	%eax, (%esp)
	call	_strtod
	fstps	-12(%ebp)
	movl	-12(%ebp), %eax
L837:
	movl	%eax, -16(%ebp)
	flds	-16(%ebp)
	.loc 5 3335 0
	leave
LCFI332:
	.cfi_restore 5
	.cfi_def_cfa 4, 4
	ret
	.cfi_endproc
LFE1286:
	.def	__ZN4pugi4impl12_GLOBAL__N_114get_value_boolEPKcb;	.scl	3;	.type	32;	.endef
__ZN4pugi4impl12_GLOBAL__N_114get_value_boolEPKcb:
LFB1287:
	.loc 5 3338 0
	.cfi_startproc
	pushl	%ebp
LCFI333:
	.cfi_def_cfa_offset 8
	.cfi_offset 5, -8
	movl	%esp, %ebp
LCFI334:
	.cfi_def_cfa_register 5
	subl	$20, %esp
	movl	12(%ebp), %eax
	movb	%al, -20(%ebp)
LBB208:
	.loc 5 3339 0
	cmpl	$0, 8(%ebp)
	jne	L839
	.loc 5 3339 0 is_stmt 0 discriminator 1
	movb	-20(%ebp), %al
	jmp	L840
L839:
	.loc 5 3342 0 is_stmt 1
	movl	8(%ebp), %eax
	movb	(%eax), %al
	movb	%al, -1(%ebp)
	.loc 5 3345 0
	cmpb	$49, -1(%ebp)
	je	L841
	.loc 5 3345 0 is_stmt 0 discriminator 2
	cmpb	$116, -1(%ebp)
	je	L841
	.loc 5 3345 0 discriminator 3
	cmpb	$84, -1(%ebp)
	je	L841
	.loc 5 3345 0 discriminator 4
	cmpb	$121, -1(%ebp)
	je	L841
	.loc 5 3345 0 discriminator 5
	cmpb	$89, -1(%ebp)
	jne	L842
L841:
	.loc 5 3345 0 discriminator 1
	movb	$1, %al
	jmp	L843
L842:
	.loc 5 3345 0 discriminator 6
	movb	$0, %al
L843:
L840:
LBE208:
	.loc 5 3346 0 is_stmt 1
	leave
LCFI335:
	.cfi_restore 5
	.cfi_def_cfa 4, 4
	ret
	.cfi_endproc
LFE1287:
	.def	__ZN4pugi4impl12_GLOBAL__N_116set_value_bufferERPcRjjRA128_c;	.scl	3;	.type	32;	.endef
__ZN4pugi4impl12_GLOBAL__N_116set_value_bufferERPcRjjRA128_c:
LFB1288:
	.loc 5 3350 0
	.cfi_startproc
	pushl	%ebp
LCFI336:
	.cfi_def_cfa_offset 8
	.cfi_offset 5, -8
	movl	%esp, %ebp
LCFI337:
	.cfi_def_cfa_register 5
	subl	$24, %esp
	.loc 5 3357 0
	movl	20(%ebp), %eax
	movl	%eax, 12(%esp)
	movl	16(%ebp), %eax
	movl	%eax, 8(%esp)
	movl	12(%ebp), %eax
	movl	%eax, 4(%esp)
	movl	8(%ebp), %eax
	movl	%eax, (%esp)
	call	__ZN4pugi4impl12_GLOBAL__N_113strcpy_insituERPcRjjPKc
	.loc 5 3359 0
	leave
LCFI338:
	.cfi_restore 5
	.cfi_def_cfa 4, 4
	ret
	.cfi_endproc
LFE1288:
	.section .rdata,"dr"
LC33:
	.ascii "%d\0"
	.text
	.def	__ZN4pugi4impl12_GLOBAL__N_117set_value_convertERPcRjji;	.scl	3;	.type	32;	.endef
__ZN4pugi4impl12_GLOBAL__N_117set_value_convertERPcRjji:
LFB1289:
	.loc 5 3362 0
	.cfi_startproc
	.cfi_personality 0,___gxx_personality_v0
	.cfi_lsda 0,LLSDA1289
	pushl	%ebp
LCFI339:
	.cfi_def_cfa_offset 8
	.cfi_offset 5, -8
	movl	%esp, %ebp
LCFI340:
	.cfi_def_cfa_register 5
	subl	$152, %esp
LBB209:
	.loc 5 3364 0
	movl	20(%ebp), %eax
	movl	%eax, 8(%esp)
	movl	$LC33, 4(%esp)
	leal	-136(%ebp), %eax
	movl	%eax, (%esp)
	call	_sprintf
	.loc 5 3366 0
	leal	-136(%ebp), %eax
	movl	%eax, 12(%esp)
	movl	16(%ebp), %eax
	movl	%eax, 8(%esp)
	movl	12(%ebp), %eax
	movl	%eax, 4(%esp)
	movl	8(%ebp), %eax
	movl	%eax, (%esp)
LEHB40:
	call	__ZN4pugi4impl12_GLOBAL__N_116set_value_bufferERPcRjjRA128_c
LEHE40:
	jmp	L850
L849:
	movl	%eax, (%esp)
LEHB41:
	call	__Unwind_Resume
LEHE41:
L850:
LBE209:
	.loc 5 3367 0
	leave
LCFI341:
	.cfi_restore 5
	.cfi_def_cfa 4, 4
	ret
	.cfi_endproc
LFE1289:
	.section	.gcc_except_table,"w"
LLSDA1289:
	.byte	0xff
	.byte	0xff
	.byte	0x1
	.uleb128 LLSDACSE1289-LLSDACSB1289
LLSDACSB1289:
	.uleb128 LEHB40-LFB1289
	.uleb128 LEHE40-LEHB40
	.uleb128 L849-LFB1289
	.uleb128 0
	.uleb128 LEHB41-LFB1289
	.uleb128 LEHE41-LEHB41
	.uleb128 0
	.uleb128 0
LLSDACSE1289:
	.text
	.section .rdata,"dr"
LC34:
	.ascii "%u\0"
	.text
	.def	__ZN4pugi4impl12_GLOBAL__N_117set_value_convertERPcRjjj;	.scl	3;	.type	32;	.endef
__ZN4pugi4impl12_GLOBAL__N_117set_value_convertERPcRjjj:
LFB1290:
	.loc 5 3370 0
	.cfi_startproc
	.cfi_personality 0,___gxx_personality_v0
	.cfi_lsda 0,LLSDA1290
	pushl	%ebp
LCFI342:
	.cfi_def_cfa_offset 8
	.cfi_offset 5, -8
	movl	%esp, %ebp
LCFI343:
	.cfi_def_cfa_register 5
	subl	$152, %esp
LBB210:
	.loc 5 3372 0
	movl	20(%ebp), %eax
	movl	%eax, 8(%esp)
	movl	$LC34, 4(%esp)
	leal	-136(%ebp), %eax
	movl	%eax, (%esp)
	call	_sprintf
	.loc 5 3374 0
	leal	-136(%ebp), %eax
	movl	%eax, 12(%esp)
	movl	16(%ebp), %eax
	movl	%eax, 8(%esp)
	movl	12(%ebp), %eax
	movl	%eax, 4(%esp)
	movl	8(%ebp), %eax
	movl	%eax, (%esp)
LEHB42:
	call	__ZN4pugi4impl12_GLOBAL__N_116set_value_bufferERPcRjjRA128_c
LEHE42:
	jmp	L855
L854:
	movl	%eax, (%esp)
LEHB43:
	call	__Unwind_Resume
LEHE43:
L855:
LBE210:
	.loc 5 3375 0
	leave
LCFI344:
	.cfi_restore 5
	.cfi_def_cfa 4, 4
	ret
	.cfi_endproc
LFE1290:
	.section	.gcc_except_table,"w"
LLSDA1290:
	.byte	0xff
	.byte	0xff
	.byte	0x1
	.uleb128 LLSDACSE1290-LLSDACSB1290
LLSDACSB1290:
	.uleb128 LEHB42-LFB1290
	.uleb128 LEHE42-LEHB42
	.uleb128 L854-LFB1290
	.uleb128 0
	.uleb128 LEHB43-LFB1290
	.uleb128 LEHE43-LEHB43
	.uleb128 0
	.uleb128 0
LLSDACSE1290:
	.text
	.section .rdata,"dr"
LC35:
	.ascii "%g\0"
	.text
	.def	__ZN4pugi4impl12_GLOBAL__N_117set_value_convertERPcRjjd;	.scl	3;	.type	32;	.endef
__ZN4pugi4impl12_GLOBAL__N_117set_value_convertERPcRjjd:
LFB1291:
	.loc 5 3378 0
	.cfi_startproc
	.cfi_personality 0,___gxx_personality_v0
	.cfi_lsda 0,LLSDA1291
	pushl	%ebp
LCFI345:
	.cfi_def_cfa_offset 8
	.cfi_offset 5, -8
	movl	%esp, %ebp
LCFI346:
	.cfi_def_cfa_register 5
	subl	$168, %esp
	movl	20(%ebp), %eax
	movl	%eax, -144(%ebp)
	movl	24(%ebp), %eax
	movl	%eax, -140(%ebp)
LBB211:
	.loc 5 3380 0
	movl	-144(%ebp), %eax
	movl	-140(%ebp), %edx
	movl	%eax, 8(%esp)
	movl	%edx, 12(%esp)
	movl	$LC35, 4(%esp)
	leal	-136(%ebp), %eax
	movl	%eax, (%esp)
	call	_sprintf
	.loc 5 3382 0
	leal	-136(%ebp), %eax
	movl	%eax, 12(%esp)
	movl	16(%ebp), %eax
	movl	%eax, 8(%esp)
	movl	12(%ebp), %eax
	movl	%eax, 4(%esp)
	movl	8(%ebp), %eax
	movl	%eax, (%esp)
LEHB44:
	call	__ZN4pugi4impl12_GLOBAL__N_116set_value_bufferERPcRjjRA128_c
LEHE44:
	jmp	L860
L859:
	movl	%eax, (%esp)
LEHB45:
	call	__Unwind_Resume
LEHE45:
L860:
LBE211:
	.loc 5 3383 0
	leave
LCFI347:
	.cfi_restore 5
	.cfi_def_cfa 4, 4
	ret
	.cfi_endproc
LFE1291:
	.section	.gcc_except_table,"w"
LLSDA1291:
	.byte	0xff
	.byte	0xff
	.byte	0x1
	.uleb128 LLSDACSE1291-LLSDACSB1291
LLSDACSB1291:
	.uleb128 LEHB44-LFB1291
	.uleb128 LEHE44-LEHB44
	.uleb128 L859-LFB1291
	.uleb128 0
	.uleb128 LEHB45-LFB1291
	.uleb128 LEHE45-LEHB45
	.uleb128 0
	.uleb128 0
LLSDACSE1291:
	.text
	.section .rdata,"dr"
LC36:
	.ascii "true\0"
LC37:
	.ascii "false\0"
	.text
	.def	__ZN4pugi4impl12_GLOBAL__N_117set_value_convertERPcRjjb;	.scl	3;	.type	32;	.endef
__ZN4pugi4impl12_GLOBAL__N_117set_value_convertERPcRjjb:
LFB1292:
	.loc 5 3386 0
	.cfi_startproc
	pushl	%ebp
LCFI348:
	.cfi_def_cfa_offset 8
	.cfi_offset 5, -8
	movl	%esp, %ebp
LCFI349:
	.cfi_def_cfa_register 5
	subl	$40, %esp
	movl	20(%ebp), %eax
	movb	%al, -12(%ebp)
	.loc 5 3387 0
	cmpb	$0, -12(%ebp)
	je	L862
	.loc 5 3387 0 is_stmt 0 discriminator 1
	movl	$LC36, %eax
	jmp	L863
L862:
	.loc 5 3387 0 discriminator 2
	movl	$LC37, %eax
L863:
	.loc 5 3387 0 discriminator 3
	movl	%eax, 12(%esp)
	movl	16(%ebp), %eax
	movl	%eax, 8(%esp)
	movl	12(%ebp), %eax
	movl	%eax, 4(%esp)
	movl	8(%ebp), %eax
	movl	%eax, (%esp)
	call	__ZN4pugi4impl12_GLOBAL__N_113strcpy_insituERPcRjjPKc
	.loc 5 3388 0 is_stmt 1 discriminator 3
	leave
LCFI350:
	.cfi_restore 5
	.cfi_def_cfa 4, 4
	ret
	.cfi_endproc
LFE1292:
	.def	__ZN4pugi4impl12_GLOBAL__N_113get_file_sizeEP6_iobufRj;	.scl	3;	.type	32;	.endef
__ZN4pugi4impl12_GLOBAL__N_113get_file_sizeEP6_iobufRj:
LFB1293:
	.loc 5 3392 0
	.cfi_startproc
	pushl	%ebp
LCFI351:
	.cfi_def_cfa_offset 8
	.cfi_offset 5, -8
	movl	%esp, %ebp
LCFI352:
	.cfi_def_cfa_register 5
	subl	$40, %esp
LBB212:
	.loc 5 3411 0
	movl	$2, 8(%esp)
	movl	$0, 4(%esp)
	movl	8(%ebp), %eax
	movl	%eax, (%esp)
	call	_fseek
	.loc 5 3412 0
	movl	8(%ebp), %eax
	movl	%eax, (%esp)
	call	_ftell
	movl	%eax, -12(%ebp)
	.loc 5 3413 0
	movl	$0, 8(%esp)
	movl	$0, 4(%esp)
	movl	8(%ebp), %eax
	movl	%eax, (%esp)
	call	_fseek
	.loc 5 3417 0
	cmpl	$0, -12(%ebp)
	jns	L866
	.loc 5 3417 0 is_stmt 0 discriminator 1
	movl	$2, %eax
	jmp	L867
L866:
	.loc 5 3420 0 is_stmt 1
	movl	-12(%ebp), %eax
	movl	%eax, -16(%ebp)
	.loc 5 3422 0
	movl	-16(%ebp), %eax
	cmpl	-12(%ebp), %eax
	je	L868
	.loc 5 3422 0 is_stmt 0 discriminator 1
	movl	$3, %eax
	jmp	L867
L868:
	.loc 5 3425 0 is_stmt 1
	movl	12(%ebp), %eax
	movl	-16(%ebp), %edx
	movl	%edx, (%eax)
	.loc 5 3427 0
	movl	$0, %eax
L867:
LBE212:
	.loc 5 3428 0
	leave
LCFI353:
	.cfi_restore 5
	.cfi_def_cfa 4, 4
	ret
	.cfi_endproc
LFE1293:
	.def	__ZN4pugi4impl12_GLOBAL__N_114load_file_implERNS_12xml_documentEP6_iobufjNS_12xml_encodingE;	.scl	3;	.type	32;	.endef
__ZN4pugi4impl12_GLOBAL__N_114load_file_implERNS_12xml_documentEP6_iobufjNS_12xml_encodingE:
LFB1294:
	.loc 5 3431 0
	.cfi_startproc
	.cfi_personality 0,___gxx_personality_v0
	.cfi_lsda 0,LLSDA1294
	pushl	%ebp
LCFI354:
	.cfi_def_cfa_offset 8
	.cfi_offset 5, -8
	movl	%esp, %ebp
LCFI355:
	.cfi_def_cfa_register 5
	subl	$56, %esp
LBB213:
	.loc 5 3432 0
	cmpl	$0, 16(%ebp)
	jne	L870
	.loc 5 3432 0 is_stmt 0 discriminator 1
	movl	8(%ebp), %eax
	movl	$0, 8(%esp)
	movl	$1, 4(%esp)
	movl	%eax, (%esp)
	call	__ZN4pugi4impl12_GLOBAL__N_117make_parse_resultENS_16xml_parse_statusEi
	jmp	L869
L870:
	.loc 5 3435 0 is_stmt 1
	movl	$0, -24(%ebp)
	.loc 5 3436 0
	leal	-24(%ebp), %eax
	movl	%eax, 4(%esp)
	movl	16(%ebp), %eax
	movl	%eax, (%esp)
	call	__ZN4pugi4impl12_GLOBAL__N_113get_file_sizeEP6_iobufRj
	movl	%eax, -12(%ebp)
	.loc 5 3438 0
	cmpl	$0, -12(%ebp)
	je	L872
	.loc 5 3440 0
	movl	16(%ebp), %eax
	movl	%eax, (%esp)
	call	_fclose
	.loc 5 3441 0
	movl	8(%ebp), %eax
	movl	$0, 8(%esp)
	movl	-12(%ebp), %edx
	movl	%edx, 4(%esp)
	movl	%eax, (%esp)
	call	__ZN4pugi4impl12_GLOBAL__N_117make_parse_resultENS_16xml_parse_statusEi
	jmp	L869
L872:
	.loc 5 3445 0
	movl	__ZN4pugi4impl12_GLOBAL__N_138xml_memory_management_function_storageIiE8allocateE, %edx
	movl	-24(%ebp), %eax
	testl	%eax, %eax
	je	L873
	.loc 5 3445 0 is_stmt 0 discriminator 1
	movl	-24(%ebp), %eax
	jmp	L874
L873:
	.loc 5 3445 0 discriminator 2
	movl	$1, %eax
L874:
	.loc 5 3445 0 discriminator 3
	movl	%eax, (%esp)
LEHB46:
	call	*%edx
	movl	%eax, -16(%ebp)
	.loc 5 3447 0 is_stmt 1 discriminator 3
	cmpl	$0, -16(%ebp)
	jne	L875
	.loc 5 3449 0
	movl	16(%ebp), %eax
	movl	%eax, (%esp)
	call	_fclose
	.loc 5 3450 0
	movl	8(%ebp), %eax
	movl	$0, 8(%esp)
	movl	$3, 4(%esp)
	movl	%eax, (%esp)
	call	__ZN4pugi4impl12_GLOBAL__N_117make_parse_resultENS_16xml_parse_statusEi
	jmp	L869
L875:
	.loc 5 3454 0
	movl	-24(%ebp), %eax
	movl	16(%ebp), %edx
	movl	%edx, 12(%esp)
	movl	%eax, 8(%esp)
	movl	$1, 4(%esp)
	movl	-16(%ebp), %eax
	movl	%eax, (%esp)
	call	_fread
	movl	%eax, -20(%ebp)
	.loc 5 3455 0
	movl	16(%ebp), %eax
	movl	%eax, (%esp)
	call	_fclose
	.loc 5 3457 0
	movl	-24(%ebp), %eax
	cmpl	%eax, -20(%ebp)
	je	L876
	.loc 5 3459 0
	movl	__ZN4pugi4impl12_GLOBAL__N_138xml_memory_management_function_storageIiE10deallocateE, %eax
	movl	-16(%ebp), %edx
	movl	%edx, (%esp)
	call	*%eax
	.loc 5 3460 0
	movl	8(%ebp), %eax
	movl	$0, 8(%esp)
	movl	$2, 4(%esp)
	movl	%eax, (%esp)
	call	__ZN4pugi4impl12_GLOBAL__N_117make_parse_resultENS_16xml_parse_statusEi
	jmp	L869
L876:
	.loc 5 3463 0
	movl	-24(%ebp), %edx
	movl	8(%ebp), %eax
	movl	24(%ebp), %ecx
	movl	%ecx, 16(%esp)
	movl	20(%ebp), %ecx
	movl	%ecx, 12(%esp)
	movl	%edx, 8(%esp)
	movl	-16(%ebp), %edx
	movl	%edx, 4(%esp)
	movl	12(%ebp), %edx
	movl	%edx, (%esp)
	movl	%eax, %ecx
	call	__ZN4pugi12xml_document23load_buffer_inplace_ownEPvjjNS_12xml_encodingE
LEHE46:
	subl	$20, %esp
	jmp	L869
L879:
	movl	%eax, (%esp)
LEHB47:
	call	__Unwind_Resume
LEHE47:
L869:
LBE213:
	.loc 5 3464 0
	movl	8(%ebp), %eax
	leave
LCFI356:
	.cfi_restore 5
	.cfi_def_cfa 4, 4
	ret
	.cfi_endproc
LFE1294:
	.section	.gcc_except_table,"w"
LLSDA1294:
	.byte	0xff
	.byte	0xff
	.byte	0x1
	.uleb128 LLSDACSE1294-LLSDACSB1294
LLSDACSB1294:
	.uleb128 LEHB46-LFB1294
	.uleb128 LEHE46-LEHB46
	.uleb128 L879-LFB1294
	.uleb128 0
	.uleb128 LEHB47-LFB1294
	.uleb128 LEHE47-LEHB47
	.uleb128 0
	.uleb128 0
LLSDACSE1294:
	.text
	.section .rdata,"dr"
LC38:
	.ascii "str\0"
	.text
	.def	__ZN4pugi4impl12_GLOBAL__N_117convert_path_heapEPKw;	.scl	3;	.type	32;	.endef
__ZN4pugi4impl12_GLOBAL__N_117convert_path_heapEPKw:
LFB1301:
	.loc 5 3605 0
	.cfi_startproc
	pushl	%ebp
LCFI357:
	.cfi_def_cfa_offset 8
	.cfi_offset 5, -8
	movl	%esp, %ebp
LCFI358:
	.cfi_def_cfa_register 5
	subl	$40, %esp
LBB214:
	.loc 5 3606 0
	cmpl	$0, 8(%ebp)
	jne	L881
	.loc 5 3606 0 is_stmt 0 discriminator 1
	movl	$3606, 8(%esp)
	movl	$LC0, 4(%esp)
	movl	$LC38, (%esp)
	call	__assert
L881:
	.loc 5 3609 0 is_stmt 1
	movl	8(%ebp), %eax
	movl	%eax, (%esp)
	call	_wcslen
	movl	%eax, -12(%ebp)
	.loc 5 3610 0
	movl	-12(%ebp), %eax
	movl	%eax, 4(%esp)
	movl	8(%ebp), %eax
	movl	%eax, (%esp)
	call	__ZN4pugi4impl12_GLOBAL__N_113as_utf8_beginEPKwj
	movl	%eax, -16(%ebp)
	.loc 5 3613 0
	movl	__ZN4pugi4impl12_GLOBAL__N_138xml_memory_management_function_storageIiE8allocateE, %eax
	movl	-16(%ebp), %edx
	incl	%edx
	movl	%edx, (%esp)
	call	*%eax
	movl	%eax, -20(%ebp)
	.loc 5 3614 0
	cmpl	$0, -20(%ebp)
	jne	L882
	.loc 5 3614 0 is_stmt 0 discriminator 1
	movl	$0, %eax
	jmp	L883
L882:
	.loc 5 3617 0 is_stmt 1
	movl	-12(%ebp), %eax
	movl	%eax, 12(%esp)
	movl	8(%ebp), %eax
	movl	%eax, 8(%esp)
	movl	-16(%ebp), %eax
	movl	%eax, 4(%esp)
	movl	-20(%ebp), %eax
	movl	%eax, (%esp)
	call	__ZN4pugi4impl12_GLOBAL__N_111as_utf8_endEPcjPKwj
	.loc 5 3619 0
	movl	-20(%ebp), %eax
L883:
LBE214:
	.loc 5 3620 0
	leave
LCFI359:
	.cfi_restore 5
	.cfi_def_cfa 4, 4
	ret
	.cfi_endproc
LFE1301:
	.def	__ZN4pugi4impl12_GLOBAL__N_114open_file_wideEPKwS3_;	.scl	3;	.type	32;	.endef
__ZN4pugi4impl12_GLOBAL__N_114open_file_wideEPKwS3_:
LFB1302:
	.loc 5 3623 0
	.cfi_startproc
	.cfi_personality 0,___gxx_personality_v0
	.cfi_lsda 0,LLSDA1302
	pushl	%ebp
LCFI360:
	.cfi_def_cfa_offset 8
	.cfi_offset 5, -8
	movl	%esp, %ebp
LCFI361:
	.cfi_def_cfa_register 5
	subl	$40, %esp
LBB215:
	.loc 5 3625 0
	movl	8(%ebp), %eax
	movl	%eax, (%esp)
LEHB48:
	call	__ZN4pugi4impl12_GLOBAL__N_117convert_path_heapEPKw
	movl	%eax, -16(%ebp)
	.loc 5 3626 0
	cmpl	$0, -16(%ebp)
	jne	L885
	.loc 5 3626 0 is_stmt 0 discriminator 1
	movl	$0, %eax
	jmp	L889
L885:
	.loc 5 3629 0 is_stmt 1
	movl	$0, -24(%ebp)
LBB216:
	.loc 5 3630 0
	movl	$0, -12(%ebp)
	jmp	L887
L888:
	.loc 5 3630 0 is_stmt 0 discriminator 2
	movl	-12(%ebp), %eax
	leal	(%eax,%eax), %edx
	movl	12(%ebp), %eax
	addl	%edx, %eax
	movw	(%eax), %ax
	leal	-24(%ebp), %ecx
	movl	-12(%ebp), %edx
	addl	%ecx, %edx
	movb	%al, (%edx)
	incl	-12(%ebp)
L887:
	.loc 5 3630 0 discriminator 1
	movl	-12(%ebp), %eax
	leal	(%eax,%eax), %edx
	movl	12(%ebp), %eax
	addl	%edx, %eax
	movw	(%eax), %ax
	testw	%ax, %ax
	setne	%al
	testb	%al, %al
	jne	L888
LBE216:
	.loc 5 3633 0 is_stmt 1
	leal	-24(%ebp), %eax
	movl	%eax, 4(%esp)
	movl	-16(%ebp), %eax
	movl	%eax, (%esp)
	call	_fopen
	movl	%eax, -20(%ebp)
	.loc 5 3636 0
	movl	__ZN4pugi4impl12_GLOBAL__N_138xml_memory_management_function_storageIiE10deallocateE, %eax
	movl	-16(%ebp), %edx
	movl	%edx, (%esp)
	call	*%eax
LEHE48:
	.loc 5 3638 0
	movl	-20(%ebp), %eax
L889:
	jmp	L892
L891:
	movl	%eax, (%esp)
LEHB49:
	call	__Unwind_Resume
LEHE49:
L892:
LBE215:
	.loc 5 3639 0
	leave
LCFI362:
	.cfi_restore 5
	.cfi_def_cfa 4, 4
	ret
	.cfi_endproc
LFE1302:
	.section	.gcc_except_table,"w"
LLSDA1302:
	.byte	0xff
	.byte	0xff
	.byte	0x1
	.uleb128 LLSDACSE1302-LLSDACSB1302
LLSDACSB1302:
	.uleb128 LEHB48-LFB1302
	.uleb128 LEHE48-LEHB48
	.uleb128 L891-LFB1302
	.uleb128 0
	.uleb128 LEHB49-LFB1302
	.uleb128 LEHE49-LEHB49
	.uleb128 0
	.uleb128 0
LLSDACSE1302:
	.text
	.def	__ZN4pugi4impl12_GLOBAL__N_114save_file_implERKNS_12xml_documentEP6_iobufPKcjNS_12xml_encodingE;	.scl	3;	.type	32;	.endef
__ZN4pugi4impl12_GLOBAL__N_114save_file_implERKNS_12xml_documentEP6_iobufPKcjNS_12xml_encodingE:
LFB1303:
	.loc 5 3643 0
	.cfi_startproc
	.cfi_personality 0,___gxx_personality_v0
	.cfi_lsda 0,LLSDA1303
	pushl	%ebp
LCFI363:
	.cfi_def_cfa_offset 8
	.cfi_offset 5, -8
	movl	%esp, %ebp
LCFI364:
	.cfi_def_cfa_register 5
	pushl	%ebx
	subl	$36, %esp
	.cfi_offset 3, -12
LBB217:
	.loc 5 3644 0
	cmpl	$0, 12(%ebp)
	jne	L894
	.loc 5 3644 0 is_stmt 0 discriminator 1
	movb	$0, %bl
	jmp	L896
L894:
	.loc 5 3646 0 is_stmt 1
	leal	-20(%ebp), %eax
	movl	12(%ebp), %edx
	movl	%edx, (%esp)
	movl	%eax, %ecx
	call	__ZN4pugi15xml_writer_fileC1EPv
	subl	$4, %esp
	.loc 5 3647 0
	movl	24(%ebp), %eax
	movl	%eax, 12(%esp)
	movl	20(%ebp), %eax
	movl	%eax, 8(%esp)
	movl	16(%ebp), %eax
	movl	%eax, 4(%esp)
	leal	-20(%ebp), %eax
	movl	%eax, (%esp)
	movl	8(%ebp), %ecx
LEHB50:
	call	__ZNK4pugi12xml_document4saveERNS_10xml_writerEPKcjNS_12xml_encodingE
LEHE50:
	subl	$16, %esp
	.loc 5 3649 0
	movl	12(%ebp), %eax
	movl	%eax, (%esp)
	call	_ferror
	movl	%eax, -12(%ebp)
	.loc 5 3651 0
	movl	12(%ebp), %eax
	movl	%eax, (%esp)
	call	_fclose
	.loc 5 3653 0
	cmpl	$0, -12(%ebp)
	sete	%bl
	leal	-20(%ebp), %eax
	movl	%eax, %ecx
	call	__ZN4pugi15xml_writer_fileD1Ev
L896:
	movb	%bl, %al
	jmp	L899
L898:
	movl	%eax, %ebx
	leal	-20(%ebp), %eax
	movl	%eax, %ecx
	call	__ZN4pugi15xml_writer_fileD1Ev
	movl	%ebx, %eax
	movl	%eax, (%esp)
LEHB51:
	call	__Unwind_Resume
LEHE51:
L899:
LBE217:
	.loc 5 3654 0
	movl	-4(%ebp), %ebx
	leave
LCFI365:
	.cfi_restore 5
	.cfi_restore 3
	.cfi_def_cfa 4, 4
	ret
	.cfi_endproc
LFE1303:
	.section	.gcc_except_table,"w"
LLSDA1303:
	.byte	0xff
	.byte	0xff
	.byte	0x1
	.uleb128 LLSDACSE1303-LLSDACSB1303
LLSDACSB1303:
	.uleb128 LEHB50-LFB1303
	.uleb128 LEHE50-LEHB50
	.uleb128 L898-LFB1303
	.uleb128 0
	.uleb128 LEHB51-LFB1303
	.uleb128 LEHE51-LEHB51
	.uleb128 0
	.uleb128 0
LLSDACSE1303:
	.text
	.section	.text$_ZN4pugi10xml_writerC2Ev,"x"
	.linkonce discard
	.align 2
	.globl	__ZN4pugi10xml_writerC2Ev
	.def	__ZN4pugi10xml_writerC2Ev;	.scl	2;	.type	32;	.endef
__ZN4pugi10xml_writerC2Ev:
LFB1306:
	.loc 3 233 0
	.cfi_startproc
	pushl	%ebp
LCFI366:
	.cfi_def_cfa_offset 8
	.cfi_offset 5, -8
	movl	%esp, %ebp
LCFI367:
	.cfi_def_cfa_register 5
	subl	$4, %esp
	movl	%ecx, -4(%ebp)
LBB218:
	.loc 3 233 0
	movl	-4(%ebp), %eax
	movl	$__ZTVN4pugi10xml_writerE+8, (%eax)
LBE218:
	leave
LCFI368:
	.cfi_restore 5
	.cfi_def_cfa 4, 4
	ret
	.cfi_endproc
LFE1306:
	.text
	.align 2
	.globl	__ZN4pugi15xml_writer_fileC2EPv
	.def	__ZN4pugi15xml_writer_fileC2EPv;	.scl	2;	.type	32;	.endef
__ZN4pugi15xml_writer_fileC2EPv:
LFB1308:
	.loc 5 3659 0
	.cfi_startproc
	pushl	%ebp
LCFI369:
	.cfi_def_cfa_offset 8
	.cfi_offset 5, -8
	movl	%esp, %ebp
LCFI370:
	.cfi_def_cfa_register 5
	subl	$4, %esp
	movl	%ecx, -4(%ebp)
LBB219:
	.loc 5 3659 0
	movl	-4(%ebp), %eax
	movl	%eax, %ecx
	call	__ZN4pugi10xml_writerC2Ev
	movl	-4(%ebp), %eax
	movl	$__ZTVN4pugi15xml_writer_fileE+8, (%eax)
	movl	-4(%ebp), %eax
	movl	8(%ebp), %edx
	movl	%edx, 4(%eax)
LBE219:
	.loc 5 3661 0
	leave
LCFI371:
	.cfi_restore 5
	.cfi_def_cfa 4, 4
	ret	$4
	.cfi_endproc
LFE1308:
	.globl	__ZN4pugi15xml_writer_fileC1EPv
	.def	__ZN4pugi15xml_writer_fileC1EPv;	.scl	2;	.type	32;	.endef
	.set	__ZN4pugi15xml_writer_fileC1EPv,__ZN4pugi15xml_writer_fileC2EPv
	.align 2
	.globl	__ZN4pugi15xml_writer_file5writeEPKvj
	.def	__ZN4pugi15xml_writer_file5writeEPKvj;	.scl	2;	.type	32;	.endef
__ZN4pugi15xml_writer_file5writeEPKvj:
LFB1310:
	.loc 5 3664 0
	.cfi_startproc
	pushl	%ebp
LCFI372:
	.cfi_def_cfa_offset 8
	.cfi_offset 5, -8
	movl	%esp, %ebp
LCFI373:
	.cfi_def_cfa_register 5
	subl	$56, %esp
	movl	%ecx, -28(%ebp)
LBB220:
	.loc 5 3665 0
	movl	-28(%ebp), %eax
	movl	4(%eax), %eax
	movl	%eax, 12(%esp)
	movl	12(%ebp), %eax
	movl	%eax, 8(%esp)
	movl	$1, 4(%esp)
	movl	8(%ebp), %eax
	movl	%eax, (%esp)
	call	_fwrite
	movl	%eax, -12(%ebp)
LBE220:
	.loc 5 3667 0
	leave
LCFI374:
	.cfi_restore 5
	.cfi_def_cfa 4, 4
	ret	$8
	.cfi_endproc
LFE1310:
	.align 2
	.globl	__ZN4pugi17xml_writer_streamC2ERSo
	.def	__ZN4pugi17xml_writer_streamC2ERSo;	.scl	2;	.type	32;	.endef
__ZN4pugi17xml_writer_streamC2ERSo:
LFB1312:
	.loc 5 3670 0
	.cfi_startproc
	pushl	%ebp
LCFI375:
	.cfi_def_cfa_offset 8
	.cfi_offset 5, -8
	movl	%esp, %ebp
LCFI376:
	.cfi_def_cfa_register 5
	subl	$4, %esp
	movl	%ecx, -4(%ebp)
LBB221:
	.loc 5 3670 0
	movl	-4(%ebp), %eax
	movl	%eax, %ecx
	call	__ZN4pugi10xml_writerC2Ev
	movl	-4(%ebp), %eax
	movl	$__ZTVN4pugi17xml_writer_streamE+8, (%eax)
	movl	-4(%ebp), %eax
	movl	8(%ebp), %edx
	movl	%edx, 4(%eax)
	movl	-4(%ebp), %eax
	movl	$0, 8(%eax)
LBE221:
	.loc 5 3672 0
	leave
LCFI377:
	.cfi_restore 5
	.cfi_def_cfa 4, 4
	ret	$4
	.cfi_endproc
LFE1312:
	.globl	__ZN4pugi17xml_writer_streamC1ERSo
	.def	__ZN4pugi17xml_writer_streamC1ERSo;	.scl	2;	.type	32;	.endef
	.set	__ZN4pugi17xml_writer_streamC1ERSo,__ZN4pugi17xml_writer_streamC2ERSo
	.align 2
	.globl	__ZN4pugi17xml_writer_streamC2ERSt13basic_ostreamIwSt11char_traitsIwEE
	.def	__ZN4pugi17xml_writer_streamC2ERSt13basic_ostreamIwSt11char_traitsIwEE;	.scl	2;	.type	32;	.endef
__ZN4pugi17xml_writer_streamC2ERSt13basic_ostreamIwSt11char_traitsIwEE:
LFB1315:
	.loc 5 3674 0
	.cfi_startproc
	pushl	%ebp
LCFI378:
	.cfi_def_cfa_offset 8
	.cfi_offset 5, -8
	movl	%esp, %ebp
LCFI379:
	.cfi_def_cfa_register 5
	subl	$4, %esp
	movl	%ecx, -4(%ebp)
LBB222:
	.loc 5 3674 0
	movl	-4(%ebp), %eax
	movl	%eax, %ecx
	call	__ZN4pugi10xml_writerC2Ev
	movl	-4(%ebp), %eax
	movl	$__ZTVN4pugi17xml_writer_streamE+8, (%eax)
	movl	-4(%ebp), %eax
	movl	$0, 4(%eax)
	movl	-4(%ebp), %eax
	movl	8(%ebp), %edx
	movl	%edx, 8(%eax)
LBE222:
	.loc 5 3676 0
	leave
LCFI380:
	.cfi_restore 5
	.cfi_def_cfa 4, 4
	ret	$4
	.cfi_endproc
LFE1315:
	.globl	__ZN4pugi17xml_writer_streamC1ERSt13basic_ostreamIwSt11char_traitsIwEE
	.def	__ZN4pugi17xml_writer_streamC1ERSt13basic_ostreamIwSt11char_traitsIwEE;	.scl	2;	.type	32;	.endef
	.set	__ZN4pugi17xml_writer_streamC1ERSt13basic_ostreamIwSt11char_traitsIwEE,__ZN4pugi17xml_writer_streamC2ERSt13basic_ostreamIwSt11char_traitsIwEE
	.section .rdata,"dr"
LC39:
	.ascii "!wide_stream\0"
LC40:
	.ascii "wide_stream\0"
LC41:
	.ascii "size % sizeof(wchar_t) == 0\0"
	.text
	.align 2
	.globl	__ZN4pugi17xml_writer_stream5writeEPKvj
	.def	__ZN4pugi17xml_writer_stream5writeEPKvj;	.scl	2;	.type	32;	.endef
__ZN4pugi17xml_writer_stream5writeEPKvj:
LFB1317:
	.loc 5 3679 0
	.cfi_startproc
	pushl	%ebp
LCFI381:
	.cfi_def_cfa_offset 8
	.cfi_offset 5, -8
	movl	%esp, %ebp
LCFI382:
	.cfi_def_cfa_register 5
	subl	$40, %esp
	movl	%ecx, -12(%ebp)
	.loc 5 3680 0
	movl	-12(%ebp), %eax
	movl	4(%eax), %eax
	testl	%eax, %eax
	je	L906
	.loc 5 3682 0
	movl	-12(%ebp), %eax
	movl	8(%eax), %eax
	testl	%eax, %eax
	je	L907
	.loc 5 3682 0 is_stmt 0 discriminator 1
	movl	$3682, 8(%esp)
	movl	$LC0, 4(%esp)
	movl	$LC39, (%esp)
	call	__assert
L907:
	.loc 5 3683 0 is_stmt 1
	movl	12(%ebp), %edx
	movl	-12(%ebp), %eax
	movl	4(%eax), %eax
	movl	%edx, 4(%esp)
	movl	8(%ebp), %edx
	movl	%edx, (%esp)
	movl	%eax, %ecx
	call	__ZNSo5writeEPKci
	subl	$8, %esp
	jmp	L905
L906:
	.loc 5 3687 0
	movl	-12(%ebp), %eax
	movl	8(%eax), %eax
	testl	%eax, %eax
	jne	L909
	.loc 5 3687 0 is_stmt 0 discriminator 1
	movl	$3687, 8(%esp)
	movl	$LC0, 4(%esp)
	movl	$LC40, (%esp)
	call	__assert
L909:
	.loc 5 3688 0 is_stmt 1
	movl	12(%ebp), %eax
	andl	$1, %eax
	testl	%eax, %eax
	je	L910
	.loc 5 3688 0 is_stmt 0 discriminator 1
	movl	$3688, 8(%esp)
	movl	$LC0, 4(%esp)
	movl	$LC41, (%esp)
	call	__assert
L910:
	.loc 5 3690 0 is_stmt 1
	movl	12(%ebp), %eax
	shrl	%eax
	movl	%eax, %edx
	movl	-12(%ebp), %eax
	movl	8(%eax), %eax
	movl	%edx, 4(%esp)
	movl	8(%ebp), %edx
	movl	%edx, (%esp)
	movl	%eax, %ecx
	call	__ZNSt13basic_ostreamIwSt11char_traitsIwEE5writeEPKwi
	subl	$8, %esp
L905:
	.loc 5 3692 0
	leave
LCFI383:
	.cfi_restore 5
	.cfi_def_cfa 4, 4
	ret	$8
	.cfi_endproc
LFE1317:
	.align 2
	.globl	__ZN4pugi15xml_tree_walkerC2Ev
	.def	__ZN4pugi15xml_tree_walkerC2Ev;	.scl	2;	.type	32;	.endef
__ZN4pugi15xml_tree_walkerC2Ev:
LFB1319:
	.loc 5 3695 0
	.cfi_startproc
	pushl	%ebp
LCFI384:
	.cfi_def_cfa_offset 8
	.cfi_offset 5, -8
	movl	%esp, %ebp
LCFI385:
	.cfi_def_cfa_register 5
	subl	$4, %esp
	movl	%ecx, -4(%ebp)
LBB223:
	.loc 5 3695 0
	movl	-4(%ebp), %eax
	movl	$__ZTVN4pugi15xml_tree_walkerE+8, (%eax)
	movl	-4(%ebp), %eax
	movl	$0, 4(%eax)
LBE223:
	.loc 5 3697 0
	leave
LCFI386:
	.cfi_restore 5
	.cfi_def_cfa 4, 4
	ret
	.cfi_endproc
LFE1319:
	.globl	__ZN4pugi15xml_tree_walkerC1Ev
	.def	__ZN4pugi15xml_tree_walkerC1Ev;	.scl	2;	.type	32;	.endef
	.set	__ZN4pugi15xml_tree_walkerC1Ev,__ZN4pugi15xml_tree_walkerC2Ev
	.align 2
	.globl	__ZN4pugi15xml_tree_walkerD2Ev
	.def	__ZN4pugi15xml_tree_walkerD2Ev;	.scl	2;	.type	32;	.endef
__ZN4pugi15xml_tree_walkerD2Ev:
LFB1322:
	.loc 5 3699 0
	.cfi_startproc
	pushl	%ebp
LCFI387:
	.cfi_def_cfa_offset 8
	.cfi_offset 5, -8
	movl	%esp, %ebp
LCFI388:
	.cfi_def_cfa_register 5
	subl	$40, %esp
	movl	%ecx, -12(%ebp)
LBB224:
	.loc 5 3699 0
	movl	-12(%ebp), %eax
	movl	$__ZTVN4pugi15xml_tree_walkerE+8, (%eax)
LBE224:
	.loc 5 3701 0
	movl	$0, %eax
	andl	$1, %eax
	testl	%eax, %eax
	je	L912
	.loc 5 3701 0 is_stmt 0 discriminator 1
	movl	-12(%ebp), %eax
	movl	%eax, (%esp)
	call	__ZdlPv
L912:
	.loc 5 3701 0
	leave
LCFI389:
	.cfi_restore 5
	.cfi_def_cfa 4, 4
	ret
	.cfi_endproc
LFE1322:
	.globl	__ZN4pugi15xml_tree_walkerD1Ev
	.def	__ZN4pugi15xml_tree_walkerD1Ev;	.scl	2;	.type	32;	.endef
	.set	__ZN4pugi15xml_tree_walkerD1Ev,__ZN4pugi15xml_tree_walkerD2Ev
	.align 2
	.globl	__ZN4pugi15xml_tree_walkerD0Ev
	.def	__ZN4pugi15xml_tree_walkerD0Ev;	.scl	2;	.type	32;	.endef
__ZN4pugi15xml_tree_walkerD0Ev:
LFB1324:
	.loc 5 3699 0 is_stmt 1
	.cfi_startproc
	pushl	%ebp
LCFI390:
	.cfi_def_cfa_offset 8
	.cfi_offset 5, -8
	movl	%esp, %ebp
LCFI391:
	.cfi_def_cfa_register 5
	subl	$40, %esp
	movl	%ecx, -12(%ebp)
	.loc 5 3701 0
	movl	-12(%ebp), %eax
	movl	%eax, %ecx
	call	__ZN4pugi15xml_tree_walkerD1Ev
	movl	-12(%ebp), %eax
	movl	%eax, (%esp)
	call	__ZdlPv
	leave
LCFI392:
	.cfi_restore 5
	.cfi_def_cfa 4, 4
	ret
	.cfi_endproc
LFE1324:
	.align 2
	.globl	__ZNK4pugi15xml_tree_walker5depthEv
	.def	__ZNK4pugi15xml_tree_walker5depthEv;	.scl	2;	.type	32;	.endef
__ZNK4pugi15xml_tree_walker5depthEv:
LFB1325:
	.loc 5 3704 0
	.cfi_startproc
	pushl	%ebp
LCFI393:
	.cfi_def_cfa_offset 8
	.cfi_offset 5, -8
	movl	%esp, %ebp
LCFI394:
	.cfi_def_cfa_register 5
	subl	$4, %esp
	movl	%ecx, -4(%ebp)
	.loc 5 3705 0
	movl	-4(%ebp), %eax
	movl	4(%eax), %eax
	.loc 5 3706 0
	leave
LCFI395:
	.cfi_restore 5
	.cfi_def_cfa 4, 4
	ret
	.cfi_endproc
LFE1325:
	.align 2
	.globl	__ZN4pugi15xml_tree_walker5beginERNS_8xml_nodeE
	.def	__ZN4pugi15xml_tree_walker5beginERNS_8xml_nodeE;	.scl	2;	.type	32;	.endef
__ZN4pugi15xml_tree_walker5beginERNS_8xml_nodeE:
LFB1326:
	.loc 5 3709 0
	.cfi_startproc
	pushl	%ebp
LCFI396:
	.cfi_def_cfa_offset 8
	.cfi_offset 5, -8
	movl	%esp, %ebp
LCFI397:
	.cfi_def_cfa_register 5
	subl	$4, %esp
	movl	%ecx, -4(%ebp)
	.loc 5 3710 0
	movb	$1, %al
	.loc 5 3711 0
	leave
LCFI398:
	.cfi_restore 5
	.cfi_def_cfa 4, 4
	ret	$4
	.cfi_endproc
LFE1326:
	.align 2
	.globl	__ZN4pugi15xml_tree_walker3endERNS_8xml_nodeE
	.def	__ZN4pugi15xml_tree_walker3endERNS_8xml_nodeE;	.scl	2;	.type	32;	.endef
__ZN4pugi15xml_tree_walker3endERNS_8xml_nodeE:
LFB1327:
	.loc 5 3714 0
	.cfi_startproc
	pushl	%ebp
LCFI399:
	.cfi_def_cfa_offset 8
	.cfi_offset 5, -8
	movl	%esp, %ebp
LCFI400:
	.cfi_def_cfa_register 5
	subl	$4, %esp
	movl	%ecx, -4(%ebp)
	.loc 5 3715 0
	movb	$1, %al
	.loc 5 3716 0
	leave
LCFI401:
	.cfi_restore 5
	.cfi_def_cfa 4, 4
	ret	$4
	.cfi_endproc
LFE1327:
	.align 2
	.globl	__ZN4pugi13xml_attributeC2Ev
	.def	__ZN4pugi13xml_attributeC2Ev;	.scl	2;	.type	32;	.endef
__ZN4pugi13xml_attributeC2Ev:
LFB1329:
	.loc 5 3718 0
	.cfi_startproc
	pushl	%ebp
LCFI402:
	.cfi_def_cfa_offset 8
	.cfi_offset 5, -8
	movl	%esp, %ebp
LCFI403:
	.cfi_def_cfa_register 5
	subl	$4, %esp
	movl	%ecx, -4(%ebp)
LBB225:
	.loc 5 3718 0
	movl	-4(%ebp), %eax
	movl	$0, (%eax)
LBE225:
	.loc 5 3720 0
	leave
LCFI404:
	.cfi_restore 5
	.cfi_def_cfa 4, 4
	ret
	.cfi_endproc
LFE1329:
	.globl	__ZN4pugi13xml_attributeC1Ev
	.def	__ZN4pugi13xml_attributeC1Ev;	.scl	2;	.type	32;	.endef
