	.file	"Tester.cpp"
	.text
Ltext0:
	.section .rdata,"dr"
__ZStL19piecewise_construct:
	.space 1
	.section	.text$_ZnwjPv,"x"
	.linkonce discard
	.globl	__ZnwjPv
	.def	__ZnwjPv;	.scl	2;	.type	32;	.endef
__ZnwjPv:
LFB312:
	.file 1 "c:/program files (x86)/codeblocks/mingw/bin/../lib/gcc/mingw32/4.7.0/include/c++/new"
	.loc 1 112 0
	.cfi_startproc
	pushl	%ebp
LCFI0:
	.cfi_def_cfa_offset 8
	.cfi_offset 5, -8
	movl	%esp, %ebp
LCFI1:
	.cfi_def_cfa_register 5
	.loc 1 112 0
	movl	12(%ebp), %eax
	popl	%ebp
LCFI2:
	.cfi_restore 5
	.cfi_def_cfa 4, 4
	ret
	.cfi_endproc
LFE312:
	.section	.text$_ZSt7forwardIiEOT_RNSt16remove_referenceIS0_E4typeE,"x"
	.linkonce discard
	.globl	__ZSt7forwardIiEOT_RNSt16remove_referenceIS0_E4typeE
	.def	__ZSt7forwardIiEOT_RNSt16remove_referenceIS0_E4typeE;	.scl	2;	.type	32;	.endef
__ZSt7forwardIiEOT_RNSt16remove_referenceIS0_E4typeE:
LFB953:
	.file 2 "c:/program files (x86)/codeblocks/mingw/bin/../lib/gcc/mingw32/4.7.0/include/c++/bits/move.h"
	.loc 2 77 0
	.cfi_startproc
	pushl	%ebp
LCFI3:
	.cfi_def_cfa_offset 8
	.cfi_offset 5, -8
	movl	%esp, %ebp
LCFI4:
	.cfi_def_cfa_register 5
	.loc 2 78 0
	movl	8(%ebp), %eax
	popl	%ebp
LCFI5:
	.cfi_restore 5
	.cfi_def_cfa 4, 4
	ret
	.cfi_endproc
LFE953:
	.section	.text$_ZSt7forwardIP4TestEOT_RNSt16remove_referenceIS2_E4typeE,"x"
	.linkonce discard
	.globl	__ZSt7forwardIP4TestEOT_RNSt16remove_referenceIS2_E4typeE
	.def	__ZSt7forwardIP4TestEOT_RNSt16remove_referenceIS2_E4typeE;	.scl	2;	.type	32;	.endef
__ZSt7forwardIP4TestEOT_RNSt16remove_referenceIS2_E4typeE:
LFB958:
	.loc 2 77 0
	.cfi_startproc
	pushl	%ebp
LCFI6:
	.cfi_def_cfa_offset 8
	.cfi_offset 5, -8
	movl	%esp, %ebp
LCFI7:
	.cfi_def_cfa_register 5
	.loc 2 78 0
	movl	8(%ebp), %eax
	popl	%ebp
LCFI8:
	.cfi_restore 5
	.cfi_def_cfa 4, 4
	ret
	.cfi_endproc
LFE958:
	.section	.text$_ZNSt4pairIKiP4TestEC1IiS2_vEEOS_IT_T0_E,"x"
	.linkonce discard
	.align 2
	.globl	__ZNSt4pairIKiP4TestEC1IiS2_vEEOS_IT_T0_E
	.def	__ZNSt4pairIKiP4TestEC1IiS2_vEEOS_IT_T0_E;	.scl	2;	.type	32;	.endef
__ZNSt4pairIKiP4TestEC1IiS2_vEEOS_IT_T0_E:
LFB960:
	.file 3 "c:/program files (x86)/codeblocks/mingw/bin/../lib/gcc/mingw32/4.7.0/include/c++/bits/stl_pair.h"
	.loc 3 148 0
	.cfi_startproc
	pushl	%ebp
LCFI9:
	.cfi_def_cfa_offset 8
	.cfi_offset 5, -8
	movl	%esp, %ebp
LCFI10:
	.cfi_def_cfa_register 5
	subl	$8, %esp
	movl	%ecx, -4(%ebp)
LBB2:
	.loc 3 150 0
	movl	8(%ebp), %eax
	movl	%eax, (%esp)
	call	__ZSt7forwardIiEOT_RNSt16remove_referenceIS0_E4typeE
	movl	(%eax), %edx
	movl	-4(%ebp), %eax
	movl	%edx, (%eax)
	movl	8(%ebp), %eax
	addl	$4, %eax
	movl	%eax, (%esp)
	call	__ZSt7forwardIP4TestEOT_RNSt16remove_referenceIS2_E4typeE
	movl	(%eax), %edx
	movl	-4(%ebp), %eax
	movl	%edx, 4(%eax)
LBE2:
	leave
LCFI11:
	.cfi_restore 5
	.cfi_def_cfa 4, 4
	ret	$4
	.cfi_endproc
LFE960:
	.text
	.align 2
	.globl	__ZN6Tester4testEP7BotDataii
	.def	__ZN6Tester4testEP7BotDataii;	.scl	2;	.type	32;	.endef
__ZN6Tester4testEP7BotDataii:
LFB966:
	.file 4 "F:/CSIKI/PROGRAMING/C++/main/Croupier/BotTester/BotTester/Tester.cpp"
	.loc 4 5 0
	.cfi_startproc
	.cfi_personality 0,___gxx_personality_v0
	.cfi_lsda 0,LLSDA966
	pushl	%ebp
LCFI12:
	.cfi_def_cfa_offset 8
	.cfi_offset 5, -8
	movl	%esp, %ebp
LCFI13:
	.cfi_def_cfa_register 5
	pushl	%ebx
	subl	$52, %esp
	.cfi_offset 3, -12
	movl	%ecx, -28(%ebp)
	.loc 4 6 0
	movl	12(%ebp), %ebx
	movl	-28(%ebp), %eax
	movl	%eax, %ecx
	call	__ZNKSt3mapIiP4TestSt4lessIiESaISt4pairIKiS1_EEE4sizeEv
	movl	%eax, -32(%ebp)
	movl	%ebx, %eax
	movl	$0, %edx
	divl	-32(%ebp)
	movl	%edx, %ecx
	movl	%ecx, %eax
	movl	%eax, -12(%ebp)
	movl	-28(%ebp), %eax
	leal	-12(%ebp), %edx
	movl	%edx, (%esp)
	movl	%eax, %ecx
LEHB0:
	call	__ZNSt3mapIiP4TestSt4lessIiESaISt4pairIKiS1_EEEixEOi
	subl	$4, %esp
	movl	(%eax), %eax
	movl	(%eax), %edx
	movl	(%edx), %ebx
	movl	16(%ebp), %edx
	movl	%edx, 4(%esp)
	movl	8(%ebp), %edx
	movl	%edx, (%esp)
	movl	%eax, %ecx
	call	*%ebx
LEHE0:
	.loc 4 6 0 is_stmt 0 discriminator 1
	subl	$8, %esp
	jmp	L11
L10:
	movl	%eax, (%esp)
LEHB1:
	call	__Unwind_Resume
LEHE1:
L11:
	.loc 4 7 0 is_stmt 1
	movl	-4(%ebp), %ebx
	leave
LCFI14:
	.cfi_restore 5
	.cfi_restore 3
	.cfi_def_cfa 4, 4
	ret	$12
	.cfi_endproc
LFE966:
	.def	___gxx_personality_v0;	.scl	2;	.type	32;	.endef
	.section	.gcc_except_table,"w"
LLSDA966:
	.byte	0xff
	.byte	0xff
	.byte	0x1
	.uleb128 LLSDACSE966-LLSDACSB966
LLSDACSB966:
	.uleb128 LEHB0-LFB966
	.uleb128 LEHE0-LEHB0
	.uleb128 L10-LFB966
	.uleb128 0
	.uleb128 LEHB1-LFB966
	.uleb128 LEHE1-LEHB1
	.uleb128 0
	.uleb128 0
LLSDACSE966:
	.text
	.section	.text$_ZSt7forwardISt4pairIiP4TestEEOT_RNSt16remove_referenceIS4_E4typeE,"x"
	.linkonce discard
	.globl	__ZSt7forwardISt4pairIiP4TestEEOT_RNSt16remove_referenceIS4_E4typeE
	.def	__ZSt7forwardISt4pairIiP4TestEEOT_RNSt16remove_referenceIS4_E4typeE;	.scl	2;	.type	32;	.endef
__ZSt7forwardISt4pairIiP4TestEEOT_RNSt16remove_referenceIS4_E4typeE:
LFB993:
	.loc 2 77 0
	.cfi_startproc
	pushl	%ebp
LCFI15:
	.cfi_def_cfa_offset 8
	.cfi_offset 5, -8
	movl	%esp, %ebp
LCFI16:
	.cfi_def_cfa_register 5
	.loc 2 78 0
	movl	8(%ebp), %eax
	popl	%ebp
LCFI17:
	.cfi_restore 5
	.cfi_def_cfa 4, 4
	ret
	.cfi_endproc
LFE993:
	.section	.text$_ZNSt3mapIiP4TestSt4lessIiESaISt4pairIKiS1_EEE3endEv,"x"
	.linkonce discard
	.align 2
	.globl	__ZNSt3mapIiP4TestSt4lessIiESaISt4pairIKiS1_EEE3endEv
	.def	__ZNSt3mapIiP4TestSt4lessIiESaISt4pairIKiS1_EEE3endEv;	.scl	2;	.type	32;	.endef
__ZNSt3mapIiP4TestSt4lessIiESaISt4pairIKiS1_EEE3endEv:
LFB995:
	.file 5 "c:/program files (x86)/codeblocks/mingw/bin/../lib/gcc/mingw32/4.7.0/include/c++/bits/stl_map.h"
	.loc 5 332 0
	.cfi_startproc
	pushl	%ebp
LCFI18:
	.cfi_def_cfa_offset 8
	.cfi_offset 5, -8
	movl	%esp, %ebp
LCFI19:
	.cfi_def_cfa_register 5
	subl	$24, %esp
	movl	%ecx, -12(%ebp)
	.loc 5 333 0
	movl	-12(%ebp), %eax
	movl	%eax, %ecx
	call	__ZNSt8_Rb_treeIiSt4pairIKiP4TestESt10_Select1stIS4_ESt4lessIiESaIS4_EE3endEv
	leave
LCFI20:
	.cfi_restore 5
	.cfi_def_cfa 4, 4
	ret
	.cfi_endproc
LFE995:
	.section	.text$_ZNKSt3mapIiP4TestSt4lessIiESaISt4pairIKiS1_EEE4sizeEv,"x"
	.linkonce discard
	.align 2
	.globl	__ZNKSt3mapIiP4TestSt4lessIiESaISt4pairIKiS1_EEE4sizeEv
	.def	__ZNKSt3mapIiP4TestSt4lessIiESaISt4pairIKiS1_EEE4sizeEv;	.scl	2;	.type	32;	.endef
__ZNKSt3mapIiP4TestSt4lessIiESaISt4pairIKiS1_EEE4sizeEv:
LFB999:
	.loc 5 428 0
	.cfi_startproc
	pushl	%ebp
LCFI21:
	.cfi_def_cfa_offset 8
	.cfi_offset 5, -8
	movl	%esp, %ebp
LCFI22:
	.cfi_def_cfa_register 5
	subl	$24, %esp
	movl	%ecx, -12(%ebp)
	.loc 5 429 0
	movl	-12(%ebp), %eax
	movl	%eax, %ecx
	call	__ZNKSt8_Rb_treeIiSt4pairIKiP4TestESt10_Select1stIS4_ESt4lessIiESaIS4_EE4sizeEv
	leave
LCFI23:
	.cfi_restore 5
	.cfi_def_cfa 4, 4
	ret
	.cfi_endproc
LFE999:
	.section	.text$_ZSt4moveIRiEONSt16remove_referenceIT_E4typeEOS2_,"x"
	.linkonce discard
	.globl	__ZSt4moveIRiEONSt16remove_referenceIT_E4typeEOS2_
	.def	__ZSt4moveIRiEONSt16remove_referenceIT_E4typeEOS2_;	.scl	2;	.type	32;	.endef
__ZSt4moveIRiEONSt16remove_referenceIT_E4typeEOS2_:
LFB1001:
	.loc 2 102 0
	.cfi_startproc
	pushl	%ebp
LCFI24:
	.cfi_def_cfa_offset 8
	.cfi_offset 5, -8
	movl	%esp, %ebp
LCFI25:
	.cfi_def_cfa_register 5
	.loc 2 103 0
	movl	8(%ebp), %eax
	popl	%ebp
LCFI26:
	.cfi_restore 5
	.cfi_def_cfa 4, 4
	ret
	.cfi_endproc
LFE1001:
	.section	.text$_ZNSt4pairIiP4TestEC1IiS1_vEEOT_OT0_,"x"
	.linkonce discard
	.align 2
	.globl	__ZNSt4pairIiP4TestEC1IiS1_vEEOT_OT0_
	.def	__ZNSt4pairIiP4TestEC1IiS1_vEEOT_OT0_;	.scl	2;	.type	32;	.endef
__ZNSt4pairIiP4TestEC1IiS1_vEEOT_OT0_:
LFB1005:
	.loc 3 142 0
	.cfi_startproc
	pushl	%ebp
LCFI27:
	.cfi_def_cfa_offset 8
	.cfi_offset 5, -8
	movl	%esp, %ebp
LCFI28:
	.cfi_def_cfa_register 5
	subl	$8, %esp
	movl	%ecx, -4(%ebp)
LBB3:
	.loc 3 143 0
	movl	8(%ebp), %eax
	movl	%eax, (%esp)
	call	__ZSt7forwardIiEOT_RNSt16remove_referenceIS0_E4typeE
	movl	(%eax), %edx
	movl	-4(%ebp), %eax
	movl	%edx, (%eax)
	movl	12(%ebp), %eax
	movl	%eax, (%esp)
	call	__ZSt7forwardIP4TestEOT_RNSt16remove_referenceIS2_E4typeE
	movl	(%eax), %edx
	movl	-4(%ebp), %eax
	movl	%edx, 4(%eax)
LBE3:
	leave
LCFI29:
	.cfi_restore 5
	.cfi_def_cfa 4, 4
	ret	$8
	.cfi_endproc
LFE1005:
	.section	.text$_ZSt9make_pairIiP4TestESt4pairINSt17__decay_and_stripIT_E6__typeENS3_IT0_E6__typeEEOS4_OS7_,"x"
	.linkonce discard
	.globl	__ZSt9make_pairIiP4TestESt4pairINSt17__decay_and_stripIT_E6__typeENS3_IT0_E6__typeEEOS4_OS7_
	.def	__ZSt9make_pairIiP4TestESt4pairINSt17__decay_and_stripIT_E6__typeENS3_IT0_E6__typeEEOS4_OS7_;	.scl	2;	.type	32;	.endef
__ZSt9make_pairIiP4TestESt4pairINSt17__decay_and_stripIT_E6__typeENS3_IT0_E6__typeEEOS4_OS7_:
LFB1002:
	.loc 3 274 0
	.cfi_startproc
	pushl	%ebp
LCFI30:
	.cfi_def_cfa_offset 8
	.cfi_offset 5, -8
	movl	%esp, %ebp
LCFI31:
	.cfi_def_cfa_register 5
	pushl	%ebx
	subl	$8, %esp
	.cfi_offset 3, -12
LBB4:
	.loc 3 279 0
	movl	16(%ebp), %eax
	movl	%eax, (%esp)
	call	__ZSt7forwardIP4TestEOT_RNSt16remove_referenceIS2_E4typeE
	movl	%eax, %ebx
	movl	12(%ebp), %eax
	movl	%eax, (%esp)
	call	__ZSt7forwardIiEOT_RNSt16remove_referenceIS0_E4typeE
	movl	%ebx, 4(%esp)
	movl	%eax, (%esp)
	movl	8(%ebp), %ecx
	call	__ZNSt4pairIiP4TestEC1IiS1_vEEOT_OT0_
	subl	$8, %esp
LBE4:
	.loc 3 280 0
	movl	8(%ebp), %eax
	movl	-4(%ebp), %ebx
	leave
LCFI32:
	.cfi_restore 5
	.cfi_restore 3
	.cfi_def_cfa 4, 4
	ret
	.cfi_endproc
LFE1002:
	.section	.text$_ZNSt3mapIiP4TestSt4lessIiESaISt4pairIKiS1_EEEixEOi,"x"
	.linkonce discard
	.align 2
	.globl	__ZNSt3mapIiP4TestSt4lessIiESaISt4pairIKiS1_EEEixEOi
	.def	__ZNSt3mapIiP4TestSt4lessIiESaISt4pairIKiS1_EEEixEOi;	.scl	2;	.type	32;	.endef
__ZNSt3mapIiP4TestSt4lessIiESaISt4pairIKiS1_EEEixEOi:
LFB1000:
	.loc 5 464 0
	.cfi_startproc
	.cfi_personality 0,___gxx_personality_v0
	.cfi_lsda 0,LLSDA1000
	pushl	%ebp
LCFI33:
	.cfi_def_cfa_offset 8
	.cfi_offset 5, -8
	movl	%esp, %ebp
LCFI34:
	.cfi_def_cfa_register 5
	pushl	%edi
	pushl	%esi
	pushl	%ebx
	subl	$76, %esp
	.cfi_offset 7, -12
	.cfi_offset 6, -16
	.cfi_offset 3, -20
	movl	%ecx, -60(%ebp)
LBB5:
	.loc 5 469 0
	movl	-60(%ebp), %eax
	movl	8(%ebp), %edx
	movl	%edx, (%esp)
	movl	%eax, %ecx
LEHB2:
	call	__ZNSt3mapIiP4TestSt4lessIiESaISt4pairIKiS1_EEE11lower_boundERS5_
LEHE2:
	subl	$4, %esp
	movl	%eax, -52(%ebp)
	.loc 5 471 0
	movb	$0, %bl
	movl	-60(%ebp), %eax
	movl	%eax, %ecx
	call	__ZNSt3mapIiP4TestSt4lessIiESaISt4pairIKiS1_EEE3endEv
	movl	%eax, -48(%ebp)
	movl	$1, %esi
	leal	-52(%ebp), %eax
	leal	-48(%ebp), %edx
	movl	%edx, (%esp)
	movl	%eax, %ecx
	call	__ZNKSt17_Rb_tree_iteratorISt4pairIKiP4TestEEeqERKS5_
	subl	$4, %esp
	testb	%al, %al
	jne	L24
	.loc 5 471 0 is_stmt 0 discriminator 2
	leal	-52(%ebp), %eax
	movl	%eax, %ecx
	call	__ZNKSt17_Rb_tree_iteratorISt4pairIKiP4TestEEdeEv
	movl	%eax, %edi
	movl	-60(%ebp), %eax
	movl	%eax, %ecx
LEHB3:
	call	__ZNKSt3mapIiP4TestSt4lessIiESaISt4pairIKiS1_EEE8key_compEv
LEHE3:
	.loc 5 471 0 discriminator 3
	movb	$1, %bl
	leal	-41(%ebp), %eax
	movl	%edi, 4(%esp)
	movl	8(%ebp), %edx
	movl	%edx, (%esp)
	movl	%eax, %ecx
	call	__ZNKSt4lessIiEclERKiS2_
	subl	$8, %esp
	testb	%al, %al
	je	L25
L24:
	.loc 5 471 0 discriminator 1
	movb	$1, %al
	jmp	L26
L25:
	.loc 5 471 0 discriminator 4
	movb	$0, %al
L26:
	.loc 5 471 0 discriminator 5
	testb	%bl, %bl
	movl	%esi, %edx
	testb	%dl, %dl
	testb	%al, %al
	je	L29
	.loc 5 472 0 is_stmt 1
	movl	$0, -32(%ebp)
	movl	8(%ebp), %eax
	movl	%eax, (%esp)
	call	__ZSt4moveIRiEONSt16remove_referenceIT_E4typeEOS2_
	leal	-40(%ebp), %edx
	leal	-32(%ebp), %ecx
	movl	%ecx, 8(%esp)
	movl	%eax, 4(%esp)
	movl	%edx, (%esp)
	call	__ZSt9make_pairIiP4TestESt4pairINSt17__decay_and_stripIT_E6__typeENS3_IT0_E6__typeEEOS4_OS7_
	leal	-28(%ebp), %eax
	leal	-52(%ebp), %edx
	movl	%edx, (%esp)
	movl	%eax, %ecx
	call	__ZNSt23_Rb_tree_const_iteratorISt4pairIKiP4TestEEC1ERKSt17_Rb_tree_iteratorIS4_E
	subl	$4, %esp
	movl	-60(%ebp), %eax
	leal	-40(%ebp), %edx
	movl	%edx, 4(%esp)
	movl	-28(%ebp), %edx
	movl	%edx, (%esp)
	movl	%eax, %ecx
LEHB4:
	call	__ZNSt3mapIiP4TestSt4lessIiESaISt4pairIKiS1_EEE6insertIS4_IiS1_EvEESt17_Rb_tree_iteratorIS6_ESt23_Rb_tree_const_iteratorIS6_EOT_
LEHE4:
	subl	$8, %esp
	movl	%eax, -52(%ebp)
L29:
	.loc 5 473 0
	leal	-52(%ebp), %eax
	movl	%eax, %ecx
	call	__ZNKSt17_Rb_tree_iteratorISt4pairIKiP4TestEEdeEv
	addl	$4, %eax
	jmp	L39
L37:
	.loc 5 471 0
	testb	%bl, %bl
	movl	%esi, %edx
	testb	%dl, %dl
	jmp	L34
L38:
	jmp	L34
L36:
L34:
	movl	%eax, (%esp)
LEHB5:
	call	__Unwind_Resume
LEHE5:
L39:
LBE5:
	.loc 5 474 0
	leal	-12(%ebp), %esp
	popl	%ebx
	.cfi_restore 3
	popl	%esi
	.cfi_restore 6
	popl	%edi
	.cfi_restore 7
	popl	%ebp
LCFI35:
	.cfi_restore 5
	.cfi_def_cfa 4, 4
	ret	$4
	.cfi_endproc
LFE1000:
	.section	.gcc_except_table,"w"
LLSDA1000:
	.byte	0xff
	.byte	0xff
	.byte	0x1
	.uleb128 LLSDACSE1000-LLSDACSB1000
LLSDACSB1000:
	.uleb128 LEHB2-LFB1000
	.uleb128 LEHE2-LEHB2
	.uleb128 L36-LFB1000
	.uleb128 0
	.uleb128 LEHB3-LFB1000
	.uleb128 LEHE3-LEHB3
	.uleb128 L37-LFB1000
	.uleb128 0
	.uleb128 LEHB4-LFB1000
	.uleb128 LEHE4-LEHB4
	.uleb128 L38-LFB1000
	.uleb128 0
	.uleb128 LEHB5-LFB1000
	.uleb128 LEHE5-LEHB5
	.uleb128 0
	.uleb128 0
LLSDACSE1000:
	.section	.text$_ZNSt3mapIiP4TestSt4lessIiESaISt4pairIKiS1_EEEixEOi,"x"
	.linkonce discard
	.section	.text$_ZNSt8_Rb_treeIiSt4pairIKiP4TestESt10_Select1stIS4_ESt4lessIiESaIS4_EE8_M_beginEv,"x"
	.linkonce discard
	.align 2
	.globl	__ZNSt8_Rb_treeIiSt4pairIKiP4TestESt10_Select1stIS4_ESt4lessIiESaIS4_EE8_M_beginEv
	.def	__ZNSt8_Rb_treeIiSt4pairIKiP4TestESt10_Select1stIS4_ESt4lessIiESaIS4_EE8_M_beginEv;	.scl	2;	.type	32;	.endef
__ZNSt8_Rb_treeIiSt4pairIKiP4TestESt10_Select1stIS4_ESt4lessIiESaIS4_EE8_M_beginEv:
LFB1026:
	.file 6 "c:/program files (x86)/codeblocks/mingw/bin/../lib/gcc/mingw32/4.7.0/include/c++/bits/stl_tree.h"
	.loc 6 499 0
	.cfi_startproc
	pushl	%ebp
LCFI36:
	.cfi_def_cfa_offset 8
	.cfi_offset 5, -8
	movl	%esp, %ebp
LCFI37:
	.cfi_def_cfa_register 5
	subl	$4, %esp
	movl	%ecx, -4(%ebp)
	.loc 6 500 0
	movl	-4(%ebp), %eax
	movl	8(%eax), %eax
	leave
LCFI38:
	.cfi_restore 5
	.cfi_def_cfa 4, 4
	ret
	.cfi_endproc
LFE1026:
	.section	.text$_ZSt7forwardISt17_Rb_tree_iteratorISt4pairIKiP4TestEEEOT_RNSt16remove_referenceIS7_E4typeE,"x"
	.linkonce discard
	.globl	__ZSt7forwardISt17_Rb_tree_iteratorISt4pairIKiP4TestEEEOT_RNSt16remove_referenceIS7_E4typeE
	.def	__ZSt7forwardISt17_Rb_tree_iteratorISt4pairIKiP4TestEEEOT_RNSt16remove_referenceIS7_E4typeE;	.scl	2;	.type	32;	.endef
__ZSt7forwardISt17_Rb_tree_iteratorISt4pairIKiP4TestEEEOT_RNSt16remove_referenceIS7_E4typeE:
LFB1029:
	.loc 2 77 0
	.cfi_startproc
	pushl	%ebp
LCFI39:
	.cfi_def_cfa_offset 8
	.cfi_offset 5, -8
	movl	%esp, %ebp
LCFI40:
	.cfi_def_cfa_register 5
	.loc 2 78 0
	movl	8(%ebp), %eax
	popl	%ebp
LCFI41:
	.cfi_restore 5
	.cfi_def_cfa 4, 4
	ret
	.cfi_endproc
LFE1029:
	.section	.text$_ZSt7forwardIbEOT_RNSt16remove_referenceIS0_E4typeE,"x"
	.linkonce discard
	.globl	__ZSt7forwardIbEOT_RNSt16remove_referenceIS0_E4typeE
	.def	__ZSt7forwardIbEOT_RNSt16remove_referenceIS0_E4typeE;	.scl	2;	.type	32;	.endef
__ZSt7forwardIbEOT_RNSt16remove_referenceIS0_E4typeE:
LFB1030:
	.loc 2 77 0
	.cfi_startproc
	pushl	%ebp
LCFI42:
	.cfi_def_cfa_offset 8
	.cfi_offset 5, -8
	movl	%esp, %ebp
LCFI43:
	.cfi_def_cfa_register 5
	.loc 2 78 0
	movl	8(%ebp), %eax
	popl	%ebp
LCFI44:
	.cfi_restore 5
	.cfi_def_cfa 4, 4
	ret
	.cfi_endproc
LFE1030:
	.section	.text$_ZNSt4pairISt17_Rb_tree_iteratorIS_IKiP4TestEEbEC1IS5_bvEEOT_OT0_,"x"
	.linkonce discard
	.align 2
	.globl	__ZNSt4pairISt17_Rb_tree_iteratorIS_IKiP4TestEEbEC1IS5_bvEEOT_OT0_
	.def	__ZNSt4pairISt17_Rb_tree_iteratorIS_IKiP4TestEEbEC1IS5_bvEEOT_OT0_;	.scl	2;	.type	32;	.endef
__ZNSt4pairISt17_Rb_tree_iteratorIS_IKiP4TestEEbEC1IS5_bvEEOT_OT0_:
LFB1032:
	.loc 3 142 0
	.cfi_startproc
	pushl	%ebp
LCFI45:
	.cfi_def_cfa_offset 8
	.cfi_offset 5, -8
	movl	%esp, %ebp
LCFI46:
	.cfi_def_cfa_register 5
	subl	$8, %esp
	movl	%ecx, -4(%ebp)
LBB6:
	.loc 3 143 0
	movl	8(%ebp), %eax
	movl	%eax, (%esp)
	call	__ZSt7forwardISt17_Rb_tree_iteratorISt4pairIKiP4TestEEEOT_RNSt16remove_referenceIS7_E4typeE
	movl	-4(%ebp), %edx
	movl	(%eax), %eax
	movl	%eax, (%edx)
	movl	12(%ebp), %eax
	movl	%eax, (%esp)
	call	__ZSt7forwardIbEOT_RNSt16remove_referenceIS0_E4typeE
	movb	(%eax), %dl
	movl	-4(%ebp), %eax
	movb	%dl, 4(%eax)
LBE6:
	leave
LCFI47:
	.cfi_restore 5
	.cfi_def_cfa 4, 4
	ret	$8
	.cfi_endproc
LFE1032:
	.section	.text$_ZSt7forwardIRSt17_Rb_tree_iteratorISt4pairIKiP4TestEEEOT_RNSt16remove_referenceIS8_E4typeE,"x"
	.linkonce discard
	.globl	__ZSt7forwardIRSt17_Rb_tree_iteratorISt4pairIKiP4TestEEEOT_RNSt16remove_referenceIS8_E4typeE
	.def	__ZSt7forwardIRSt17_Rb_tree_iteratorISt4pairIKiP4TestEEEOT_RNSt16remove_referenceIS8_E4typeE;	.scl	2;	.type	32;	.endef
__ZSt7forwardIRSt17_Rb_tree_iteratorISt4pairIKiP4TestEEEOT_RNSt16remove_referenceIS8_E4typeE:
LFB1034:
	.loc 2 77 0
	.cfi_startproc
	pushl	%ebp
LCFI48:
	.cfi_def_cfa_offset 8
	.cfi_offset 5, -8
	movl	%esp, %ebp
LCFI49:
	.cfi_def_cfa_register 5
	.loc 2 78 0
	movl	8(%ebp), %eax
	popl	%ebp
LCFI50:
	.cfi_restore 5
	.cfi_def_cfa 4, 4
	ret
	.cfi_endproc
LFE1034:
	.section	.text$_ZNSt4pairISt17_Rb_tree_iteratorIS_IKiP4TestEEbEC1IRS5_bvEEOT_OT0_,"x"
	.linkonce discard
	.align 2
	.globl	__ZNSt4pairISt17_Rb_tree_iteratorIS_IKiP4TestEEbEC1IRS5_bvEEOT_OT0_
	.def	__ZNSt4pairISt17_Rb_tree_iteratorIS_IKiP4TestEEbEC1IRS5_bvEEOT_OT0_;	.scl	2;	.type	32;	.endef
__ZNSt4pairISt17_Rb_tree_iteratorIS_IKiP4TestEEbEC1IRS5_bvEEOT_OT0_:
LFB1036:
	.loc 3 142 0
	.cfi_startproc
	pushl	%ebp
LCFI51:
	.cfi_def_cfa_offset 8
	.cfi_offset 5, -8
	movl	%esp, %ebp
LCFI52:
	.cfi_def_cfa_register 5
	subl	$8, %esp
	movl	%ecx, -4(%ebp)
LBB7:
	.loc 3 143 0
	movl	8(%ebp), %eax
	movl	%eax, (%esp)
	call	__ZSt7forwardIRSt17_Rb_tree_iteratorISt4pairIKiP4TestEEEOT_RNSt16remove_referenceIS8_E4typeE
	movl	-4(%ebp), %edx
	movl	(%eax), %eax
	movl	%eax, (%edx)
	movl	12(%ebp), %eax
	movl	%eax, (%esp)
	call	__ZSt7forwardIbEOT_RNSt16remove_referenceIS0_E4typeE
	movb	(%eax), %dl
	movl	-4(%ebp), %eax
	movb	%dl, 4(%eax)
LBE7:
	leave
LCFI53:
	.cfi_restore 5
	.cfi_def_cfa 4, 4
	ret	$8
	.cfi_endproc
LFE1036:
	.section	.text$_ZNSt8_Rb_treeIiSt4pairIKiP4TestESt10_Select1stIS4_ESt4lessIiESaIS4_EE16_M_insert_uniqueIS0_IiS3_EEES0_ISt17_Rb_tree_iteratorIS4_EbEOT_,"x"
	.linkonce discard
	.align 2
	.globl	__ZNSt8_Rb_treeIiSt4pairIKiP4TestESt10_Select1stIS4_ESt4lessIiESaIS4_EE16_M_insert_uniqueIS0_IiS3_EEES0_ISt17_Rb_tree_iteratorIS4_EbEOT_
	.def	__ZNSt8_Rb_treeIiSt4pairIKiP4TestESt10_Select1stIS4_ESt4lessIiESaIS4_EE16_M_insert_uniqueIS0_IiS3_EEES0_ISt17_Rb_tree_iteratorIS4_EbEOT_;	.scl	2;	.type	32;	.endef
__ZNSt8_Rb_treeIiSt4pairIKiP4TestESt10_Select1stIS4_ESt4lessIiESaIS4_EE16_M_insert_uniqueIS0_IiS3_EEES0_ISt17_Rb_tree_iteratorIS4_EbEOT_:
LFB1027:
	.loc 6 1272 0
	.cfi_startproc
	.cfi_personality 0,___gxx_personality_v0
	.cfi_lsda 0,LLSDA1027
	pushl	%ebp
LCFI54:
	.cfi_def_cfa_offset 8
	.cfi_offset 5, -8
	movl	%esp, %ebp
LCFI55:
	.cfi_def_cfa_register 5
	pushl	%ebx
	subl	$84, %esp
	.cfi_offset 3, -12
	movl	%ecx, -60(%ebp)
LBB8:
	.loc 6 1279 0
	movl	8(%ebp), %ecx
	call	__ZNSt8_Rb_treeIiSt4pairIKiP4TestESt10_Select1stIS4_ESt4lessIiESaIS4_EE8_M_beginEv
	movl	%eax, -12(%ebp)
	.loc 6 1280 0
	movl	8(%ebp), %ecx
	call	__ZNSt8_Rb_treeIiSt4pairIKiP4TestESt10_Select1stIS4_ESt4lessIiESaIS4_EE6_M_endEv
	movl	%eax, -16(%ebp)
	.loc 6 1281 0
	movb	$1, -17(%ebp)
	.loc 6 1282 0
	jmp	L51
L54:
	.loc 6 1284 0
	movl	-12(%ebp), %eax
	movl	%eax, -16(%ebp)
	.loc 6 1285 0
	movl	-12(%ebp), %eax
	movl	%eax, (%esp)
LEHB6:
	call	__ZNSt8_Rb_treeIiSt4pairIKiP4TestESt10_Select1stIS4_ESt4lessIiESaIS4_EE6_S_keyEPKSt13_Rb_tree_nodeIS4_E
LEHE6:
	movl	%eax, %ebx
	leal	-41(%ebp), %eax
	movl	12(%ebp), %edx
	movl	%edx, (%esp)
	movl	%eax, %ecx
	call	__ZNKSt10_Select1stISt4pairIKiP4TestEEclIS0_IiS3_EEERNT_10first_typeERS8_
	subl	$4, %esp
	movl	8(%ebp), %edx
	movl	%ebx, 4(%esp)
	movl	%eax, (%esp)
	movl	%edx, %ecx
	call	__ZNKSt4lessIiEclERKiS2_
	subl	$8, %esp
	movb	%al, -17(%ebp)
	.loc 6 1286 0
	cmpb	$0, -17(%ebp)
	je	L52
	.loc 6 1286 0 is_stmt 0 discriminator 1
	movl	-12(%ebp), %eax
	movl	%eax, (%esp)
	call	__ZNSt8_Rb_treeIiSt4pairIKiP4TestESt10_Select1stIS4_ESt4lessIiESaIS4_EE7_S_leftEPSt18_Rb_tree_node_base
	jmp	L53
L52:
	.loc 6 1286 0 discriminator 2
	movl	-12(%ebp), %eax
	movl	%eax, (%esp)
	call	__ZNSt8_Rb_treeIiSt4pairIKiP4TestESt10_Select1stIS4_ESt4lessIiESaIS4_EE8_S_rightEPSt18_Rb_tree_node_base
L53:
	.loc 6 1286 0 discriminator 3
	movl	%eax, -12(%ebp)
L51:
	.loc 6 1282 0 is_stmt 1 discriminator 1
	cmpl	$0, -12(%ebp)
	setne	%al
	testb	%al, %al
	jne	L54
	.loc 6 1288 0
	leal	-48(%ebp), %eax
	movl	-16(%ebp), %edx
	movl	%edx, (%esp)
	movl	%eax, %ecx
	call	__ZNSt17_Rb_tree_iteratorISt4pairIKiP4TestEEC1EPSt13_Rb_tree_nodeIS4_E
	subl	$4, %esp
	.loc 6 1289 0
	cmpb	$0, -17(%ebp)
	je	L55
	.loc 6 1291 0
	movl	8(%ebp), %ecx
	call	__ZNSt8_Rb_treeIiSt4pairIKiP4TestESt10_Select1stIS4_ESt4lessIiESaIS4_EE5beginEv
	movl	%eax, -40(%ebp)
	leal	-48(%ebp), %eax
	leal	-40(%ebp), %edx
	movl	%edx, (%esp)
	movl	%eax, %ecx
	call	__ZNKSt17_Rb_tree_iteratorISt4pairIKiP4TestEEeqERKS5_
	subl	$4, %esp
	testb	%al, %al
	je	L56
	.loc 6 1293 0
	movb	$1, -33(%ebp)
	movl	12(%ebp), %eax
	movl	%eax, (%esp)
	call	__ZSt7forwardISt4pairIiP4TestEEOT_RNSt16remove_referenceIS4_E4typeE
	movl	%eax, 8(%esp)
	movl	-16(%ebp), %eax
	movl	%eax, 4(%esp)
	movl	-12(%ebp), %eax
	movl	%eax, (%esp)
	movl	8(%ebp), %ecx
LEHB7:
	call	__ZNSt8_Rb_treeIiSt4pairIKiP4TestESt10_Select1stIS4_ESt4lessIiESaIS4_EE10_M_insert_IS0_IiS3_EEESt17_Rb_tree_iteratorIS4_EPKSt18_Rb_tree_node_baseSH_OT_
LEHE7:
	subl	$12, %esp
	movl	%eax, -32(%ebp)
	movl	-60(%ebp), %eax
	leal	-33(%ebp), %edx
	movl	%edx, 4(%esp)
	leal	-32(%ebp), %edx
	movl	%edx, (%esp)
	movl	%eax, %ecx
	call	__ZNSt4pairISt17_Rb_tree_iteratorIS_IKiP4TestEEbEC1IS5_bvEEOT_OT0_
	subl	$8, %esp
	jmp	L50
L56:
	.loc 6 1295 0
	leal	-48(%ebp), %eax
	movl	%eax, %ecx
	call	__ZNSt17_Rb_tree_iteratorISt4pairIKiP4TestEEmmEv
L55:
	.loc 6 1297 0
	leal	-26(%ebp), %eax
	movl	12(%ebp), %edx
	movl	%edx, (%esp)
	movl	%eax, %ecx
	call	__ZNKSt10_Select1stISt4pairIKiP4TestEEclIS0_IiS3_EEERNT_10first_typeERS8_
	subl	$4, %esp
	movl	%eax, %ebx
	movl	-48(%ebp), %eax
	movl	%eax, (%esp)
LEHB8:
	call	__ZNSt8_Rb_treeIiSt4pairIKiP4TestESt10_Select1stIS4_ESt4lessIiESaIS4_EE6_S_keyEPKSt18_Rb_tree_node_base
LEHE8:
	movl	%eax, %edx
	movl	8(%ebp), %eax
	movl	%ebx, 4(%esp)
	movl	%edx, (%esp)
	movl	%eax, %ecx
	call	__ZNKSt4lessIiEclERKiS2_
	subl	$8, %esp
	testb	%al, %al
	je	L58
	.loc 6 1299 0
	movb	$1, -25(%ebp)
	movl	12(%ebp), %eax
	movl	%eax, (%esp)
	call	__ZSt7forwardISt4pairIiP4TestEEOT_RNSt16remove_referenceIS4_E4typeE
	movl	%eax, 8(%esp)
	movl	-16(%ebp), %eax
	movl	%eax, 4(%esp)
	movl	-12(%ebp), %eax
	movl	%eax, (%esp)
	movl	8(%ebp), %ecx
LEHB9:
	call	__ZNSt8_Rb_treeIiSt4pairIKiP4TestESt10_Select1stIS4_ESt4lessIiESaIS4_EE10_M_insert_IS0_IiS3_EEESt17_Rb_tree_iteratorIS4_EPKSt18_Rb_tree_node_baseSH_OT_
LEHE9:
	subl	$12, %esp
	movl	%eax, -24(%ebp)
	movl	-60(%ebp), %eax
	leal	-25(%ebp), %edx
	movl	%edx, 4(%esp)
	leal	-24(%ebp), %edx
	movl	%edx, (%esp)
	movl	%eax, %ecx
	call	__ZNSt4pairISt17_Rb_tree_iteratorIS_IKiP4TestEEbEC1IS5_bvEEOT_OT0_
	subl	$8, %esp
	jmp	L50
L58:
	.loc 6 1300 0
	movb	$0, -18(%ebp)
	movl	-60(%ebp), %eax
	leal	-18(%ebp), %edx
	movl	%edx, 4(%esp)
	leal	-48(%ebp), %edx
	movl	%edx, (%esp)
	movl	%eax, %ecx
	call	__ZNSt4pairISt17_Rb_tree_iteratorIS_IKiP4TestEEbEC1IRS5_bvEEOT_OT0_
	subl	$8, %esp
	jmp	L50
L65:
	jmp	L61
L66:
	jmp	L61
L67:
	jmp	L61
L64:
L61:
	movl	%eax, (%esp)
LEHB10:
	call	__Unwind_Resume
LEHE10:
L50:
LBE8:
	.loc 6 1301 0
	movl	-60(%ebp), %eax
	movl	-4(%ebp), %ebx
	leave
LCFI56:
	.cfi_restore 5
	.cfi_restore 3
	.cfi_def_cfa 4, 4
	ret	$8
	.cfi_endproc
LFE1027:
	.section	.gcc_except_table,"w"
LLSDA1027:
	.byte	0xff
	.byte	0xff
	.byte	0x1
	.uleb128 LLSDACSE1027-LLSDACSB1027
LLSDACSB1027:
	.uleb128 LEHB6-LFB1027
	.uleb128 LEHE6-LEHB6
	.uleb128 L64-LFB1027
	.uleb128 0
	.uleb128 LEHB7-LFB1027
	.uleb128 LEHE7-LEHB7
	.uleb128 L65-LFB1027
	.uleb128 0
	.uleb128 LEHB8-LFB1027
	.uleb128 LEHE8-LEHB8
	.uleb128 L66-LFB1027
	.uleb128 0
	.uleb128 LEHB9-LFB1027
	.uleb128 LEHE9-LEHB9
	.uleb128 L67-LFB1027
	.uleb128 0
	.uleb128 LEHB10-LFB1027
	.uleb128 LEHE10-LEHB10
	.uleb128 0
	.uleb128 0
LLSDACSE1027:
	.section	.text$_ZNSt8_Rb_treeIiSt4pairIKiP4TestESt10_Select1stIS4_ESt4lessIiESaIS4_EE16_M_insert_uniqueIS0_IiS3_EEES0_ISt17_Rb_tree_iteratorIS4_EbEOT_,"x"
	.linkonce discard
	.section	.text$_ZNSt8_Rb_treeIiSt4pairIKiP4TestESt10_Select1stIS4_ESt4lessIiESaIS4_EE5beginEv,"x"
	.linkonce discard
	.align 2
	.globl	__ZNSt8_Rb_treeIiSt4pairIKiP4TestESt10_Select1stIS4_ESt4lessIiESaIS4_EE5beginEv
	.def	__ZNSt8_Rb_treeIiSt4pairIKiP4TestESt10_Select1stIS4_ESt4lessIiESaIS4_EE5beginEv;	.scl	2;	.type	32;	.endef
__ZNSt8_Rb_treeIiSt4pairIKiP4TestESt10_Select1stIS4_ESt4lessIiESaIS4_EE5beginEv:
LFB1040:
	.loc 6 657 0
	.cfi_startproc
	pushl	%ebp
LCFI57:
	.cfi_def_cfa_offset 8
	.cfi_offset 5, -8
	movl	%esp, %ebp
LCFI58:
	.cfi_def_cfa_register 5
	subl	$56, %esp
	movl	%ecx, -28(%ebp)
	.loc 6 660 0
	movl	-28(%ebp), %eax
	movl	12(%eax), %edx
	leal	-12(%ebp), %eax
	movl	%edx, (%esp)
	movl	%eax, %ecx
	call	__ZNSt17_Rb_tree_iteratorISt4pairIKiP4TestEEC1EPSt13_Rb_tree_nodeIS4_E
	subl	$4, %esp
	movl	-12(%ebp), %eax
	.loc 6 661 0
	leave
LCFI59:
	.cfi_restore 5
	.cfi_def_cfa 4, 4
	ret
	.cfi_endproc
LFE1040:
	.section	.text$_ZNSt8_Rb_treeIiSt4pairIKiP4TestESt10_Select1stIS4_ESt4lessIiESaIS4_EE3endEv,"x"
	.linkonce discard
	.align 2
	.globl	__ZNSt8_Rb_treeIiSt4pairIKiP4TestESt10_Select1stIS4_ESt4lessIiESaIS4_EE3endEv
	.def	__ZNSt8_Rb_treeIiSt4pairIKiP4TestESt10_Select1stIS4_ESt4lessIiESaIS4_EE3endEv;	.scl	2;	.type	32;	.endef
__ZNSt8_Rb_treeIiSt4pairIKiP4TestESt10_Select1stIS4_ESt4lessIiESaIS4_EE3endEv:
LFB1041:
	.loc 6 671 0
	.cfi_startproc
	pushl	%ebp
LCFI60:
	.cfi_def_cfa_offset 8
	.cfi_offset 5, -8
	movl	%esp, %ebp
LCFI61:
	.cfi_def_cfa_register 5
	subl	$56, %esp
	movl	%ecx, -28(%ebp)
	.loc 6 672 0
	movl	-28(%ebp), %eax
	leal	4(%eax), %edx
	leal	-12(%ebp), %eax
	movl	%edx, (%esp)
	movl	%eax, %ecx
	call	__ZNSt17_Rb_tree_iteratorISt4pairIKiP4TestEEC1EPSt13_Rb_tree_nodeIS4_E
	subl	$4, %esp
	movl	-12(%ebp), %eax
	leave
LCFI62:
	.cfi_restore 5
	.cfi_def_cfa 4, 4
	ret
	.cfi_endproc
LFE1041:
	.section	.text$_ZNKSt8_Rb_treeIiSt4pairIKiP4TestESt10_Select1stIS4_ESt4lessIiESaIS4_EE4sizeEv,"x"
	.linkonce discard
	.align 2
	.globl	__ZNKSt8_Rb_treeIiSt4pairIKiP4TestESt10_Select1stIS4_ESt4lessIiESaIS4_EE4sizeEv
	.def	__ZNKSt8_Rb_treeIiSt4pairIKiP4TestESt10_Select1stIS4_ESt4lessIiESaIS4_EE4sizeEv;	.scl	2;	.type	32;	.endef
__ZNKSt8_Rb_treeIiSt4pairIKiP4TestESt10_Select1stIS4_ESt4lessIiESaIS4_EE4sizeEv:
LFB1043:
	.loc 6 702 0
	.cfi_startproc
	pushl	%ebp
LCFI63:
	.cfi_def_cfa_offset 8
	.cfi_offset 5, -8
	movl	%esp, %ebp
LCFI64:
	.cfi_def_cfa_register 5
	subl	$4, %esp
	movl	%ecx, -4(%ebp)
	.loc 6 703 0
	movl	-4(%ebp), %eax
	movl	20(%eax), %eax
	leave
LCFI65:
	.cfi_restore 5
	.cfi_def_cfa 4, 4
	ret
	.cfi_endproc
LFE1043:
	.section	.text$_ZNSt3mapIiP4TestSt4lessIiESaISt4pairIKiS1_EEE11lower_boundERS5_,"x"
	.linkonce discard
	.align 2
	.globl	__ZNSt3mapIiP4TestSt4lessIiESaISt4pairIKiS1_EEE11lower_boundERS5_
	.def	__ZNSt3mapIiP4TestSt4lessIiESaISt4pairIKiS1_EEE11lower_boundERS5_;	.scl	2;	.type	32;	.endef
__ZNSt3mapIiP4TestSt4lessIiESaISt4pairIKiS1_EEE11lower_boundERS5_:
LFB1044:
	.loc 5 790 0
	.cfi_startproc
	pushl	%ebp
LCFI66:
	.cfi_def_cfa_offset 8
	.cfi_offset 5, -8
	movl	%esp, %ebp
LCFI67:
	.cfi_def_cfa_register 5
	subl	$40, %esp
	movl	%ecx, -12(%ebp)
	.loc 5 791 0
	movl	-12(%ebp), %eax
	movl	8(%ebp), %edx
	movl	%edx, (%esp)
	movl	%eax, %ecx
	call	__ZNSt8_Rb_treeIiSt4pairIKiP4TestESt10_Select1stIS4_ESt4lessIiESaIS4_EE11lower_boundERS1_
	subl	$4, %esp
	leave
LCFI68:
	.cfi_restore 5
	.cfi_def_cfa 4, 4
	ret	$4
	.cfi_endproc
LFE1044:
	.section	.text$_ZNKSt3mapIiP4TestSt4lessIiESaISt4pairIKiS1_EEE8key_compEv,"x"
	.linkonce discard
	.align 2
	.globl	__ZNKSt3mapIiP4TestSt4lessIiESaISt4pairIKiS1_EEE8key_compEv
	.def	__ZNKSt3mapIiP4TestSt4lessIiESaISt4pairIKiS1_EEE8key_compEv;	.scl	2;	.type	32;	.endef
__ZNKSt3mapIiP4TestSt4lessIiESaISt4pairIKiS1_EEE8key_compEv:
LFB1045:
	.loc 5 724 0
	.cfi_startproc
	pushl	%ebp
LCFI69:
	.cfi_def_cfa_offset 8
	.cfi_offset 5, -8
	movl	%esp, %ebp
LCFI70:
	.cfi_def_cfa_register 5
	pushl	%ebx
	subl	$20, %esp
	.cfi_offset 3, -12
	movl	%ecx, -12(%ebp)
	.loc 5 725 0
	movl	-12(%ebp), %eax
	movl	%eax, %ecx
	call	__ZNKSt8_Rb_treeIiSt4pairIKiP4TestESt10_Select1stIS4_ESt4lessIiESaIS4_EE8key_compEv
	movb	%bl, %al
	addl	$20, %esp
	popl	%ebx
	.cfi_restore 3
	popl	%ebp
LCFI71:
	.cfi_restore 5
	.cfi_def_cfa 4, 4
	ret
	.cfi_endproc
LFE1045:
	.section	.text$_ZNKSt17_Rb_tree_iteratorISt4pairIKiP4TestEEdeEv,"x"
	.linkonce discard
	.align 2
	.globl	__ZNKSt17_Rb_tree_iteratorISt4pairIKiP4TestEEdeEv
	.def	__ZNKSt17_Rb_tree_iteratorISt4pairIKiP4TestEEdeEv;	.scl	2;	.type	32;	.endef
__ZNKSt17_Rb_tree_iteratorISt4pairIKiP4TestEEdeEv:
LFB1046:
	.loc 6 177 0
	.cfi_startproc
	pushl	%ebp
LCFI72:
	.cfi_def_cfa_offset 8
	.cfi_offset 5, -8
	movl	%esp, %ebp
LCFI73:
	.cfi_def_cfa_register 5
	subl	$4, %esp
	movl	%ecx, -4(%ebp)
	.loc 6 178 0
	movl	-4(%ebp), %eax
	movl	(%eax), %eax
	addl	$16, %eax
	leave
LCFI74:
	.cfi_restore 5
	.cfi_def_cfa 4, 4
	ret
	.cfi_endproc
LFE1046:
	.section	.text$_ZNKSt4lessIiEclERKiS2_,"x"
	.linkonce discard
	.align 2
	.globl	__ZNKSt4lessIiEclERKiS2_
	.def	__ZNKSt4lessIiEclERKiS2_;	.scl	2;	.type	32;	.endef
__ZNKSt4lessIiEclERKiS2_:
LFB1047:
	.file 7 "c:/program files (x86)/codeblocks/mingw/bin/../lib/gcc/mingw32/4.7.0/include/c++/bits/stl_function.h"
	.loc 7 235 0
	.cfi_startproc
	pushl	%ebp
LCFI75:
	.cfi_def_cfa_offset 8
	.cfi_offset 5, -8
	movl	%esp, %ebp
LCFI76:
	.cfi_def_cfa_register 5
	subl	$4, %esp
	movl	%ecx, -4(%ebp)
	.loc 7 236 0
	movl	8(%ebp), %eax
	movl	(%eax), %edx
	movl	12(%ebp), %eax
	movl	(%eax), %eax
	cmpl	%eax, %edx
	setl	%al
	leave
LCFI77:
	.cfi_restore 5
	.cfi_def_cfa 4, 4
	ret	$8
	.cfi_endproc
LFE1047:
	.section	.text$_ZNKSt17_Rb_tree_iteratorISt4pairIKiP4TestEEeqERKS5_,"x"
	.linkonce discard
	.align 2
	.globl	__ZNKSt17_Rb_tree_iteratorISt4pairIKiP4TestEEeqERKS5_
	.def	__ZNKSt17_Rb_tree_iteratorISt4pairIKiP4TestEEeqERKS5_;	.scl	2;	.type	32;	.endef
__ZNKSt17_Rb_tree_iteratorISt4pairIKiP4TestEEeqERKS5_:
LFB1048:
	.loc 6 216 0
	.cfi_startproc
	pushl	%ebp
LCFI78:
	.cfi_def_cfa_offset 8
	.cfi_offset 5, -8
	movl	%esp, %ebp
LCFI79:
	.cfi_def_cfa_register 5
	subl	$4, %esp
	movl	%ecx, -4(%ebp)
	.loc 6 217 0
	movl	-4(%ebp), %eax
	movl	(%eax), %edx
	movl	8(%ebp), %eax
	movl	(%eax), %eax
	cmpl	%eax, %edx
	sete	%al
	leave
LCFI80:
	.cfi_restore 5
	.cfi_def_cfa 4, 4
	ret	$4
	.cfi_endproc
LFE1048:
	.section	.text$_ZNSt23_Rb_tree_const_iteratorISt4pairIKiP4TestEEC1ERKSt17_Rb_tree_iteratorIS4_E,"x"
	.linkonce discard
	.align 2
	.globl	__ZNSt23_Rb_tree_const_iteratorISt4pairIKiP4TestEEC1ERKSt17_Rb_tree_iteratorIS4_E
	.def	__ZNSt23_Rb_tree_const_iteratorISt4pairIKiP4TestEEC1ERKSt17_Rb_tree_iteratorIS4_E;	.scl	2;	.type	32;	.endef
__ZNSt23_Rb_tree_const_iteratorISt4pairIKiP4TestEEC1ERKSt17_Rb_tree_iteratorIS4_E:
LFB1054:
	.loc 6 249 0
	.cfi_startproc
	pushl	%ebp
LCFI81:
	.cfi_def_cfa_offset 8
	.cfi_offset 5, -8
	movl	%esp, %ebp
LCFI82:
	.cfi_def_cfa_register 5
	subl	$4, %esp
	movl	%ecx, -4(%ebp)
LBB9:
	.loc 6 250 0
	movl	8(%ebp), %eax
	movl	(%eax), %edx
	movl	-4(%ebp), %eax
	movl	%edx, (%eax)
LBE9:
	leave
LCFI83:
	.cfi_restore 5
	.cfi_def_cfa 4, 4
	ret	$4
	.cfi_endproc
LFE1054:
	.section	.text$_ZNSt3mapIiP4TestSt4lessIiESaISt4pairIKiS1_EEE6insertIS4_IiS1_EvEESt17_Rb_tree_iteratorIS6_ESt23_Rb_tree_const_iteratorIS6_EOT_,"x"
	.linkonce discard
	.align 2
	.globl	__ZNSt3mapIiP4TestSt4lessIiESaISt4pairIKiS1_EEE6insertIS4_IiS1_EvEESt17_Rb_tree_iteratorIS6_ESt23_Rb_tree_const_iteratorIS6_EOT_
	.def	__ZNSt3mapIiP4TestSt4lessIiESaISt4pairIKiS1_EEE6insertIS4_IiS1_EvEESt17_Rb_tree_iteratorIS6_ESt23_Rb_tree_const_iteratorIS6_EOT_;	.scl	2;	.type	32;	.endef
__ZNSt3mapIiP4TestSt4lessIiESaISt4pairIKiS1_EEE6insertIS4_IiS1_EvEESt17_Rb_tree_iteratorIS6_ESt23_Rb_tree_const_iteratorIS6_EOT_:
LFB1055:
	.loc 5 583 0
	.cfi_startproc
	pushl	%ebp
LCFI84:
	.cfi_def_cfa_offset 8
	.cfi_offset 5, -8
	movl	%esp, %ebp
LCFI85:
	.cfi_def_cfa_register 5
	subl	$40, %esp
	movl	%ecx, -12(%ebp)
	.loc 5 585 0
	movl	12(%ebp), %eax
	movl	%eax, (%esp)
	call	__ZSt7forwardISt4pairIiP4TestEEOT_RNSt16remove_referenceIS4_E4typeE
	movl	-12(%ebp), %edx
	movl	%eax, 4(%esp)
	movl	8(%ebp), %eax
	movl	%eax, (%esp)
	movl	%edx, %ecx
	call	__ZNSt8_Rb_treeIiSt4pairIKiP4TestESt10_Select1stIS4_ESt4lessIiESaIS4_EE17_M_insert_unique_IS0_IiS3_EEESt17_Rb_tree_iteratorIS4_ESt23_Rb_tree_const_iteratorIS4_EOT_
	subl	$8, %esp
	leave
LCFI86:
	.cfi_restore 5
	.cfi_def_cfa 4, 4
	ret	$8
	.cfi_endproc
LFE1055:
	.section	.text$_ZNSt8_Rb_treeIiSt4pairIKiP4TestESt10_Select1stIS4_ESt4lessIiESaIS4_EE8_S_rightEPSt18_Rb_tree_node_base,"x"
	.linkonce discard
	.globl	__ZNSt8_Rb_treeIiSt4pairIKiP4TestESt10_Select1stIS4_ESt4lessIiESaIS4_EE8_S_rightEPSt18_Rb_tree_node_base
	.def	__ZNSt8_Rb_treeIiSt4pairIKiP4TestESt10_Select1stIS4_ESt4lessIiESaIS4_EE8_S_rightEPSt18_Rb_tree_node_base;	.scl	2;	.type	32;	.endef
__ZNSt8_Rb_treeIiSt4pairIKiP4TestESt10_Select1stIS4_ESt4lessIiESaIS4_EE8_S_rightEPSt18_Rb_tree_node_base:
LFB1069:
	.loc 6 534 0
	.cfi_startproc
	pushl	%ebp
LCFI87:
	.cfi_def_cfa_offset 8
	.cfi_offset 5, -8
	movl	%esp, %ebp
LCFI88:
	.cfi_def_cfa_register 5
	.loc 6 535 0
	movl	8(%ebp), %eax
	movl	12(%eax), %eax
	popl	%ebp
LCFI89:
	.cfi_restore 5
	.cfi_def_cfa 4, 4
	ret
	.cfi_endproc
LFE1069:
	.section	.text$_ZNSt8_Rb_treeIiSt4pairIKiP4TestESt10_Select1stIS4_ESt4lessIiESaIS4_EE7_S_leftEPSt18_Rb_tree_node_base,"x"
	.linkonce discard
	.globl	__ZNSt8_Rb_treeIiSt4pairIKiP4TestESt10_Select1stIS4_ESt4lessIiESaIS4_EE7_S_leftEPSt18_Rb_tree_node_base
	.def	__ZNSt8_Rb_treeIiSt4pairIKiP4TestESt10_Select1stIS4_ESt4lessIiESaIS4_EE7_S_leftEPSt18_Rb_tree_node_base;	.scl	2;	.type	32;	.endef
__ZNSt8_Rb_treeIiSt4pairIKiP4TestESt10_Select1stIS4_ESt4lessIiESaIS4_EE7_S_leftEPSt18_Rb_tree_node_base:
LFB1070:
	.loc 6 526 0
	.cfi_startproc
	pushl	%ebp
LCFI90:
	.cfi_def_cfa_offset 8
	.cfi_offset 5, -8
	movl	%esp, %ebp
LCFI91:
	.cfi_def_cfa_register 5
	.loc 6 527 0
	movl	8(%ebp), %eax
	movl	8(%eax), %eax
	popl	%ebp
LCFI92:
	.cfi_restore 5
	.cfi_def_cfa 4, 4
	ret
	.cfi_endproc
LFE1070:
	.section	.text$_ZNSt8_Rb_treeIiSt4pairIKiP4TestESt10_Select1stIS4_ESt4lessIiESaIS4_EE6_M_endEv,"x"
	.linkonce discard
	.align 2
	.globl	__ZNSt8_Rb_treeIiSt4pairIKiP4TestESt10_Select1stIS4_ESt4lessIiESaIS4_EE6_M_endEv
	.def	__ZNSt8_Rb_treeIiSt4pairIKiP4TestESt10_Select1stIS4_ESt4lessIiESaIS4_EE6_M_endEv;	.scl	2;	.type	32;	.endef
__ZNSt8_Rb_treeIiSt4pairIKiP4TestESt10_Select1stIS4_ESt4lessIiESaIS4_EE6_M_endEv:
LFB1072:
	.loc 6 510 0
	.cfi_startproc
	pushl	%ebp
LCFI93:
	.cfi_def_cfa_offset 8
	.cfi_offset 5, -8
	movl	%esp, %ebp
LCFI94:
	.cfi_def_cfa_register 5
	subl	$4, %esp
	movl	%ecx, -4(%ebp)
	.loc 6 511 0
	movl	-4(%ebp), %eax
	addl	$4, %eax
	leave
LCFI95:
	.cfi_restore 5
	.cfi_def_cfa 4, 4
	ret
	.cfi_endproc
LFE1072:
	.section	.text$_ZNKSt10_Select1stISt4pairIKiP4TestEEclIS0_IiS3_EEERNT_10first_typeERS8_,"x"
	.linkonce discard
	.align 2
	.globl	__ZNKSt10_Select1stISt4pairIKiP4TestEEclIS0_IiS3_EEERNT_10first_typeERS8_
	.def	__ZNKSt10_Select1stISt4pairIKiP4TestEEclIS0_IiS3_EEERNT_10first_typeERS8_;	.scl	2;	.type	32;	.endef
__ZNKSt10_Select1stISt4pairIKiP4TestEEclIS0_IiS3_EEERNT_10first_typeERS8_:
LFB1073:
	.loc 7 500 0
	.cfi_startproc
	pushl	%ebp
LCFI96:
	.cfi_def_cfa_offset 8
	.cfi_offset 5, -8
	movl	%esp, %ebp
LCFI97:
	.cfi_def_cfa_register 5
	subl	$4, %esp
	movl	%ecx, -4(%ebp)
	.loc 7 501 0
	movl	8(%ebp), %eax
	leave
LCFI98:
	.cfi_restore 5
	.cfi_def_cfa 4, 4
	ret	$4
	.cfi_endproc
LFE1073:
	.section	.text$_ZNSt8_Rb_treeIiSt4pairIKiP4TestESt10_Select1stIS4_ESt4lessIiESaIS4_EE6_S_keyEPKSt13_Rb_tree_nodeIS4_E,"x"
	.linkonce discard
	.globl	__ZNSt8_Rb_treeIiSt4pairIKiP4TestESt10_Select1stIS4_ESt4lessIiESaIS4_EE6_S_keyEPKSt13_Rb_tree_nodeIS4_E
	.def	__ZNSt8_Rb_treeIiSt4pairIKiP4TestESt10_Select1stIS4_ESt4lessIiESaIS4_EE6_S_keyEPKSt13_Rb_tree_nodeIS4_E;	.scl	2;	.type	32;	.endef
__ZNSt8_Rb_treeIiSt4pairIKiP4TestESt10_Select1stIS4_ESt4lessIiESaIS4_EE6_S_keyEPKSt13_Rb_tree_nodeIS4_E:
LFB1074:
	.loc 6 522 0
	.cfi_startproc
	pushl	%ebp
LCFI99:
	.cfi_def_cfa_offset 8
	.cfi_offset 5, -8
	movl	%esp, %ebp
LCFI100:
	.cfi_def_cfa_register 5
	subl	$40, %esp
	.loc 6 523 0
	movl	8(%ebp), %eax
	movl	%eax, (%esp)
	call	__ZNSt8_Rb_treeIiSt4pairIKiP4TestESt10_Select1stIS4_ESt4lessIiESaIS4_EE8_S_valueEPKSt13_Rb_tree_nodeIS4_E
	leal	-9(%ebp), %edx
	movl	%eax, (%esp)
	movl	%edx, %ecx
	call	__ZNKSt10_Select1stISt4pairIKiP4TestEEclERKS4_
	subl	$4, %esp
	leave
LCFI101:
	.cfi_restore 5
	.cfi_def_cfa 4, 4
	ret
	.cfi_endproc
LFE1074:
	.section	.text$_ZNSt17_Rb_tree_iteratorISt4pairIKiP4TestEEC1EPSt13_Rb_tree_nodeIS4_E,"x"
	.linkonce discard
	.align 2
	.globl	__ZNSt17_Rb_tree_iteratorISt4pairIKiP4TestEEC1EPSt13_Rb_tree_nodeIS4_E
	.def	__ZNSt17_Rb_tree_iteratorISt4pairIKiP4TestEEC1EPSt13_Rb_tree_nodeIS4_E;	.scl	2;	.type	32;	.endef
__ZNSt17_Rb_tree_iteratorISt4pairIKiP4TestEEC1EPSt13_Rb_tree_nodeIS4_E:
LFB1077:
	.loc 6 173 0
	.cfi_startproc
	pushl	%ebp
LCFI102:
	.cfi_def_cfa_offset 8
	.cfi_offset 5, -8
	movl	%esp, %ebp
LCFI103:
	.cfi_def_cfa_register 5
	subl	$4, %esp
	movl	%ecx, -4(%ebp)
LBB10:
	.loc 6 174 0
	movl	-4(%ebp), %eax
	movl	8(%ebp), %edx
	movl	%edx, (%eax)
LBE10:
	leave
LCFI104:
	.cfi_restore 5
	.cfi_def_cfa 4, 4
	ret	$4
	.cfi_endproc
LFE1077:
	.section	.text$_ZNSt8_Rb_treeIiSt4pairIKiP4TestESt10_Select1stIS4_ESt4lessIiESaIS4_EE10_M_insert_IS0_IiS3_EEESt17_Rb_tree_iteratorIS4_EPKSt18_Rb_tree_node_baseSH_OT_,"x"
	.linkonce discard
	.align 2
	.globl	__ZNSt8_Rb_treeIiSt4pairIKiP4TestESt10_Select1stIS4_ESt4lessIiESaIS4_EE10_M_insert_IS0_IiS3_EEESt17_Rb_tree_iteratorIS4_EPKSt18_Rb_tree_node_baseSH_OT_
	.def	__ZNSt8_Rb_treeIiSt4pairIKiP4TestESt10_Select1stIS4_ESt4lessIiESaIS4_EE10_M_insert_IS0_IiS3_EEESt17_Rb_tree_iteratorIS4_EPKSt18_Rb_tree_node_baseSH_OT_;	.scl	2;	.type	32;	.endef
__ZNSt8_Rb_treeIiSt4pairIKiP4TestESt10_Select1stIS4_ESt4lessIiESaIS4_EE10_M_insert_IS0_IiS3_EEESt17_Rb_tree_iteratorIS4_EPKSt18_Rb_tree_node_baseSH_OT_:
LFB1078:
	.loc 6 968 0
	.cfi_startproc
	.cfi_personality 0,___gxx_personality_v0
	.cfi_lsda 0,LLSDA1078
	pushl	%ebp
LCFI105:
	.cfi_def_cfa_offset 8
	.cfi_offset 5, -8
	movl	%esp, %ebp
LCFI106:
	.cfi_def_cfa_register 5
	pushl	%esi
	pushl	%ebx
	subl	$48, %esp
	.cfi_offset 6, -12
	.cfi_offset 3, -16
	movl	%ecx, -28(%ebp)
LBB11:
	.loc 6 977 0
	movb	$0, %bl
	cmpl	$0, 8(%ebp)
	jne	L99
	.loc 6 977 0 is_stmt 0 discriminator 2
	movl	-28(%ebp), %eax
	movl	%eax, %ecx
	call	__ZNSt8_Rb_treeIiSt4pairIKiP4TestESt10_Select1stIS4_ESt4lessIiESaIS4_EE6_M_endEv
	cmpl	12(%ebp), %eax
	je	L99
	.loc 6 977 0 discriminator 3
	movl	12(%ebp), %eax
	movl	%eax, (%esp)
LEHB11:
	call	__ZNSt8_Rb_treeIiSt4pairIKiP4TestESt10_Select1stIS4_ESt4lessIiESaIS4_EE6_S_keyEPKSt18_Rb_tree_node_base
LEHE11:
	movl	%eax, %esi
	movb	$1, %bl
	leal	-21(%ebp), %eax
	movl	16(%ebp), %edx
	movl	%edx, (%esp)
	movl	%eax, %ecx
	call	__ZNKSt10_Select1stISt4pairIKiP4TestEEclIS0_IiS3_EEERNT_10first_typeERS8_
	subl	$4, %esp
	movl	-28(%ebp), %edx
	movl	%esi, 4(%esp)
	movl	%eax, (%esp)
	movl	%edx, %ecx
	call	__ZNKSt4lessIiEclERKiS2_
	subl	$8, %esp
	testb	%al, %al
	je	L100
L99:
	.loc 6 977 0 discriminator 1
	movb	$1, %al
	jmp	L101
L100:
	.loc 6 977 0 discriminator 5
	movb	$0, %al
L101:
	.loc 6 977 0 discriminator 6
	movb	%al, -9(%ebp)
	testb	%bl, %bl
	.loc 6 979 0 is_stmt 1 discriminator 6
	movl	16(%ebp), %eax
	movl	%eax, (%esp)
	call	__ZSt7forwardISt4pairIiP4TestEEOT_RNSt16remove_referenceIS4_E4typeE
	movl	-28(%ebp), %edx
	movl	%eax, (%esp)
	movl	%edx, %ecx
LEHB12:
	call	__ZNSt8_Rb_treeIiSt4pairIKiP4TestESt10_Select1stIS4_ESt4lessIiESaIS4_EE14_M_create_nodeIIS0_IiS3_EEEEPSt13_Rb_tree_nodeIS4_EDpOT_
	subl	$4, %esp
	movl	%eax, -16(%ebp)
	.loc 6 981 0 discriminator 6
	movl	-28(%ebp), %eax
	leal	4(%eax), %edx
	movzbl	-9(%ebp), %eax
	movl	%edx, 12(%esp)
	movl	12(%ebp), %edx
	movl	%edx, 8(%esp)
	movl	-16(%ebp), %edx
	movl	%edx, 4(%esp)
	movl	%eax, (%esp)
	call	__ZSt29_Rb_tree_insert_and_rebalancebPSt18_Rb_tree_node_baseS0_RS_
	.loc 6 984 0 discriminator 6
	movl	-28(%ebp), %eax
	movl	20(%eax), %eax
	leal	1(%eax), %edx
	movl	-28(%ebp), %eax
	movl	%edx, 20(%eax)
	.loc 6 985 0 discriminator 6
	leal	-20(%ebp), %eax
	movl	-16(%ebp), %edx
	movl	%edx, (%esp)
	movl	%eax, %ecx
	call	__ZNSt17_Rb_tree_iteratorISt4pairIKiP4TestEEC1EPSt13_Rb_tree_nodeIS4_E
	subl	$4, %esp
	movl	-20(%ebp), %eax
	jmp	L107
L106:
	.loc 6 977 0
	testb	%bl, %bl
	movl	%eax, (%esp)
	call	__Unwind_Resume
LEHE12:
L107:
LBE11:
	.loc 6 986 0
	leal	-8(%ebp), %esp
	popl	%ebx
	.cfi_restore 3
	popl	%esi
	.cfi_restore 6
	popl	%ebp
LCFI107:
	.cfi_restore 5
	.cfi_def_cfa 4, 4
	ret	$12
	.cfi_endproc
LFE1078:
	.section	.gcc_except_table,"w"
LLSDA1078:
	.byte	0xff
	.byte	0xff
	.byte	0x1
	.uleb128 LLSDACSE1078-LLSDACSB1078
LLSDACSB1078:
	.uleb128 LEHB11-LFB1078
	.uleb128 LEHE11-LEHB11
	.uleb128 L106-LFB1078
	.uleb128 0
	.uleb128 LEHB12-LFB1078
	.uleb128 LEHE12-LEHB12
	.uleb128 0
	.uleb128 0
LLSDACSE1078:
	.section	.text$_ZNSt8_Rb_treeIiSt4pairIKiP4TestESt10_Select1stIS4_ESt4lessIiESaIS4_EE10_M_insert_IS0_IiS3_EEESt17_Rb_tree_iteratorIS4_EPKSt18_Rb_tree_node_baseSH_OT_,"x"
	.linkonce discard
	.section	.text$_ZNSt17_Rb_tree_iteratorISt4pairIKiP4TestEEmmEv,"x"
	.linkonce discard
	.align 2
	.globl	__ZNSt17_Rb_tree_iteratorISt4pairIKiP4TestEEmmEv
	.def	__ZNSt17_Rb_tree_iteratorISt4pairIKiP4TestEEmmEv;	.scl	2;	.type	32;	.endef
__ZNSt17_Rb_tree_iteratorISt4pairIKiP4TestEEmmEv:
LFB1079:
	.loc 6 201 0
	.cfi_startproc
	pushl	%ebp
LCFI108:
	.cfi_def_cfa_offset 8
	.cfi_offset 5, -8
	movl	%esp, %ebp
LCFI109:
	.cfi_def_cfa_register 5
	subl	$40, %esp
	movl	%ecx, -12(%ebp)
	.loc 6 203 0
	movl	-12(%ebp), %eax
	movl	(%eax), %eax
	movl	%eax, (%esp)
	call	__ZSt18_Rb_tree_decrementPSt18_Rb_tree_node_base
	movl	-12(%ebp), %edx
	movl	%eax, (%edx)
	.loc 6 204 0
	movl	-12(%ebp), %eax
	.loc 6 205 0
	leave
LCFI110:
	.cfi_restore 5
	.cfi_def_cfa 4, 4
	ret
	.cfi_endproc
LFE1079:
	.section	.text$_ZNSt8_Rb_treeIiSt4pairIKiP4TestESt10_Select1stIS4_ESt4lessIiESaIS4_EE6_S_keyEPKSt18_Rb_tree_node_base,"x"
	.linkonce discard
	.globl	__ZNSt8_Rb_treeIiSt4pairIKiP4TestESt10_Select1stIS4_ESt4lessIiESaIS4_EE6_S_keyEPKSt18_Rb_tree_node_base
	.def	__ZNSt8_Rb_treeIiSt4pairIKiP4TestESt10_Select1stIS4_ESt4lessIiESaIS4_EE6_S_keyEPKSt18_Rb_tree_node_base;	.scl	2;	.type	32;	.endef
__ZNSt8_Rb_treeIiSt4pairIKiP4TestESt10_Select1stIS4_ESt4lessIiESaIS4_EE6_S_keyEPKSt18_Rb_tree_node_base:
LFB1080:
	.loc 6 546 0
	.cfi_startproc
	pushl	%ebp
LCFI111:
	.cfi_def_cfa_offset 8
	.cfi_offset 5, -8
	movl	%esp, %ebp
LCFI112:
	.cfi_def_cfa_register 5
	subl	$40, %esp
	.loc 6 547 0
	movl	8(%ebp), %eax
	movl	%eax, (%esp)
	call	__ZNSt8_Rb_treeIiSt4pairIKiP4TestESt10_Select1stIS4_ESt4lessIiESaIS4_EE8_S_valueEPKSt18_Rb_tree_node_base
	leal	-9(%ebp), %edx
	movl	%eax, (%esp)
	movl	%edx, %ecx
	call	__ZNKSt10_Select1stISt4pairIKiP4TestEEclERKS4_
	subl	$4, %esp
	leave
LCFI113:
	.cfi_restore 5
	.cfi_def_cfa 4, 4
	ret
	.cfi_endproc
LFE1080:
	.section	.text$_ZNSt8_Rb_treeIiSt4pairIKiP4TestESt10_Select1stIS4_ESt4lessIiESaIS4_EE11lower_boundERS1_,"x"
	.linkonce discard
	.align 2
	.globl	__ZNSt8_Rb_treeIiSt4pairIKiP4TestESt10_Select1stIS4_ESt4lessIiESaIS4_EE11lower_boundERS1_
	.def	__ZNSt8_Rb_treeIiSt4pairIKiP4TestESt10_Select1stIS4_ESt4lessIiESaIS4_EE11lower_boundERS1_;	.scl	2;	.type	32;	.endef
__ZNSt8_Rb_treeIiSt4pairIKiP4TestESt10_Select1stIS4_ESt4lessIiESaIS4_EE11lower_boundERS1_:
LFB1081:
	.loc 6 834 0
	.cfi_startproc
	pushl	%ebp
LCFI114:
	.cfi_def_cfa_offset 8
	.cfi_offset 5, -8
	movl	%esp, %ebp
LCFI115:
	.cfi_def_cfa_register 5
	pushl	%ebx
	subl	$36, %esp
	.cfi_offset 3, -12
	movl	%ecx, -12(%ebp)
	.loc 6 835 0
	movl	-12(%ebp), %eax
	movl	%eax, %ecx
	call	__ZNSt8_Rb_treeIiSt4pairIKiP4TestESt10_Select1stIS4_ESt4lessIiESaIS4_EE6_M_endEv
	movl	%eax, %ebx
	movl	-12(%ebp), %eax
	movl	%eax, %ecx
	call	__ZNSt8_Rb_treeIiSt4pairIKiP4TestESt10_Select1stIS4_ESt4lessIiESaIS4_EE8_M_beginEv
	movl	-12(%ebp), %edx
	movl	8(%ebp), %ecx
	movl	%ecx, 8(%esp)
	movl	%ebx, 4(%esp)
	movl	%eax, (%esp)
	movl	%edx, %ecx
	call	__ZNSt8_Rb_treeIiSt4pairIKiP4TestESt10_Select1stIS4_ESt4lessIiESaIS4_EE14_M_lower_boundEPSt13_Rb_tree_nodeIS4_ESD_RS1_
	subl	$12, %esp
	movl	-4(%ebp), %ebx
	leave
LCFI116:
	.cfi_restore 5
	.cfi_restore 3
	.cfi_def_cfa 4, 4
	ret	$4
	.cfi_endproc
LFE1081:
	.section	.text$_ZNKSt8_Rb_treeIiSt4pairIKiP4TestESt10_Select1stIS4_ESt4lessIiESaIS4_EE8key_compEv,"x"
	.linkonce discard
	.align 2
	.globl	__ZNKSt8_Rb_treeIiSt4pairIKiP4TestESt10_Select1stIS4_ESt4lessIiESaIS4_EE8key_compEv
	.def	__ZNKSt8_Rb_treeIiSt4pairIKiP4TestESt10_Select1stIS4_ESt4lessIiESaIS4_EE8key_compEv;	.scl	2;	.type	32;	.endef
__ZNKSt8_Rb_treeIiSt4pairIKiP4TestESt10_Select1stIS4_ESt4lessIiESaIS4_EE8key_compEv:
LFB1082:
	.loc 6 653 0
	.cfi_startproc
	pushl	%ebp
LCFI117:
	.cfi_def_cfa_offset 8
	.cfi_offset 5, -8
	movl	%esp, %ebp
LCFI118:
	.cfi_def_cfa_register 5
	subl	$4, %esp
	movl	%ecx, -4(%ebp)
	.loc 6 654 0
	leave
LCFI119:
	.cfi_restore 5
	.cfi_def_cfa 4, 4
	ret
	.cfi_endproc
LFE1082:
	.section	.text$_ZNSt8_Rb_treeIiSt4pairIKiP4TestESt10_Select1stIS4_ESt4lessIiESaIS4_EE17_M_insert_unique_IS0_IiS3_EEESt17_Rb_tree_iteratorIS4_ESt23_Rb_tree_const_iteratorIS4_EOT_,"x"
	.linkonce discard
	.align 2
	.globl	__ZNSt8_Rb_treeIiSt4pairIKiP4TestESt10_Select1stIS4_ESt4lessIiESaIS4_EE17_M_insert_unique_IS0_IiS3_EEESt17_Rb_tree_iteratorIS4_ESt23_Rb_tree_const_iteratorIS4_EOT_
	.def	__ZNSt8_Rb_treeIiSt4pairIKiP4TestESt10_Select1stIS4_ESt4lessIiESaIS4_EE17_M_insert_unique_IS0_IiS3_EEESt17_Rb_tree_iteratorIS4_ESt23_Rb_tree_const_iteratorIS4_EOT_;	.scl	2;	.type	32;	.endef
__ZNSt8_Rb_treeIiSt4pairIKiP4TestESt10_Select1stIS4_ESt4lessIiESaIS4_EE17_M_insert_unique_IS0_IiS3_EEESt17_Rb_tree_iteratorIS4_ESt23_Rb_tree_const_iteratorIS4_EOT_:
LFB1083:
	.loc 6 1333 0
	.cfi_startproc
	.cfi_personality 0,___gxx_personality_v0
	.cfi_lsda 0,LLSDA1083
	pushl	%ebp
LCFI120:
	.cfi_def_cfa_offset 8
	.cfi_offset 5, -8
	movl	%esp, %ebp
LCFI121:
	.cfi_def_cfa_register 5
	pushl	%esi
	pushl	%ebx
	subl	$80, %esp
	.cfi_offset 6, -12
	.cfi_offset 3, -16
	movl	%ecx, -60(%ebp)
LBB12:
LBB13:
	.loc 6 1341 0
	movl	8(%ebp), %ebx
	movl	-60(%ebp), %eax
	movl	%eax, %ecx
	call	__ZNSt8_Rb_treeIiSt4pairIKiP4TestESt10_Select1stIS4_ESt4lessIiESaIS4_EE6_M_endEv
	cmpl	%eax, %ebx
	sete	%al
	testb	%al, %al
	je	L117
	.loc 6 1343 0
	movb	$0, %bl
	movl	-60(%ebp), %eax
	movl	%eax, %ecx
	call	__ZNKSt8_Rb_treeIiSt4pairIKiP4TestESt10_Select1stIS4_ESt4lessIiESaIS4_EE4sizeEv
	testl	%eax, %eax
	je	L118
	.loc 6 1343 0 is_stmt 0 discriminator 1
	movb	$1, %bl
	leal	-41(%ebp), %eax
	movl	12(%ebp), %edx
	movl	%edx, (%esp)
	movl	%eax, %ecx
	call	__ZNKSt10_Select1stISt4pairIKiP4TestEEclIS0_IiS3_EEERNT_10first_typeERS8_
	subl	$4, %esp
	movl	%eax, %esi
	movl	-60(%ebp), %eax
	movl	%eax, %ecx
	call	__ZNSt8_Rb_treeIiSt4pairIKiP4TestESt10_Select1stIS4_ESt4lessIiESaIS4_EE12_M_rightmostEv
	movl	(%eax), %eax
	movl	%eax, (%esp)
	call	__ZNSt8_Rb_treeIiSt4pairIKiP4TestESt10_Select1stIS4_ESt4lessIiESaIS4_EE6_S_keyEPKSt18_Rb_tree_node_base
	movl	%eax, %edx
	movl	-60(%ebp), %eax
	movl	%esi, 4(%esp)
	movl	%edx, (%esp)
	movl	%eax, %ecx
	call	__ZNKSt4lessIiEclERKiS2_
	subl	$8, %esp
	testb	%al, %al
	je	L118
	.loc 6 1343 0 discriminator 4
	movb	$1, %al
	jmp	L119
L118:
	.loc 6 1343 0 discriminator 2
	movb	$0, %al
L119:
	.loc 6 1343 0 discriminator 5
	testb	%bl, %bl
	testb	%al, %al
	je	L121
	.loc 6 1346 0 is_stmt 1
	movl	12(%ebp), %eax
	movl	%eax, (%esp)
	call	__ZSt7forwardISt4pairIiP4TestEEOT_RNSt16remove_referenceIS4_E4typeE
	movl	%eax, %ebx
	movl	-60(%ebp), %eax
	movl	%eax, %ecx
	call	__ZNSt8_Rb_treeIiSt4pairIKiP4TestESt10_Select1stIS4_ESt4lessIiESaIS4_EE12_M_rightmostEv
	movl	(%eax), %edx
	movl	-60(%ebp), %eax
	movl	%ebx, 8(%esp)
	movl	%edx, 4(%esp)
	movl	$0, (%esp)
	movl	%eax, %ecx
LEHB13:
	call	__ZNSt8_Rb_treeIiSt4pairIKiP4TestESt10_Select1stIS4_ESt4lessIiESaIS4_EE10_M_insert_IS0_IiS3_EEESt17_Rb_tree_iteratorIS4_EPKSt18_Rb_tree_node_baseSH_OT_
	subl	$12, %esp
	jmp	L122
L121:
	.loc 6 1348 0
	movl	12(%ebp), %eax
	movl	%eax, (%esp)
	call	__ZSt7forwardISt4pairIiP4TestEEOT_RNSt16remove_referenceIS4_E4typeE
	leal	-40(%ebp), %edx
	movl	%eax, 4(%esp)
	movl	-60(%ebp), %eax
	movl	%eax, (%esp)
	movl	%edx, %ecx
	call	__ZNSt8_Rb_treeIiSt4pairIKiP4TestESt10_Select1stIS4_ESt4lessIiESaIS4_EE16_M_insert_uniqueIS0_IiS3_EEES0_ISt17_Rb_tree_iteratorIS4_EbEOT_
LEHE13:
	subl	$8, %esp
	movl	-40(%ebp), %eax
	jmp	L122
L117:
LBB14:
LBB15:
	.loc 6 1350 0
	movl	8(%ebp), %eax
	movl	%eax, (%esp)
	call	__ZNSt8_Rb_treeIiSt4pairIKiP4TestESt10_Select1stIS4_ESt4lessIiESaIS4_EE6_S_keyEPKSt18_Rb_tree_node_base
	movl	%eax, %ebx
	leal	-30(%ebp), %eax
	movl	12(%ebp), %edx
	movl	%edx, (%esp)
	movl	%eax, %ecx
	call	__ZNKSt10_Select1stISt4pairIKiP4TestEEclIS0_IiS3_EEERNT_10first_typeERS8_
	subl	$4, %esp
	movl	-60(%ebp), %edx
	movl	%ebx, 4(%esp)
	movl	%eax, (%esp)
	movl	%edx, %ecx
	call	__ZNKSt4lessIiEclERKiS2_
	subl	$8, %esp
	testb	%al, %al
	je	L123
LBB16:
	.loc 6 1354 0
	movl	8(%ebp), %eax
	movl	%eax, -48(%ebp)
	.loc 6 1355 0
	movl	8(%ebp), %ebx
	movl	-60(%ebp), %eax
	movl	%eax, %ecx
	call	__ZNSt8_Rb_treeIiSt4pairIKiP4TestESt10_Select1stIS4_ESt4lessIiESaIS4_EE11_M_leftmostEv
	movl	(%eax), %eax
	cmpl	%eax, %ebx
	sete	%al
	testb	%al, %al
	je	L124
	.loc 6 1357 0
	movl	12(%ebp), %eax
	movl	%eax, (%esp)
	call	__ZSt7forwardISt4pairIiP4TestEEOT_RNSt16remove_referenceIS4_E4typeE
	movl	%eax, %ebx
	movl	-60(%ebp), %eax
	movl	%eax, %ecx
	call	__ZNSt8_Rb_treeIiSt4pairIKiP4TestESt10_Select1stIS4_ESt4lessIiESaIS4_EE11_M_leftmostEv
	movl	(%eax), %esi
	movl	-60(%ebp), %eax
	movl	%eax, %ecx
	call	__ZNSt8_Rb_treeIiSt4pairIKiP4TestESt10_Select1stIS4_ESt4lessIiESaIS4_EE11_M_leftmostEv
	movl	(%eax), %edx
	movl	-60(%ebp), %eax
	movl	%ebx, 8(%esp)
	movl	%esi, 4(%esp)
	movl	%edx, (%esp)
	movl	%eax, %ecx
LEHB14:
	call	__ZNSt8_Rb_treeIiSt4pairIKiP4TestESt10_Select1stIS4_ESt4lessIiESaIS4_EE10_M_insert_IS0_IiS3_EEESt17_Rb_tree_iteratorIS4_EPKSt18_Rb_tree_node_baseSH_OT_
	subl	$12, %esp
	jmp	L122
L124:
	.loc 6 1358 0
	leal	-29(%ebp), %eax
	movl	12(%ebp), %edx
	movl	%edx, (%esp)
	movl	%eax, %ecx
	call	__ZNKSt10_Select1stISt4pairIKiP4TestEEclIS0_IiS3_EEERNT_10first_typeERS8_
	subl	$4, %esp
	movl	%eax, %ebx
	leal	-48(%ebp), %eax
	movl	%eax, %ecx
	call	__ZNSt23_Rb_tree_const_iteratorISt4pairIKiP4TestEEmmEv
	movl	(%eax), %eax
	movl	%eax, (%esp)
	call	__ZNSt8_Rb_treeIiSt4pairIKiP4TestESt10_Select1stIS4_ESt4lessIiESaIS4_EE6_S_keyEPKSt18_Rb_tree_node_base
	movl	%eax, %edx
	movl	-60(%ebp), %eax
	movl	%ebx, 4(%esp)
	movl	%edx, (%esp)
	movl	%eax, %ecx
	call	__ZNKSt4lessIiEclERKiS2_
	subl	$8, %esp
	testb	%al, %al
	je	L126
	.loc 6 1361 0
	movl	-48(%ebp), %eax
	movl	%eax, (%esp)
	call	__ZNSt8_Rb_treeIiSt4pairIKiP4TestESt10_Select1stIS4_ESt4lessIiESaIS4_EE8_S_rightEPKSt18_Rb_tree_node_base
	testl	%eax, %eax
	sete	%al
	testb	%al, %al
	je	L127
	.loc 6 1363 0
	movl	12(%ebp), %eax
	movl	%eax, (%esp)
	call	__ZSt7forwardISt4pairIiP4TestEEOT_RNSt16remove_referenceIS4_E4typeE
	movl	-48(%ebp), %ecx
	movl	-60(%ebp), %edx
	movl	%eax, 8(%esp)
	movl	%ecx, 4(%esp)
	movl	$0, (%esp)
	movl	%edx, %ecx
	call	__ZNSt8_Rb_treeIiSt4pairIKiP4TestESt10_Select1stIS4_ESt4lessIiESaIS4_EE10_M_insert_IS0_IiS3_EEESt17_Rb_tree_iteratorIS4_EPKSt18_Rb_tree_node_baseSH_OT_
	subl	$12, %esp
	jmp	L122
L127:
	.loc 6 1367 0
	movl	12(%ebp), %eax
	movl	%eax, (%esp)
	call	__ZSt7forwardISt4pairIiP4TestEEOT_RNSt16remove_referenceIS4_E4typeE
	movl	8(%ebp), %ebx
	movl	8(%ebp), %ecx
	movl	-60(%ebp), %edx
	movl	%eax, 8(%esp)
	movl	%ebx, 4(%esp)
	movl	%ecx, (%esp)
	movl	%edx, %ecx
	call	__ZNSt8_Rb_treeIiSt4pairIKiP4TestESt10_Select1stIS4_ESt4lessIiESaIS4_EE10_M_insert_IS0_IiS3_EEESt17_Rb_tree_iteratorIS4_EPKSt18_Rb_tree_node_baseSH_OT_
	subl	$12, %esp
	jmp	L122
L126:
	.loc 6 1370 0
	movl	12(%ebp), %eax
	movl	%eax, (%esp)
	call	__ZSt7forwardISt4pairIiP4TestEEOT_RNSt16remove_referenceIS4_E4typeE
	leal	-28(%ebp), %edx
	movl	%eax, 4(%esp)
	movl	-60(%ebp), %eax
	movl	%eax, (%esp)
	movl	%edx, %ecx
	call	__ZNSt8_Rb_treeIiSt4pairIKiP4TestESt10_Select1stIS4_ESt4lessIiESaIS4_EE16_M_insert_uniqueIS0_IiS3_EEES0_ISt17_Rb_tree_iteratorIS4_EbEOT_
LEHE14:
	subl	$8, %esp
	movl	-28(%ebp), %eax
	jmp	L122
L123:
LBE16:
LBB17:
LBB18:
	.loc 6 1372 0
	leal	-18(%ebp), %eax
	movl	12(%ebp), %edx
	movl	%edx, (%esp)
	movl	%eax, %ecx
	call	__ZNKSt10_Select1stISt4pairIKiP4TestEEclIS0_IiS3_EEERNT_10first_typeERS8_
	subl	$4, %esp
	movl	%eax, %ebx
	movl	8(%ebp), %eax
	movl	%eax, (%esp)
	call	__ZNSt8_Rb_treeIiSt4pairIKiP4TestESt10_Select1stIS4_ESt4lessIiESaIS4_EE6_S_keyEPKSt18_Rb_tree_node_base
	movl	%eax, %edx
	movl	-60(%ebp), %eax
	movl	%ebx, 4(%esp)
	movl	%edx, (%esp)
	movl	%eax, %ecx
	call	__ZNKSt4lessIiEclERKiS2_
	subl	$8, %esp
	testb	%al, %al
	je	L128
LBB19:
	.loc 6 1376 0
	movl	8(%ebp), %eax
	movl	%eax, -52(%ebp)
	.loc 6 1377 0
	movl	8(%ebp), %ebx
	movl	-60(%ebp), %eax
	movl	%eax, %ecx
	call	__ZNSt8_Rb_treeIiSt4pairIKiP4TestESt10_Select1stIS4_ESt4lessIiESaIS4_EE12_M_rightmostEv
	movl	(%eax), %eax
	cmpl	%eax, %ebx
	sete	%al
	testb	%al, %al
	je	L129
	.loc 6 1379 0
	movl	12(%ebp), %eax
	movl	%eax, (%esp)
	call	__ZSt7forwardISt4pairIiP4TestEEOT_RNSt16remove_referenceIS4_E4typeE
	movl	%eax, %ebx
	movl	-60(%ebp), %eax
	movl	%eax, %ecx
	call	__ZNSt8_Rb_treeIiSt4pairIKiP4TestESt10_Select1stIS4_ESt4lessIiESaIS4_EE12_M_rightmostEv
	movl	(%eax), %edx
	movl	-60(%ebp), %eax
	movl	%ebx, 8(%esp)
	movl	%edx, 4(%esp)
	movl	$0, (%esp)
	movl	%eax, %ecx
LEHB15:
	call	__ZNSt8_Rb_treeIiSt4pairIKiP4TestESt10_Select1stIS4_ESt4lessIiESaIS4_EE10_M_insert_IS0_IiS3_EEESt17_Rb_tree_iteratorIS4_EPKSt18_Rb_tree_node_baseSH_OT_
	subl	$12, %esp
	jmp	L122
L129:
	.loc 6 1380 0
	leal	-52(%ebp), %eax
	movl	%eax, %ecx
	call	__ZNSt23_Rb_tree_const_iteratorISt4pairIKiP4TestEEppEv
	movl	(%eax), %eax
	movl	%eax, (%esp)
	call	__ZNSt8_Rb_treeIiSt4pairIKiP4TestESt10_Select1stIS4_ESt4lessIiESaIS4_EE6_S_keyEPKSt18_Rb_tree_node_base
	movl	%eax, %ebx
	leal	-17(%ebp), %eax
	movl	12(%ebp), %edx
	movl	%edx, (%esp)
	movl	%eax, %ecx
	call	__ZNKSt10_Select1stISt4pairIKiP4TestEEclIS0_IiS3_EEERNT_10first_typeERS8_
	subl	$4, %esp
	movl	-60(%ebp), %edx
	movl	%ebx, 4(%esp)
	movl	%eax, (%esp)
	movl	%edx, %ecx
	call	__ZNKSt4lessIiEclERKiS2_
	subl	$8, %esp
	testb	%al, %al
	je	L131
	.loc 6 1383 0
	movl	8(%ebp), %eax
	movl	%eax, (%esp)
	call	__ZNSt8_Rb_treeIiSt4pairIKiP4TestESt10_Select1stIS4_ESt4lessIiESaIS4_EE8_S_rightEPKSt18_Rb_tree_node_base
	testl	%eax, %eax
	sete	%al
	testb	%al, %al
	je	L132
	.loc 6 1385 0
	movl	12(%ebp), %eax
	movl	%eax, (%esp)
	call	__ZSt7forwardISt4pairIiP4TestEEOT_RNSt16remove_referenceIS4_E4typeE
	movl	8(%ebp), %ecx
	movl	-60(%ebp), %edx
	movl	%eax, 8(%esp)
	movl	%ecx, 4(%esp)
	movl	$0, (%esp)
	movl	%edx, %ecx
	call	__ZNSt8_Rb_treeIiSt4pairIKiP4TestESt10_Select1stIS4_ESt4lessIiESaIS4_EE10_M_insert_IS0_IiS3_EEESt17_Rb_tree_iteratorIS4_EPKSt18_Rb_tree_node_baseSH_OT_
	subl	$12, %esp
	jmp	L122
L132:
	.loc 6 1388 0
	movl	12(%ebp), %eax
	movl	%eax, (%esp)
	call	__ZSt7forwardISt4pairIiP4TestEEOT_RNSt16remove_referenceIS4_E4typeE
	movl	-52(%ebp), %ebx
	movl	-52(%ebp), %ecx
	movl	-60(%ebp), %edx
	movl	%eax, 8(%esp)
	movl	%ebx, 4(%esp)
	movl	%ecx, (%esp)
	movl	%edx, %ecx
	call	__ZNSt8_Rb_treeIiSt4pairIKiP4TestESt10_Select1stIS4_ESt4lessIiESaIS4_EE10_M_insert_IS0_IiS3_EEESt17_Rb_tree_iteratorIS4_EPKSt18_Rb_tree_node_baseSH_OT_
	subl	$12, %esp
	jmp	L122
L131:
	.loc 6 1391 0
	movl	12(%ebp), %eax
	movl	%eax, (%esp)
	call	__ZSt7forwardISt4pairIiP4TestEEOT_RNSt16remove_referenceIS4_E4typeE
	leal	-16(%ebp), %edx
	movl	%eax, 4(%esp)
	movl	-60(%ebp), %eax
	movl	%eax, (%esp)
	movl	%edx, %ecx
	call	__ZNSt8_Rb_treeIiSt4pairIKiP4TestESt10_Select1stIS4_ESt4lessIiESaIS4_EE16_M_insert_uniqueIS0_IiS3_EEES0_ISt17_Rb_tree_iteratorIS4_EbEOT_
LEHE15:
	subl	$8, %esp
	movl	-16(%ebp), %eax
	jmp	L122
L128:
LBE19:
	.loc 6 1395 0
	leal	8(%ebp), %ecx
	call	__ZNKSt23_Rb_tree_const_iteratorISt4pairIKiP4TestEE13_M_const_castEv
L122:
	jmp	L137
L135:
	movl	%eax, (%esp)
LEHB16:
	call	__Unwind_Resume
L136:
	movl	%eax, (%esp)
	call	__Unwind_Resume
LEHE16:
L137:
LBE18:
LBE17:
LBE15:
LBE14:
LBE13:
LBE12:
	.loc 6 1396 0
	leal	-8(%ebp), %esp
	popl	%ebx
	.cfi_restore 3
	popl	%esi
	.cfi_restore 6
	popl	%ebp
LCFI122:
	.cfi_restore 5
	.cfi_def_cfa 4, 4
	ret	$8
	.cfi_endproc
LFE1083:
	.section	.gcc_except_table,"w"
LLSDA1083:
	.byte	0xff
	.byte	0xff
	.byte	0x1
	.uleb128 LLSDACSE1083-LLSDACSB1083
LLSDACSB1083:
	.uleb128 LEHB13-LFB1083
	.uleb128 LEHE13-LEHB13
	.uleb128 0
	.uleb128 0
	.uleb128 LEHB14-LFB1083
	.uleb128 LEHE14-LEHB14
	.uleb128 L135-LFB1083
	.uleb128 0
	.uleb128 LEHB15-LFB1083
	.uleb128 LEHE15-LEHB15
	.uleb128 L136-LFB1083
	.uleb128 0
	.uleb128 LEHB16-LFB1083
	.uleb128 LEHE16-LEHB16
	.uleb128 0
	.uleb128 0
LLSDACSE1083:
	.section	.text$_ZNSt8_Rb_treeIiSt4pairIKiP4TestESt10_Select1stIS4_ESt4lessIiESaIS4_EE17_M_insert_unique_IS0_IiS3_EEESt17_Rb_tree_iteratorIS4_ESt23_Rb_tree_const_iteratorIS4_EOT_,"x"
	.linkonce discard
	.section	.text$_ZNSt8_Rb_treeIiSt4pairIKiP4TestESt10_Select1stIS4_ESt4lessIiESaIS4_EE21_M_get_Node_allocatorEv,"x"
	.linkonce discard
	.align 2
	.globl	__ZNSt8_Rb_treeIiSt4pairIKiP4TestESt10_Select1stIS4_ESt4lessIiESaIS4_EE21_M_get_Node_allocatorEv
	.def	__ZNSt8_Rb_treeIiSt4pairIKiP4TestESt10_Select1stIS4_ESt4lessIiESaIS4_EE21_M_get_Node_allocatorEv;	.scl	2;	.type	32;	.endef
__ZNSt8_Rb_treeIiSt4pairIKiP4TestESt10_Select1stIS4_ESt4lessIiESaIS4_EE21_M_get_Node_allocatorEv:
LFB1091:
	.loc 6 355 0
	.cfi_startproc
	pushl	%ebp
LCFI123:
	.cfi_def_cfa_offset 8
	.cfi_offset 5, -8
	movl	%esp, %ebp
LCFI124:
	.cfi_def_cfa_register 5
	subl	$4, %esp
	movl	%ecx, -4(%ebp)
	.loc 6 356 0
	movl	-4(%ebp), %eax
	leave
LCFI125:
	.cfi_restore 5
	.cfi_def_cfa 4, 4
	ret
	.cfi_endproc
LFE1091:
	.section	.text$_ZNSt8_Rb_treeIiSt4pairIKiP4TestESt10_Select1stIS4_ESt4lessIiESaIS4_EE11_M_put_nodeEPSt13_Rb_tree_nodeIS4_E,"x"
	.linkonce discard
	.align 2
	.globl	__ZNSt8_Rb_treeIiSt4pairIKiP4TestESt10_Select1stIS4_ESt4lessIiESaIS4_EE11_M_put_nodeEPSt13_Rb_tree_nodeIS4_E
	.def	__ZNSt8_Rb_treeIiSt4pairIKiP4TestESt10_Select1stIS4_ESt4lessIiESaIS4_EE11_M_put_nodeEPSt13_Rb_tree_nodeIS4_E;	.scl	2;	.type	32;	.endef
__ZNSt8_Rb_treeIiSt4pairIKiP4TestESt10_Select1stIS4_ESt4lessIiESaIS4_EE11_M_put_nodeEPSt13_Rb_tree_nodeIS4_E:
LFB1093:
	.loc 6 372 0
	.cfi_startproc
	pushl	%ebp
LCFI126:
	.cfi_def_cfa_offset 8
	.cfi_offset 5, -8
	movl	%esp, %ebp
LCFI127:
	.cfi_def_cfa_register 5
	subl	$40, %esp
	movl	%ecx, -12(%ebp)
	.loc 6 373 0
	movl	-12(%ebp), %eax
	movl	$1, 4(%esp)
	movl	8(%ebp), %edx
	movl	%edx, (%esp)
	movl	%eax, %ecx
	call	__ZN9__gnu_cxx13new_allocatorISt13_Rb_tree_nodeISt4pairIKiP4TestEEE10deallocateEPS7_j
	subl	$8, %esp
	leave
LCFI128:
	.cfi_restore 5
	.cfi_def_cfa 4, 4
	ret	$4
	.cfi_endproc
LFE1093:
	.section	.text$_ZNSt8_Rb_treeIiSt4pairIKiP4TestESt10_Select1stIS4_ESt4lessIiESaIS4_EE8_S_valueEPKSt13_Rb_tree_nodeIS4_E,"x"
	.linkonce discard
	.globl	__ZNSt8_Rb_treeIiSt4pairIKiP4TestESt10_Select1stIS4_ESt4lessIiESaIS4_EE8_S_valueEPKSt13_Rb_tree_nodeIS4_E
	.def	__ZNSt8_Rb_treeIiSt4pairIKiP4TestESt10_Select1stIS4_ESt4lessIiESaIS4_EE8_S_valueEPKSt13_Rb_tree_nodeIS4_E;	.scl	2;	.type	32;	.endef
__ZNSt8_Rb_treeIiSt4pairIKiP4TestESt10_Select1stIS4_ESt4lessIiESaIS4_EE8_S_valueEPKSt13_Rb_tree_nodeIS4_E:
LFB1094:
	.loc 6 518 0
	.cfi_startproc
	pushl	%ebp
LCFI129:
	.cfi_def_cfa_offset 8
	.cfi_offset 5, -8
	movl	%esp, %ebp
LCFI130:
	.cfi_def_cfa_register 5
	.loc 6 519 0
	movl	8(%ebp), %eax
	addl	$16, %eax
	popl	%ebp
LCFI131:
	.cfi_restore 5
	.cfi_def_cfa 4, 4
	ret
	.cfi_endproc
LFE1094:
	.section	.text$_ZNKSt10_Select1stISt4pairIKiP4TestEEclERKS4_,"x"
	.linkonce discard
	.align 2
	.globl	__ZNKSt10_Select1stISt4pairIKiP4TestEEclERKS4_
	.def	__ZNKSt10_Select1stISt4pairIKiP4TestEEclERKS4_;	.scl	2;	.type	32;	.endef
__ZNKSt10_Select1stISt4pairIKiP4TestEEclERKS4_:
LFB1095:
	.loc 7 494 0
	.cfi_startproc
	pushl	%ebp
LCFI132:
	.cfi_def_cfa_offset 8
	.cfi_offset 5, -8
	movl	%esp, %ebp
LCFI133:
	.cfi_def_cfa_register 5
	subl	$4, %esp
	movl	%ecx, -4(%ebp)
	.loc 7 495 0
	movl	8(%ebp), %eax
	leave
LCFI134:
	.cfi_restore 5
	.cfi_def_cfa 4, 4
	ret	$4
	.cfi_endproc
LFE1095:
	.section	.text$_ZNSt8_Rb_treeIiSt4pairIKiP4TestESt10_Select1stIS4_ESt4lessIiESaIS4_EE14_M_create_nodeIIS0_IiS3_EEEEPSt13_Rb_tree_nodeIS4_EDpOT_,"x"
	.linkonce discard
	.align 2
	.globl	__ZNSt8_Rb_treeIiSt4pairIKiP4TestESt10_Select1stIS4_ESt4lessIiESaIS4_EE14_M_create_nodeIIS0_IiS3_EEEEPSt13_Rb_tree_nodeIS4_EDpOT_
	.def	__ZNSt8_Rb_treeIiSt4pairIKiP4TestESt10_Select1stIS4_ESt4lessIiESaIS4_EE14_M_create_nodeIIS0_IiS3_EEEEPSt13_Rb_tree_nodeIS4_EDpOT_;	.scl	2;	.type	32;	.endef
__ZNSt8_Rb_treeIiSt4pairIKiP4TestESt10_Select1stIS4_ESt4lessIiESaIS4_EE14_M_create_nodeIIS0_IiS3_EEEEPSt13_Rb_tree_nodeIS4_EDpOT_:
LFB1096:
	.loc 6 400 0
	.cfi_startproc
	.cfi_personality 0,___gxx_personality_v0
	.cfi_lsda 0,LLSDA1096
	pushl	%ebp
LCFI135:
	.cfi_def_cfa_offset 8
	.cfi_offset 5, -8
	movl	%esp, %ebp
LCFI136:
	.cfi_def_cfa_register 5
	pushl	%ebx
	subl	$52, %esp
	.cfi_offset 3, -12
	movl	%ecx, -28(%ebp)
LBB20:
	.loc 6 402 0
	movl	-28(%ebp), %eax
	movl	%eax, %ecx
LEHB17:
	call	__ZNSt8_Rb_treeIiSt4pairIKiP4TestESt10_Select1stIS4_ESt4lessIiESaIS4_EE11_M_get_nodeEv
LEHE17:
	movl	%eax, -12(%ebp)
	.loc 6 405 0
	movl	8(%ebp), %eax
	movl	%eax, (%esp)
	call	__ZSt7forwardISt4pairIiP4TestEEOT_RNSt16remove_referenceIS4_E4typeE
	movl	%eax, %ebx
	movl	-28(%ebp), %eax
	movl	%eax, %ecx
	call	__ZNSt8_Rb_treeIiSt4pairIKiP4TestESt10_Select1stIS4_ESt4lessIiESaIS4_EE21_M_get_Node_allocatorEv
	movl	%ebx, 4(%esp)
	movl	-12(%ebp), %edx
	movl	%edx, (%esp)
	movl	%eax, %ecx
LEHB18:
	call	__ZN9__gnu_cxx13new_allocatorISt13_Rb_tree_nodeISt4pairIKiP4TestEEE9constructIS7_IS2_IiS5_EEEEvPT_DpOT0_
LEHE18:
	subl	$8, %esp
	.loc 6 413 0
	movl	-12(%ebp), %eax
	jmp	L151
L150:
	movl	%eax, %ebx
	.loc 6 408 0
	call	___cxa_end_catch
	movl	%ebx, %eax
	movl	%eax, (%esp)
LEHB19:
	call	__Unwind_Resume
LEHE19:
L149:
	movl	%eax, (%esp)
	call	___cxa_begin_catch
	.loc 6 410 0
	movl	-28(%ebp), %eax
	movl	-12(%ebp), %edx
	movl	%edx, (%esp)
	movl	%eax, %ecx
	call	__ZNSt8_Rb_treeIiSt4pairIKiP4TestESt10_Select1stIS4_ESt4lessIiESaIS4_EE11_M_put_nodeEPSt13_Rb_tree_nodeIS4_E
	subl	$4, %esp
LEHB20:
	.loc 6 411 0
	call	___cxa_rethrow
LEHE20:
L151:
LBE20:
	.loc 6 414 0
	movl	-4(%ebp), %ebx
	leave
LCFI137:
	.cfi_restore 5
	.cfi_restore 3
	.cfi_def_cfa 4, 4
	ret	$4
	.cfi_endproc
LFE1096:
	.section	.gcc_except_table,"w"
	.align 4
LLSDA1096:
	.byte	0xff
	.byte	0
	.uleb128 LLSDATT1096-LLSDATTD1096
LLSDATTD1096:
	.byte	0x1
	.uleb128 LLSDACSE1096-LLSDACSB1096
LLSDACSB1096:
	.uleb128 LEHB17-LFB1096
	.uleb128 LEHE17-LEHB17
	.uleb128 0
	.uleb128 0
	.uleb128 LEHB18-LFB1096
	.uleb128 LEHE18-LEHB18
	.uleb128 L149-LFB1096
	.uleb128 0x1
	.uleb128 LEHB19-LFB1096
	.uleb128 LEHE19-LEHB19
	.uleb128 0
	.uleb128 0
	.uleb128 LEHB20-LFB1096
	.uleb128 LEHE20-LEHB20
	.uleb128 L150-LFB1096
	.uleb128 0
LLSDACSE1096:
	.byte	0x1
	.byte	0
	.align 4
	.long	0
LLSDATT1096:
	.section	.text$_ZNSt8_Rb_treeIiSt4pairIKiP4TestESt10_Select1stIS4_ESt4lessIiESaIS4_EE14_M_create_nodeIIS0_IiS3_EEEEPSt13_Rb_tree_nodeIS4_EDpOT_,"x"
	.linkonce discard
	.weak	__ZNSt8_Rb_treeIiSt4pairIKiP4TestESt10_Select1stIS4_ESt4lessIiESaIS4_EE14_M_create_nodeIJS0_IiS3_EEEEPSt13_Rb_tree_nodeIS4_EDpOT_
	.def	__ZNSt8_Rb_treeIiSt4pairIKiP4TestESt10_Select1stIS4_ESt4lessIiESaIS4_EE14_M_create_nodeIJS0_IiS3_EEEEPSt13_Rb_tree_nodeIS4_EDpOT_;	.scl	2;	.type	32;	.endef
	.set	__ZNSt8_Rb_treeIiSt4pairIKiP4TestESt10_Select1stIS4_ESt4lessIiESaIS4_EE14_M_create_nodeIJS0_IiS3_EEEEPSt13_Rb_tree_nodeIS4_EDpOT_,__ZNSt8_Rb_treeIiSt4pairIKiP4TestESt10_Select1stIS4_ESt4lessIiESaIS4_EE14_M_create_nodeIIS0_IiS3_EEEEPSt13_Rb_tree_nodeIS4_EDpOT_
	.section	.text$_ZNSt8_Rb_treeIiSt4pairIKiP4TestESt10_Select1stIS4_ESt4lessIiESaIS4_EE8_S_valueEPKSt18_Rb_tree_node_base,"x"
	.linkonce discard
	.globl	__ZNSt8_Rb_treeIiSt4pairIKiP4TestESt10_Select1stIS4_ESt4lessIiESaIS4_EE8_S_valueEPKSt18_Rb_tree_node_base
	.def	__ZNSt8_Rb_treeIiSt4pairIKiP4TestESt10_Select1stIS4_ESt4lessIiESaIS4_EE8_S_valueEPKSt18_Rb_tree_node_base;	.scl	2;	.type	32;	.endef
__ZNSt8_Rb_treeIiSt4pairIKiP4TestESt10_Select1stIS4_ESt4lessIiESaIS4_EE8_S_valueEPKSt18_Rb_tree_node_base:
LFB1097:
	.loc 6 542 0
	.cfi_startproc
	pushl	%ebp
LCFI138:
	.cfi_def_cfa_offset 8
	.cfi_offset 5, -8
	movl	%esp, %ebp
LCFI139:
	.cfi_def_cfa_register 5
	.loc 6 543 0
	movl	8(%ebp), %eax
	addl	$16, %eax
	popl	%ebp
LCFI140:
	.cfi_restore 5
	.cfi_def_cfa 4, 4
	ret
	.cfi_endproc
LFE1097:
	.section	.text$_ZNSt8_Rb_treeIiSt4pairIKiP4TestESt10_Select1stIS4_ESt4lessIiESaIS4_EE14_M_lower_boundEPSt13_Rb_tree_nodeIS4_ESD_RS1_,"x"
	.linkonce discard
	.align 2
	.globl	__ZNSt8_Rb_treeIiSt4pairIKiP4TestESt10_Select1stIS4_ESt4lessIiESaIS4_EE14_M_lower_boundEPSt13_Rb_tree_nodeIS4_ESD_RS1_
	.def	__ZNSt8_Rb_treeIiSt4pairIKiP4TestESt10_Select1stIS4_ESt4lessIiESaIS4_EE14_M_lower_boundEPSt13_Rb_tree_nodeIS4_ESD_RS1_;	.scl	2;	.type	32;	.endef
__ZNSt8_Rb_treeIiSt4pairIKiP4TestESt10_Select1stIS4_ESt4lessIiESaIS4_EE14_M_lower_boundEPSt13_Rb_tree_nodeIS4_ESD_RS1_:
LFB1098:
	.loc 6 1093 0
	.cfi_startproc
	pushl	%ebp
LCFI141:
	.cfi_def_cfa_offset 8
	.cfi_offset 5, -8
	movl	%esp, %ebp
LCFI142:
	.cfi_def_cfa_register 5
	subl	$56, %esp
	movl	%ecx, -28(%ebp)
	.loc 6 1097 0
	jmp	L155
L157:
	.loc 6 1098 0
	movl	8(%ebp), %eax
	movl	%eax, (%esp)
	call	__ZNSt8_Rb_treeIiSt4pairIKiP4TestESt10_Select1stIS4_ESt4lessIiESaIS4_EE6_S_keyEPKSt13_Rb_tree_nodeIS4_E
	movl	%eax, %edx
	movl	-28(%ebp), %eax
	movl	16(%ebp), %ecx
	movl	%ecx, 4(%esp)
	movl	%edx, (%esp)
	movl	%eax, %ecx
	call	__ZNKSt4lessIiEclERKiS2_
	subl	$8, %esp
	xorl	$1, %eax
	testb	%al, %al
	je	L156
	.loc 6 1099 0
	movl	8(%ebp), %eax
	movl	%eax, 12(%ebp)
	movl	8(%ebp), %eax
	movl	%eax, (%esp)
	call	__ZNSt8_Rb_treeIiSt4pairIKiP4TestESt10_Select1stIS4_ESt4lessIiESaIS4_EE7_S_leftEPSt18_Rb_tree_node_base
	movl	%eax, 8(%ebp)
	jmp	L155
L156:
	.loc 6 1101 0
	movl	8(%ebp), %eax
	movl	%eax, (%esp)
	call	__ZNSt8_Rb_treeIiSt4pairIKiP4TestESt10_Select1stIS4_ESt4lessIiESaIS4_EE8_S_rightEPSt18_Rb_tree_node_base
	movl	%eax, 8(%ebp)
L155:
	.loc 6 1097 0 discriminator 1
	cmpl	$0, 8(%ebp)
	setne	%al
	testb	%al, %al
	jne	L157
	.loc 6 1102 0
	leal	-12(%ebp), %eax
	movl	12(%ebp), %edx
	movl	%edx, (%esp)
	movl	%eax, %ecx
	call	__ZNSt17_Rb_tree_iteratorISt4pairIKiP4TestEEC1EPSt13_Rb_tree_nodeIS4_E
	subl	$4, %esp
	movl	-12(%ebp), %eax
	.loc 6 1103 0
	leave
LCFI143:
	.cfi_restore 5
	.cfi_def_cfa 4, 4
	ret	$12
	.cfi_endproc
LFE1098:
	.section	.text$_ZNSt8_Rb_treeIiSt4pairIKiP4TestESt10_Select1stIS4_ESt4lessIiESaIS4_EE12_M_rightmostEv,"x"
	.linkonce discard
	.align 2
	.globl	__ZNSt8_Rb_treeIiSt4pairIKiP4TestESt10_Select1stIS4_ESt4lessIiESaIS4_EE12_M_rightmostEv
	.def	__ZNSt8_Rb_treeIiSt4pairIKiP4TestESt10_Select1stIS4_ESt4lessIiESaIS4_EE12_M_rightmostEv;	.scl	2;	.type	32;	.endef
__ZNSt8_Rb_treeIiSt4pairIKiP4TestESt10_Select1stIS4_ESt4lessIiESaIS4_EE12_M_rightmostEv:
LFB1099:
	.loc 6 491 0
	.cfi_startproc
	pushl	%ebp
LCFI144:
	.cfi_def_cfa_offset 8
	.cfi_offset 5, -8
	movl	%esp, %ebp
LCFI145:
	.cfi_def_cfa_register 5
	subl	$4, %esp
	movl	%ecx, -4(%ebp)
	.loc 6 492 0
	movl	-4(%ebp), %eax
	addl	$16, %eax
	leave
LCFI146:
	.cfi_restore 5
	.cfi_def_cfa 4, 4
	ret
	.cfi_endproc
LFE1099:
	.section	.text$_ZNSt8_Rb_treeIiSt4pairIKiP4TestESt10_Select1stIS4_ESt4lessIiESaIS4_EE11_M_leftmostEv,"x"
	.linkonce discard
	.align 2
	.globl	__ZNSt8_Rb_treeIiSt4pairIKiP4TestESt10_Select1stIS4_ESt4lessIiESaIS4_EE11_M_leftmostEv
	.def	__ZNSt8_Rb_treeIiSt4pairIKiP4TestESt10_Select1stIS4_ESt4lessIiESaIS4_EE11_M_leftmostEv;	.scl	2;	.type	32;	.endef
__ZNSt8_Rb_treeIiSt4pairIKiP4TestESt10_Select1stIS4_ESt4lessIiESaIS4_EE11_M_leftmostEv:
LFB1100:
	.loc 6 483 0
	.cfi_startproc
	pushl	%ebp
LCFI147:
	.cfi_def_cfa_offset 8
	.cfi_offset 5, -8
	movl	%esp, %ebp
LCFI148:
	.cfi_def_cfa_register 5
	subl	$4, %esp
	movl	%ecx, -4(%ebp)
	.loc 6 484 0
	movl	-4(%ebp), %eax
	addl	$12, %eax
	leave
LCFI149:
	.cfi_restore 5
	.cfi_def_cfa 4, 4
	ret
	.cfi_endproc
LFE1100:
	.section	.text$_ZNSt23_Rb_tree_const_iteratorISt4pairIKiP4TestEEmmEv,"x"
	.linkonce discard
	.align 2
	.globl	__ZNSt23_Rb_tree_const_iteratorISt4pairIKiP4TestEEmmEv
	.def	__ZNSt23_Rb_tree_const_iteratorISt4pairIKiP4TestEEmmEv;	.scl	2;	.type	32;	.endef
__ZNSt23_Rb_tree_const_iteratorISt4pairIKiP4TestEEmmEv:
LFB1101:
	.loc 6 282 0
	.cfi_startproc
	pushl	%ebp
LCFI150:
	.cfi_def_cfa_offset 8
	.cfi_offset 5, -8
	movl	%esp, %ebp
LCFI151:
	.cfi_def_cfa_register 5
	subl	$40, %esp
	movl	%ecx, -12(%ebp)
	.loc 6 284 0
	movl	-12(%ebp), %eax
	movl	(%eax), %eax
	movl	%eax, (%esp)
	call	__ZSt18_Rb_tree_decrementPKSt18_Rb_tree_node_base
	movl	-12(%ebp), %edx
	movl	%eax, (%edx)
	.loc 6 285 0
	movl	-12(%ebp), %eax
	.loc 6 286 0
	leave
LCFI152:
	.cfi_restore 5
	.cfi_def_cfa 4, 4
	ret
	.cfi_endproc
LFE1101:
	.section	.text$_ZNSt8_Rb_treeIiSt4pairIKiP4TestESt10_Select1stIS4_ESt4lessIiESaIS4_EE8_S_rightEPKSt18_Rb_tree_node_base,"x"
	.linkonce discard
	.globl	__ZNSt8_Rb_treeIiSt4pairIKiP4TestESt10_Select1stIS4_ESt4lessIiESaIS4_EE8_S_rightEPKSt18_Rb_tree_node_base
	.def	__ZNSt8_Rb_treeIiSt4pairIKiP4TestESt10_Select1stIS4_ESt4lessIiESaIS4_EE8_S_rightEPKSt18_Rb_tree_node_base;	.scl	2;	.type	32;	.endef
__ZNSt8_Rb_treeIiSt4pairIKiP4TestESt10_Select1stIS4_ESt4lessIiESaIS4_EE8_S_rightEPKSt18_Rb_tree_node_base:
LFB1102:
	.loc 6 538 0
	.cfi_startproc
	pushl	%ebp
LCFI153:
	.cfi_def_cfa_offset 8
	.cfi_offset 5, -8
	movl	%esp, %ebp
LCFI154:
	.cfi_def_cfa_register 5
	.loc 6 539 0
	movl	8(%ebp), %eax
	movl	12(%eax), %eax
	popl	%ebp
LCFI155:
	.cfi_restore 5
	.cfi_def_cfa 4, 4
	ret
	.cfi_endproc
LFE1102:
	.section	.text$_ZNSt23_Rb_tree_const_iteratorISt4pairIKiP4TestEEppEv,"x"
	.linkonce discard
	.align 2
	.globl	__ZNSt23_Rb_tree_const_iteratorISt4pairIKiP4TestEEppEv
	.def	__ZNSt23_Rb_tree_const_iteratorISt4pairIKiP4TestEEppEv;	.scl	2;	.type	32;	.endef
__ZNSt23_Rb_tree_const_iteratorISt4pairIKiP4TestEEppEv:
LFB1103:
	.loc 6 267 0
	.cfi_startproc
	pushl	%ebp
LCFI156:
	.cfi_def_cfa_offset 8
	.cfi_offset 5, -8
	movl	%esp, %ebp
LCFI157:
	.cfi_def_cfa_register 5
	subl	$40, %esp
	movl	%ecx, -12(%ebp)
	.loc 6 269 0
	movl	-12(%ebp), %eax
	movl	(%eax), %eax
	movl	%eax, (%esp)
	call	__ZSt18_Rb_tree_incrementPKSt18_Rb_tree_node_base
	movl	-12(%ebp), %edx
	movl	%eax, (%edx)
	.loc 6 270 0
	movl	-12(%ebp), %eax
	.loc 6 271 0
	leave
LCFI158:
	.cfi_restore 5
	.cfi_def_cfa 4, 4
	ret
	.cfi_endproc
LFE1103:
	.section	.text$_ZNKSt23_Rb_tree_const_iteratorISt4pairIKiP4TestEE13_M_const_castEv,"x"
	.linkonce discard
	.align 2
	.globl	__ZNKSt23_Rb_tree_const_iteratorISt4pairIKiP4TestEE13_M_const_castEv
	.def	__ZNKSt23_Rb_tree_const_iteratorISt4pairIKiP4TestEE13_M_const_castEv;	.scl	2;	.type	32;	.endef
__ZNKSt23_Rb_tree_const_iteratorISt4pairIKiP4TestEE13_M_const_castEv:
LFB1104:
	.loc 6 253 0
	.cfi_startproc
	pushl	%ebp
LCFI159:
	.cfi_def_cfa_offset 8
	.cfi_offset 5, -8
	movl	%esp, %ebp
LCFI160:
	.cfi_def_cfa_register 5
	subl	$24, %esp
	movl	%ecx, -20(%ebp)
	.loc 6 255 0
	movl	-20(%ebp), %eax
	movl	(%eax), %edx
	leal	-4(%ebp), %eax
	movl	%edx, (%esp)
	movl	%eax, %ecx
	call	__ZNSt17_Rb_tree_iteratorISt4pairIKiP4TestEEC1EPSt13_Rb_tree_nodeIS4_E
	subl	$4, %esp
	movl	-4(%ebp), %eax
	leave
LCFI161:
	.cfi_restore 5
	.cfi_def_cfa 4, 4
	ret
	.cfi_endproc
LFE1104:
	.section	.text$_ZN9__gnu_cxx13new_allocatorISt13_Rb_tree_nodeISt4pairIKiP4TestEEE10deallocateEPS7_j,"x"
	.linkonce discard
	.align 2
	.globl	__ZN9__gnu_cxx13new_allocatorISt13_Rb_tree_nodeISt4pairIKiP4TestEEE10deallocateEPS7_j
	.def	__ZN9__gnu_cxx13new_allocatorISt13_Rb_tree_nodeISt4pairIKiP4TestEEE10deallocateEPS7_j;	.scl	2;	.type	32;	.endef
__ZN9__gnu_cxx13new_allocatorISt13_Rb_tree_nodeISt4pairIKiP4TestEEE10deallocateEPS7_j:
LFB1108:
	.file 8 "c:/program files (x86)/codeblocks/mingw/bin/../lib/gcc/mingw32/4.7.0/include/c++/ext/new_allocator.h"
	.loc 8 99 0
	.cfi_startproc
	pushl	%ebp
LCFI162:
	.cfi_def_cfa_offset 8
	.cfi_offset 5, -8
	movl	%esp, %ebp
LCFI163:
	.cfi_def_cfa_register 5
	subl	$40, %esp
	movl	%ecx, -12(%ebp)
	.loc 8 100 0
	movl	8(%ebp), %eax
	movl	%eax, (%esp)
	call	__ZdlPv
	leave
LCFI164:
	.cfi_restore 5
	.cfi_def_cfa 4, 4
	ret	$8
	.cfi_endproc
LFE1108:
	.section	.text$_ZNSt8_Rb_treeIiSt4pairIKiP4TestESt10_Select1stIS4_ESt4lessIiESaIS4_EE11_M_get_nodeEv,"x"
	.linkonce discard
	.align 2
	.globl	__ZNSt8_Rb_treeIiSt4pairIKiP4TestESt10_Select1stIS4_ESt4lessIiESaIS4_EE11_M_get_nodeEv
	.def	__ZNSt8_Rb_treeIiSt4pairIKiP4TestESt10_Select1stIS4_ESt4lessIiESaIS4_EE11_M_get_nodeEv;	.scl	2;	.type	32;	.endef
__ZNSt8_Rb_treeIiSt4pairIKiP4TestESt10_Select1stIS4_ESt4lessIiESaIS4_EE11_M_get_nodeEv:
LFB1109:
	.loc 6 368 0
	.cfi_startproc
	pushl	%ebp
LCFI165:
	.cfi_def_cfa_offset 8
	.cfi_offset 5, -8
	movl	%esp, %ebp
LCFI166:
	.cfi_def_cfa_register 5
	subl	$40, %esp
	movl	%ecx, -12(%ebp)
	.loc 6 369 0
	movl	-12(%ebp), %eax
	movl	$0, 4(%esp)
	movl	$1, (%esp)
	movl	%eax, %ecx
	call	__ZN9__gnu_cxx13new_allocatorISt13_Rb_tree_nodeISt4pairIKiP4TestEEE8allocateEjPKv
	subl	$8, %esp
	leave
LCFI167:
	.cfi_restore 5
	.cfi_def_cfa 4, 4
	ret
	.cfi_endproc
LFE1109:
	.section	.text$_ZN9__gnu_cxx13new_allocatorISt13_Rb_tree_nodeISt4pairIKiP4TestEEE9constructIS7_IS2_IiS5_EEEEvPT_DpOT0_,"x"
	.linkonce discard
	.align 2
	.globl	__ZN9__gnu_cxx13new_allocatorISt13_Rb_tree_nodeISt4pairIKiP4TestEEE9constructIS7_IS2_IiS5_EEEEvPT_DpOT0_
	.def	__ZN9__gnu_cxx13new_allocatorISt13_Rb_tree_nodeISt4pairIKiP4TestEEE9constructIS7_IS2_IiS5_EEEEvPT_DpOT0_;	.scl	2;	.type	32;	.endef
__ZN9__gnu_cxx13new_allocatorISt13_Rb_tree_nodeISt4pairIKiP4TestEEE9constructIS7_IS2_IiS5_EEEEvPT_DpOT0_:
LFB1110:
	.loc 8 109 0
	.cfi_startproc
	pushl	%ebp
LCFI168:
	.cfi_def_cfa_offset 8
	.cfi_offset 5, -8
	movl	%esp, %ebp
LCFI169:
	.cfi_def_cfa_register 5
	pushl	%ebx
	subl	$36, %esp
	.cfi_offset 3, -12
	movl	%ecx, -12(%ebp)
	.loc 8 110 0
	movl	12(%ebp), %eax
	movl	%eax, (%esp)
	call	__ZSt7forwardISt4pairIiP4TestEEOT_RNSt16remove_referenceIS4_E4typeE
	movl	%eax, %ebx
	movl	8(%ebp), %eax
	movl	%eax, 4(%esp)
	movl	$24, (%esp)
	call	__ZnwjPv
	testl	%eax, %eax
	je	L174
	.loc 8 110 0 is_stmt 0 discriminator 1
	movl	%ebx, (%esp)
	movl	%eax, %ecx
	call	__ZNSt13_Rb_tree_nodeISt4pairIKiP4TestEEC1IIS0_IiS3_EEEEDpOT_
	subl	$4, %esp
L174:
	.loc 8 110 0
	movl	-4(%ebp), %ebx
	leave
LCFI170:
	.cfi_restore 5
	.cfi_restore 3
	.cfi_def_cfa 4, 4
	ret	$8
	.cfi_endproc
LFE1110:
	.weak	__ZN9__gnu_cxx13new_allocatorISt13_Rb_tree_nodeISt4pairIKiP4TestEEE9constructIS7_JS2_IiS5_EEEEvPT_DpOT0_
	.def	__ZN9__gnu_cxx13new_allocatorISt13_Rb_tree_nodeISt4pairIKiP4TestEEE9constructIS7_JS2_IiS5_EEEEvPT_DpOT0_;	.scl	2;	.type	32;	.endef
	.set	__ZN9__gnu_cxx13new_allocatorISt13_Rb_tree_nodeISt4pairIKiP4TestEEE9constructIS7_JS2_IiS5_EEEEvPT_DpOT0_,__ZN9__gnu_cxx13new_allocatorISt13_Rb_tree_nodeISt4pairIKiP4TestEEE9constructIS7_IS2_IiS5_EEEEvPT_DpOT0_
	.section	.text$_ZN9__gnu_cxx13new_allocatorISt13_Rb_tree_nodeISt4pairIKiP4TestEEE8allocateEjPKv,"x"
	.linkonce discard
	.align 2
	.globl	__ZN9__gnu_cxx13new_allocatorISt13_Rb_tree_nodeISt4pairIKiP4TestEEE8allocateEjPKv
	.def	__ZN9__gnu_cxx13new_allocatorISt13_Rb_tree_nodeISt4pairIKiP4TestEEE8allocateEjPKv;	.scl	2;	.type	32;	.endef
__ZN9__gnu_cxx13new_allocatorISt13_Rb_tree_nodeISt4pairIKiP4TestEEE8allocateEjPKv:
LFB1111:
	.loc 8 89 0 is_stmt 1
	.cfi_startproc
	pushl	%ebp
LCFI171:
	.cfi_def_cfa_offset 8
	.cfi_offset 5, -8
	movl	%esp, %ebp
LCFI172:
	.cfi_def_cfa_register 5
	subl	$40, %esp
	movl	%ecx, -12(%ebp)
	.loc 8 91 0
	movl	-12(%ebp), %eax
	movl	%eax, %ecx
	call	__ZNK9__gnu_cxx13new_allocatorISt13_Rb_tree_nodeISt4pairIKiP4TestEEE8max_sizeEv
	cmpl	8(%ebp), %eax
	setb	%al
	testb	%al, %al
	je	L178
	.loc 8 92 0
	call	__ZSt17__throw_bad_allocv
L178:
	.loc 8 94 0
	movl	8(%ebp), %edx
	movl	%edx, %eax
	sall	%eax
	addl	%edx, %eax
	sall	$3, %eax
	movl	%eax, (%esp)
	call	__Znwj
	.loc 8 95 0
	leave
LCFI173:
	.cfi_restore 5
	.cfi_def_cfa 4, 4
	ret	$8
	.cfi_endproc
LFE1111:
	.section	.text$_ZNSt13_Rb_tree_nodeISt4pairIKiP4TestEEC1IIS0_IiS3_EEEEDpOT_,"x"
	.linkonce discard
	.align 2
	.globl	__ZNSt13_Rb_tree_nodeISt4pairIKiP4TestEEC1IIS0_IiS3_EEEEDpOT_
	.def	__ZNSt13_Rb_tree_nodeISt4pairIKiP4TestEEC1IIS0_IiS3_EEEEDpOT_;	.scl	2;	.type	32;	.endef
__ZNSt13_Rb_tree_nodeISt4pairIKiP4TestEEC1IIS0_IiS3_EEEEDpOT_:
LFB1114:
	.loc 6 137 0
	.cfi_startproc
	pushl	%ebp
LCFI174:
	.cfi_def_cfa_offset 8
	.cfi_offset 5, -8
	movl	%esp, %ebp
LCFI175:
	.cfi_def_cfa_register 5
	pushl	%edi
	pushl	%ebx
	subl	$8, %esp
	.cfi_offset 7, -12
	.cfi_offset 3, -16
	movl	%ecx, -12(%ebp)
LBB21:
	.loc 6 139 0
	movl	-12(%ebp), %eax
	movl	%eax, %ebx
	movb	$0, %al
	movl	$16, %edx
	movl	%ebx, %edi
	movl	%edx, %ecx
	rep stosb
	movl	8(%ebp), %eax
	movl	%eax, (%esp)
	call	__ZSt7forwardISt4pairIiP4TestEEOT_RNSt16remove_referenceIS4_E4typeE
	movl	-12(%ebp), %edx
	addl	$16, %edx
	movl	%eax, (%esp)
	movl	%edx, %ecx
	call	__ZNSt4pairIKiP4TestEC1IiS2_vEEOS_IT_T0_E
	subl	$4, %esp
LBE21:
	leal	-8(%ebp), %esp
	popl	%ebx
	.cfi_restore 3
	popl	%edi
	.cfi_restore 7
	popl	%ebp
LCFI176:
	.cfi_restore 5
	.cfi_def_cfa 4, 4
	ret	$4
	.cfi_endproc
LFE1114:
	.weak	__ZNSt13_Rb_tree_nodeISt4pairIKiP4TestEEC1IJS0_IiS3_EEEEDpOT_
	.def	__ZNSt13_Rb_tree_nodeISt4pairIKiP4TestEEC1IJS0_IiS3_EEEEDpOT_;	.scl	2;	.type	32;	.endef
	.set	__ZNSt13_Rb_tree_nodeISt4pairIKiP4TestEEC1IJS0_IiS3_EEEEDpOT_,__ZNSt13_Rb_tree_nodeISt4pairIKiP4TestEEC1IIS0_IiS3_EEEEDpOT_
	.section	.text$_ZNK9__gnu_cxx13new_allocatorISt13_Rb_tree_nodeISt4pairIKiP4TestEEE8max_sizeEv,"x"
	.linkonce discard
	.align 2
	.globl	__ZNK9__gnu_cxx13new_allocatorISt13_Rb_tree_nodeISt4pairIKiP4TestEEE8max_sizeEv
	.def	__ZNK9__gnu_cxx13new_allocatorISt13_Rb_tree_nodeISt4pairIKiP4TestEEE8max_sizeEv;	.scl	2;	.type	32;	.endef
__ZNK9__gnu_cxx13new_allocatorISt13_Rb_tree_nodeISt4pairIKiP4TestEEE8max_sizeEv:
LFB1115:
	.loc 8 103 0
	.cfi_startproc
	pushl	%ebp
LCFI177:
	.cfi_def_cfa_offset 8
	.cfi_offset 5, -8
	movl	%esp, %ebp
LCFI178:
	.cfi_def_cfa_register 5
	subl	$4, %esp
	movl	%ecx, -4(%ebp)
	.loc 8 104 0
	movl	$178956970, %eax
	leave
LCFI179:
	.cfi_restore 5
	.cfi_def_cfa 4, 4
	ret
	.cfi_endproc
LFE1115:
	.text
Letext0:
	.file 9 "c:/program files (x86)/codeblocks/mingw/bin/../lib/gcc/mingw32/4.7.0/include/c++/cwchar"
	.file 10 "c:/program files (x86)/codeblocks/mingw/bin/../lib/gcc/mingw32/4.7.0/include/c++/cstdint"
	.file 11 "c:/program files (x86)/codeblocks/mingw/bin/../lib/gcc/mingw32/4.7.0/include/c++/mingw32/bits/c++config.h"
	.file 12 "c:/program files (x86)/codeblocks/mingw/bin/../lib/gcc/mingw32/4.7.0/include/c++/clocale"
	.file 13 "c:/program files (x86)/codeblocks/mingw/bin/../lib/gcc/mingw32/4.7.0/include/c++/bits/stringfwd.h"
	.file 14 "F:/CSIKI/PROGRAMING/C++/main/Croupier/BotTester/BotTester/BotLanguage.h"
	.file 15 "c:/program files (x86)/codeblocks/mingw/bin/../lib/gcc/mingw32/4.7.0/include/c++/bits/basic_string.h"
	.file 16 "<built-in>"
	.file 17 "c:/program files (x86)/codeblocks/mingw/bin/../lib/gcc/mingw32/4.7.0/include/c++/bits/cpp_type_traits.h"
	.file 18 "c:/program files (x86)/codeblocks/mingw/bin/../lib/gcc/mingw32/4.7.0/include/c++/type_traits"
	.file 19 "c:/program files (x86)/codeblocks/mingw/bin/../lib/gcc/mingw32/4.7.0/include/c++/debug/debug.h"
	.file 20 "c:/program files (x86)/codeblocks/mingw/bin/../lib/gcc/mingw32/4.7.0/include/stddef.h"
	.file 21 "c:/program files (x86)/codeblocks/mingw/bin/../lib/gcc/mingw32/4.7.0/../../../../include/wchar.h"
	.file 22 "c:/program files (x86)/codeblocks/mingw/bin/../lib/gcc/mingw32/4.7.0/include/c++/bits/char_traits.h"
	.file 23 "c:/program files (x86)/codeblocks/mingw/bin/../lib/gcc/mingw32/4.7.0/../../../../include/stdint.h"
	.file 24 "c:/program files (x86)/codeblocks/mingw/bin/../lib/gcc/mingw32/4.7.0/include/c++/bits/allocator.h"
	.file 25 "c:/program files (x86)/codeblocks/mingw/bin/../lib/gcc/mingw32/4.7.0/../../../../include/locale.h"
	.file 26 "c:/program files (x86)/codeblocks/mingw/bin/../lib/gcc/mingw32/4.7.0/include/c++/mingw32/bits/atomic_word.h"
	.file 27 "c:/program files (x86)/codeblocks/mingw/bin/../lib/gcc/mingw32/4.7.0/include/c++/ext/numeric_traits.h"
	.file 28 "c:/program files (x86)/codeblocks/mingw/bin/../lib/gcc/mingw32/4.7.0/include/c++/bits/basic_string.tcc"
	.file 29 "c:/program files (x86)/codeblocks/mingw/bin/../lib/gcc/mingw32/4.7.0/include/c++/initializer_list"
	.file 30 "F:/CSIKI/PROGRAMING/C++/main/Croupier/BotTester/BotTester/Test.h"
	.file 31 "F:/CSIKI/PROGRAMING/C++/main/Croupier/BotTester/BotTester/Tester.h"
	.file 32 "F:/CSIKI/PROGRAMING/C++/main/Croupier/BotTester/BotTester/BotData.h"
	.file 33 "c:/program files (x86)/codeblocks/mingw/bin/../lib/gcc/mingw32/4.7.0/include/c++/mingw32/bits/gthr-default.h"